ARM GAS  /var/folders/z2/7_lhr9dn53s9tj4s0rwtyswm0000gn/T//ccooqcSF.s 			page 1


   1              		.cpu cortex-m7
   2              		.arch armv7e-m
   3              		.fpu fpv5-d16
   4              		.eabi_attribute 28, 1
   5              		.eabi_attribute 20, 1
   6              		.eabi_attribute 21, 1
   7              		.eabi_attribute 23, 3
   8              		.eabi_attribute 24, 1
   9              		.eabi_attribute 25, 1
  10              		.eabi_attribute 26, 1
  11              		.eabi_attribute 30, 2
  12              		.eabi_attribute 34, 1
  13              		.eabi_attribute 18, 4
  14              		.file	"daisytusen.cpp"
  15              		.text
  16              	.Ltext0:
  17              		.cfi_sections	.debug_frame
  18              		.section	.text._ZN5daisy10TusenskonaD2Ev,"axG",%progbits,_ZN5daisy10TusenskonaD5Ev,comdat
  19              		.align	1
  20              		.p2align 2,,3
  21              		.weak	_ZN5daisy10TusenskonaD2Ev
  22              		.syntax unified
  23              		.thumb
  24              		.thumb_func
  26              	_ZN5daisy10TusenskonaD2Ev:
  27              	.LVL0:
  28              	.LFB2580:
  29              		.file 1 "../../tusenskona//src/tusenskona.h"
   1:../../tusenskona//src/tusenskona.h **** #ifndef TUSENSKONA_H
   2:../../tusenskona//src/tusenskona.h **** #define TUSENSKONA_H
   3:../../tusenskona//src/tusenskona.h **** 
   4:../../tusenskona//src/tusenskona.h **** #include "daisy_seed.h"
   5:../../tusenskona//src/tusenskona.h **** 
   6:../../tusenskona//src/tusenskona.h **** namespace daisy
   7:../../tusenskona//src/tusenskona.h **** {
   8:../../tusenskona//src/tusenskona.h **** 
   9:../../tusenskona//src/tusenskona.h **** class Tusenskona
  10:../../tusenskona//src/tusenskona.h **** {
  11:../../tusenskona//src/tusenskona.h ****   public:
  12:../../tusenskona//src/tusenskona.h ****     /** Switches */
  13:../../tusenskona//src/tusenskona.h ****     enum Sw
  14:../../tusenskona//src/tusenskona.h ****     {
  15:../../tusenskona//src/tusenskona.h ****         BUTTON_1,    /** & */
  16:../../tusenskona//src/tusenskona.h ****         BUTTON_2,    /** & */
  17:../../tusenskona//src/tusenskona.h ****         BUTTON_LAST, /** &  */
  18:../../tusenskona//src/tusenskona.h ****     };
  19:../../tusenskona//src/tusenskona.h **** 
  20:../../tusenskona//src/tusenskona.h ****     /** Knobs */
  21:../../tusenskona//src/tusenskona.h ****     enum Knob
  22:../../tusenskona//src/tusenskona.h ****     {
  23:../../tusenskona//src/tusenskona.h ****         KNOB_1,    /** &  */
  24:../../tusenskona//src/tusenskona.h ****         KNOB_2,    /** & */
  25:../../tusenskona//src/tusenskona.h ****         KNOB_3,    /** & */
  26:../../tusenskona//src/tusenskona.h ****         KNOB_4,    /** & */
  27:../../tusenskona//src/tusenskona.h ****         KNOB_LAST, /** & */
  28:../../tusenskona//src/tusenskona.h ****     };
  29:../../tusenskona//src/tusenskona.h **** 
ARM GAS  /var/folders/z2/7_lhr9dn53s9tj4s0rwtyswm0000gn/T//ccooqcSF.s 			page 2


  30:../../tusenskona//src/tusenskona.h ****     Tusenskona() {}
  31:../../tusenskona//src/tusenskona.h ****     ~Tusenskona() {}
  30              		.loc 1 31 5 view -0
  31              		.cfi_startproc
  32              		@ args = 0, pretend = 0, frame = 0
  33              		@ frame_needed = 0, uses_anonymous_args = 0
  34              		@ link register save eliminated.
  35              	.LBB304:
  36              	.LBI304:
  37              		.file 2 "../../libDaisy//src/hid/rgb_led.h"
   1:../../libDaisy//src/hid/rgb_led.h **** #pragma once
   2:../../libDaisy//src/hid/rgb_led.h **** #ifndef DSY_RGB_LED_H
   3:../../libDaisy//src/hid/rgb_led.h **** #define DSY_RGB_LED_H
   4:../../libDaisy//src/hid/rgb_led.h **** #include "hid/led.h"
   5:../../libDaisy//src/hid/rgb_led.h **** #include "util/color.h"
   6:../../libDaisy//src/hid/rgb_led.h **** 
   7:../../libDaisy//src/hid/rgb_led.h **** namespace daisy
   8:../../libDaisy//src/hid/rgb_led.h **** {
   9:../../libDaisy//src/hid/rgb_led.h **** /** @addtogroup feedback
  10:../../libDaisy//src/hid/rgb_led.h ****     @{
  11:../../libDaisy//src/hid/rgb_led.h **** */
  12:../../libDaisy//src/hid/rgb_led.h **** 
  13:../../libDaisy//src/hid/rgb_led.h **** /** 3x LEDs configured as an RGB for ease of use. */
  14:../../libDaisy//src/hid/rgb_led.h **** class RgbLed
  15:../../libDaisy//src/hid/rgb_led.h **** {
  16:../../libDaisy//src/hid/rgb_led.h ****   public:
  17:../../libDaisy//src/hid/rgb_led.h ****     RgbLed() {}
  18:../../libDaisy//src/hid/rgb_led.h ****     ~RgbLed() {}
  38              		.loc 2 18 5 view .LVU1
  39              	.LBB305:
  40              	.LBI305:
  41              		.file 3 "../../libDaisy//src/hid/led.h"
   1:../../libDaisy//src/hid/led.h **** 
   2:../../libDaisy//src/hid/led.h **** #pragma once
   3:../../libDaisy//src/hid/led.h **** #ifndef DSY_LED_H
   4:../../libDaisy//src/hid/led.h **** #define DSY_LED_H
   5:../../libDaisy//src/hid/led.h **** #include "daisy_core.h"
   6:../../libDaisy//src/hid/led.h **** #include "per/gpio.h"
   7:../../libDaisy//src/hid/led.h **** 
   8:../../libDaisy//src/hid/led.h **** /* TODO - Get this set up to work with the dev_leddriver stuff as well
   9:../../libDaisy//src/hid/led.h **** - Setup Hardware PWM for pins that have it
  10:../../libDaisy//src/hid/led.h **** */
  11:../../libDaisy//src/hid/led.h **** 
  12:../../libDaisy//src/hid/led.h **** namespace daisy
  13:../../libDaisy//src/hid/led.h **** {
  14:../../libDaisy//src/hid/led.h **** /**
  15:../../libDaisy//src/hid/led.h ****     @brief LED Class providing simple Software PWM ability, etc \n 
  16:../../libDaisy//src/hid/led.h ****     Eventually this will work with hardware PWM, and external LED Driver devices as well.
  17:../../libDaisy//src/hid/led.h ****     @author shensley
  18:../../libDaisy//src/hid/led.h ****     @date March 2020
  19:../../libDaisy//src/hid/led.h ****     @ingroup feedback
  20:../../libDaisy//src/hid/led.h **** */
  21:../../libDaisy//src/hid/led.h **** class Led
  22:../../libDaisy//src/hid/led.h **** {
  23:../../libDaisy//src/hid/led.h ****   public:
  24:../../libDaisy//src/hid/led.h ****     Led() {}
  25:../../libDaisy//src/hid/led.h ****     ~Led() {}
ARM GAS  /var/folders/z2/7_lhr9dn53s9tj4s0rwtyswm0000gn/T//ccooqcSF.s 			page 3


  42              		.loc 3 25 5 view .LVU2
  43              		.loc 3 25 5 is_stmt 0 view .LVU3
  44              	.LBE305:
  45              	.LBB306:
  46              	.LBI306:
  47              		.loc 3 25 5 is_stmt 1 view .LVU4
  48              		.loc 3 25 5 is_stmt 0 view .LVU5
  49              	.LBE306:
  50              	.LBB307:
  51              	.LBI307:
  52              		.loc 3 25 5 is_stmt 1 view .LVU6
  53              		.loc 3 25 5 is_stmt 0 view .LVU7
  54              	.LBE307:
  55              	.LBE304:
  56              	.LBB308:
  57              	.LBI308:
  58              		.file 4 "../../libDaisy//src/hid/switch.h"
   1:../../libDaisy//src/hid/switch.h **** #pragma once
   2:../../libDaisy//src/hid/switch.h **** #ifndef DSY_SWITCH_H
   3:../../libDaisy//src/hid/switch.h **** #define DSY_SWITCH_H
   4:../../libDaisy//src/hid/switch.h **** #include "daisy_core.h"
   5:../../libDaisy//src/hid/switch.h **** #include "per/gpio.h"
   6:../../libDaisy//src/hid/switch.h **** #include "sys/system.h"
   7:../../libDaisy//src/hid/switch.h **** 
   8:../../libDaisy//src/hid/switch.h **** namespace daisy
   9:../../libDaisy//src/hid/switch.h **** {
  10:../../libDaisy//src/hid/switch.h **** /** 
  11:../../libDaisy//src/hid/switch.h ****     Generic Class for handling momentary/latching switches \n 
  12:../../libDaisy//src/hid/switch.h ****     Inspired/influenced by Mutable Instruments (pichenettes) Switch classes
  13:../../libDaisy//src/hid/switch.h ****     @author Stephen Hensley
  14:../../libDaisy//src/hid/switch.h ****     @date December 2019
  15:../../libDaisy//src/hid/switch.h ****     @ingroup controls
  16:../../libDaisy//src/hid/switch.h **** */
  17:../../libDaisy//src/hid/switch.h **** class Switch
  18:../../libDaisy//src/hid/switch.h **** {
  19:../../libDaisy//src/hid/switch.h ****   public:
  20:../../libDaisy//src/hid/switch.h ****     /** Specifies the expected behavior of the switch */
  21:../../libDaisy//src/hid/switch.h ****     enum Type
  22:../../libDaisy//src/hid/switch.h ****     {
  23:../../libDaisy//src/hid/switch.h ****         TYPE_TOGGLE,    /**< & */
  24:../../libDaisy//src/hid/switch.h ****         TYPE_MOMENTARY, /**< & */
  25:../../libDaisy//src/hid/switch.h ****     };
  26:../../libDaisy//src/hid/switch.h ****     /** Specifies whether the pressed is HIGH or LOW. */
  27:../../libDaisy//src/hid/switch.h ****     enum Polarity
  28:../../libDaisy//src/hid/switch.h ****     {
  29:../../libDaisy//src/hid/switch.h ****         POLARITY_NORMAL,   /**< & */
  30:../../libDaisy//src/hid/switch.h ****         POLARITY_INVERTED, /**< & */
  31:../../libDaisy//src/hid/switch.h ****     };
  32:../../libDaisy//src/hid/switch.h **** 
  33:../../libDaisy//src/hid/switch.h ****     /** Specifies whether to use built-in Pull Up/Down resistors to hold button at a given state wh
  34:../../libDaisy//src/hid/switch.h ****     enum Pull
  35:../../libDaisy//src/hid/switch.h ****     {
  36:../../libDaisy//src/hid/switch.h ****         PULL_UP,   /**< & */
  37:../../libDaisy//src/hid/switch.h ****         PULL_DOWN, /**< & */
  38:../../libDaisy//src/hid/switch.h ****         PULL_NONE, /**< & */
  39:../../libDaisy//src/hid/switch.h ****     };
  40:../../libDaisy//src/hid/switch.h **** 
ARM GAS  /var/folders/z2/7_lhr9dn53s9tj4s0rwtyswm0000gn/T//ccooqcSF.s 			page 4


  41:../../libDaisy//src/hid/switch.h ****     Switch() {}
  42:../../libDaisy//src/hid/switch.h ****     ~Switch() {}
  59              		.loc 4 42 5 is_stmt 1 view .LVU8
  60              		.loc 4 42 5 is_stmt 0 view .LVU9
  61              	.LBE308:
  62              	.LBB309:
  63              	.LBI309:
  64              		.loc 4 42 5 is_stmt 1 view .LVU10
  65              		.loc 4 42 5 is_stmt 0 view .LVU11
  66              	.LBE309:
  67              	.LBB310:
  68              	.LBI310:
  69              		.file 5 "../../libDaisy//src/hid/ctrl.h"
   1:../../libDaisy//src/hid/ctrl.h **** #pragma once
   2:../../libDaisy//src/hid/ctrl.h **** #ifndef DSY_KNOB_H
   3:../../libDaisy//src/hid/ctrl.h **** #define DSY_KNOB_H /**< & */
   4:../../libDaisy//src/hid/ctrl.h **** #include <stdint.h>
   5:../../libDaisy//src/hid/ctrl.h **** 
   6:../../libDaisy//src/hid/ctrl.h **** #ifdef __cplusplus
   7:../../libDaisy//src/hid/ctrl.h **** namespace daisy
   8:../../libDaisy//src/hid/ctrl.h **** {
   9:../../libDaisy//src/hid/ctrl.h **** /**
  10:../../libDaisy//src/hid/ctrl.h ****     @brief Hardware Interface for control inputs \n 
  11:../../libDaisy//src/hid/ctrl.h ****     Primarily designed for ADC input controls such as \n 
  12:../../libDaisy//src/hid/ctrl.h ****     potentiometers, and control voltage. \n 
  13:../../libDaisy//src/hid/ctrl.h ****     @author Stephen Hensley
  14:../../libDaisy//src/hid/ctrl.h ****     @date November 2019
  15:../../libDaisy//src/hid/ctrl.h ****     @ingroup controls
  16:../../libDaisy//src/hid/ctrl.h **** */
  17:../../libDaisy//src/hid/ctrl.h **** class AnalogControl
  18:../../libDaisy//src/hid/ctrl.h **** {
  19:../../libDaisy//src/hid/ctrl.h ****   public:
  20:../../libDaisy//src/hid/ctrl.h ****     /** Constructor */
  21:../../libDaisy//src/hid/ctrl.h ****     AnalogControl() {}
  22:../../libDaisy//src/hid/ctrl.h ****     /** destructor */
  23:../../libDaisy//src/hid/ctrl.h ****     ~AnalogControl() {}
  70              		.loc 5 23 5 is_stmt 1 view .LVU12
  71              		.loc 5 23 5 is_stmt 0 view .LVU13
  72              	.LBE310:
  73              	.LBB311:
  74              	.LBI311:
  75              		.loc 5 23 5 is_stmt 1 view .LVU14
  76              		.loc 5 23 5 is_stmt 0 view .LVU15
  77              	.LBE311:
  78              	.LBB312:
  79              	.LBI312:
  80              		.loc 5 23 5 is_stmt 1 view .LVU16
  81              		.loc 5 23 5 is_stmt 0 view .LVU17
  82              	.LBE312:
  83              	.LBB313:
  84              	.LBI313:
  85              		.loc 5 23 5 is_stmt 1 view .LVU18
  86              		.loc 5 23 5 is_stmt 0 view .LVU19
  87              	.LBE313:
  88              	.LBB314:
  89              	.LBI314:
  90              		.file 6 "../../libDaisy//src/hid/encoder.h"
ARM GAS  /var/folders/z2/7_lhr9dn53s9tj4s0rwtyswm0000gn/T//ccooqcSF.s 			page 5


   1:../../libDaisy//src/hid/encoder.h **** #pragma once
   2:../../libDaisy//src/hid/encoder.h **** #ifndef DSY_ENCODER_H
   3:../../libDaisy//src/hid/encoder.h **** #define DSY_ENCODER_H
   4:../../libDaisy//src/hid/encoder.h **** #include "daisy_core.h"
   5:../../libDaisy//src/hid/encoder.h **** #include "per/gpio.h"
   6:../../libDaisy//src/hid/encoder.h **** #include "hid/switch.h"
   7:../../libDaisy//src/hid/encoder.h **** 
   8:../../libDaisy//src/hid/encoder.h **** namespace daisy
   9:../../libDaisy//src/hid/encoder.h **** {
  10:../../libDaisy//src/hid/encoder.h **** /** 
  11:../../libDaisy//src/hid/encoder.h ****     @brief Generic Class for handling Quadrature Encoders \n 
  12:../../libDaisy//src/hid/encoder.h ****     Inspired/influenced by Mutable Instruments (pichenettes) Encoder classes
  13:../../libDaisy//src/hid/encoder.h ****     @author Stephen Hensley
  14:../../libDaisy//src/hid/encoder.h ****     @date December 2019
  15:../../libDaisy//src/hid/encoder.h ****     @ingroup controls
  16:../../libDaisy//src/hid/encoder.h **** */
  17:../../libDaisy//src/hid/encoder.h **** class Encoder
  18:../../libDaisy//src/hid/encoder.h **** {
  19:../../libDaisy//src/hid/encoder.h ****   public:
  20:../../libDaisy//src/hid/encoder.h ****     Encoder() {}
  21:../../libDaisy//src/hid/encoder.h ****     ~Encoder() {}
  91              		.loc 6 21 5 is_stmt 1 view .LVU20
  92              	.LBB315:
  93              	.LBI315:
  94              		.loc 4 42 5 view .LVU21
  95              		.loc 4 42 5 is_stmt 0 view .LVU22
  96              	.LBE315:
  97              	.LBE314:
  98              	.LBB316:
  99              	.LBI316:
 100              		.file 7 "../../libDaisy//src/daisy_seed.h"
   1:../../libDaisy//src/daisy_seed.h **** #pragma once
   2:../../libDaisy//src/daisy_seed.h **** #ifndef DSY_SEED_H
   3:../../libDaisy//src/daisy_seed.h **** #define DSY_SEED_H
   4:../../libDaisy//src/daisy_seed.h **** 
   5:../../libDaisy//src/daisy_seed.h **** #include "daisy.h"
   6:../../libDaisy//src/daisy_seed.h **** 
   7:../../libDaisy//src/daisy_seed.h **** //Uncomment this out if you're still using the rev2 hardware
   8:../../libDaisy//src/daisy_seed.h **** //#define SEED_REV2
   9:../../libDaisy//src/daisy_seed.h **** 
  10:../../libDaisy//src/daisy_seed.h **** namespace daisy
  11:../../libDaisy//src/daisy_seed.h **** {
  12:../../libDaisy//src/daisy_seed.h **** /**
  13:../../libDaisy//src/daisy_seed.h ****    @brief This is the higher-level interface for the Daisy board. \n 
  14:../../libDaisy//src/daisy_seed.h ****     All basic peripheral configuration/initialization is setup here. \n
  15:../../libDaisy//src/daisy_seed.h **** 
  16:../../libDaisy//src/daisy_seed.h ****    @ingroup boards
  17:../../libDaisy//src/daisy_seed.h **** */
  18:../../libDaisy//src/daisy_seed.h **** class DaisySeed
  19:../../libDaisy//src/daisy_seed.h **** {
  20:../../libDaisy//src/daisy_seed.h ****   public:
  21:../../libDaisy//src/daisy_seed.h ****     DaisySeed() {}
  22:../../libDaisy//src/daisy_seed.h ****     ~DaisySeed() {}
 101              		.loc 7 22 5 is_stmt 1 view .LVU23
 102              	.LBB317:
 103              	.LBI317:
 104              		.file 8 "../../libDaisy//src/sys/system.h"
ARM GAS  /var/folders/z2/7_lhr9dn53s9tj4s0rwtyswm0000gn/T//ccooqcSF.s 			page 6


   1:../../libDaisy//src/sys/system.h **** #ifndef DSY_SYSTEM_H
   2:../../libDaisy//src/sys/system.h **** #define DSY_SYSTEM_H
   3:../../libDaisy//src/sys/system.h **** 
   4:../../libDaisy//src/sys/system.h **** #ifndef UNIT_TEST // for unit tests, a dummy implementation is provided below
   5:../../libDaisy//src/sys/system.h **** 
   6:../../libDaisy//src/sys/system.h **** #include <cstdint>
   7:../../libDaisy//src/sys/system.h **** #include "per/tim.h"
   8:../../libDaisy//src/sys/system.h **** 
   9:../../libDaisy//src/sys/system.h **** namespace daisy
  10:../../libDaisy//src/sys/system.h **** {
  11:../../libDaisy//src/sys/system.h **** /** A handle for interacting with the Core System.
  12:../../libDaisy//src/sys/system.h ****  ** This includes the Clock tree, MPU, global DMA initialization,
  13:../../libDaisy//src/sys/system.h ****  ** cache handling, and any other necessary global initiailzation
  14:../../libDaisy//src/sys/system.h ****  **
  15:../../libDaisy//src/sys/system.h ****  ** @author shensley
  16:../../libDaisy//src/sys/system.h ****  ** @ingroup system
  17:../../libDaisy//src/sys/system.h ****  */
  18:../../libDaisy//src/sys/system.h **** class System
  19:../../libDaisy//src/sys/system.h **** {
  20:../../libDaisy//src/sys/system.h ****   public:
  21:../../libDaisy//src/sys/system.h ****     /** Contains settings for initializing the System */
  22:../../libDaisy//src/sys/system.h ****     struct Config
  23:../../libDaisy//src/sys/system.h ****     {
  24:../../libDaisy//src/sys/system.h ****         /** Specifies the system clock frequency that feeds APB/AHB clocks, etc. */
  25:../../libDaisy//src/sys/system.h ****         enum class SysClkFreq
  26:../../libDaisy//src/sys/system.h ****         {
  27:../../libDaisy//src/sys/system.h ****             FREQ_400MHZ,
  28:../../libDaisy//src/sys/system.h ****             FREQ_480MHZ,
  29:../../libDaisy//src/sys/system.h ****         };
  30:../../libDaisy//src/sys/system.h **** 
  31:../../libDaisy//src/sys/system.h ****         /** Method to call on the struct to set to defaults
  32:../../libDaisy//src/sys/system.h ****          ** CPU Freq set to 400MHz
  33:../../libDaisy//src/sys/system.h ****          ** Cache Enabled
  34:../../libDaisy//src/sys/system.h ****          ** */
  35:../../libDaisy//src/sys/system.h ****         void Defaults()
  36:../../libDaisy//src/sys/system.h ****         {
  37:../../libDaisy//src/sys/system.h ****             cpu_freq    = SysClkFreq::FREQ_400MHZ;
  38:../../libDaisy//src/sys/system.h ****             use_dcache  = true;
  39:../../libDaisy//src/sys/system.h ****             use_icache  = true;
  40:../../libDaisy//src/sys/system.h ****             skip_clocks = false;
  41:../../libDaisy//src/sys/system.h ****         }
  42:../../libDaisy//src/sys/system.h **** 
  43:../../libDaisy//src/sys/system.h ****         /** Method to call on the struct to set to boost mode:
  44:../../libDaisy//src/sys/system.h ****          ** CPU Freq set to 480MHz
  45:../../libDaisy//src/sys/system.h ****          ** Cache Enabled
  46:../../libDaisy//src/sys/system.h ****          ** */
  47:../../libDaisy//src/sys/system.h ****         void Boost()
  48:../../libDaisy//src/sys/system.h ****         {
  49:../../libDaisy//src/sys/system.h ****             cpu_freq    = SysClkFreq::FREQ_480MHZ;
  50:../../libDaisy//src/sys/system.h ****             use_dcache  = true;
  51:../../libDaisy//src/sys/system.h ****             use_icache  = true;
  52:../../libDaisy//src/sys/system.h ****             skip_clocks = false;
  53:../../libDaisy//src/sys/system.h ****         }
  54:../../libDaisy//src/sys/system.h **** 
  55:../../libDaisy//src/sys/system.h ****         SysClkFreq cpu_freq;
  56:../../libDaisy//src/sys/system.h ****         bool       use_dcache;
  57:../../libDaisy//src/sys/system.h ****         bool       use_icache;
ARM GAS  /var/folders/z2/7_lhr9dn53s9tj4s0rwtyswm0000gn/T//ccooqcSF.s 			page 7


  58:../../libDaisy//src/sys/system.h ****         bool       skip_clocks;
  59:../../libDaisy//src/sys/system.h ****     };
  60:../../libDaisy//src/sys/system.h **** 
  61:../../libDaisy//src/sys/system.h ****     /** Describes the different regions of memory available to the Daisy */
  62:../../libDaisy//src/sys/system.h ****     enum MemoryRegion
  63:../../libDaisy//src/sys/system.h ****     {
  64:../../libDaisy//src/sys/system.h ****         INTERNAL_FLASH = 0,
  65:../../libDaisy//src/sys/system.h ****         ITCMRAM,
  66:../../libDaisy//src/sys/system.h ****         DTCMRAM,
  67:../../libDaisy//src/sys/system.h ****         SRAM_D1,
  68:../../libDaisy//src/sys/system.h ****         SRAM_D2,
  69:../../libDaisy//src/sys/system.h ****         SRAM_D3,
  70:../../libDaisy//src/sys/system.h ****         SDRAM,
  71:../../libDaisy//src/sys/system.h ****         QSPI,
  72:../../libDaisy//src/sys/system.h ****         INVALID_ADDRESS,
  73:../../libDaisy//src/sys/system.h ****     };
  74:../../libDaisy//src/sys/system.h **** 
  75:../../libDaisy//src/sys/system.h ****     /** Bootloader struct for controlling bootloading parameters */
  76:../../libDaisy//src/sys/system.h ****     struct BootInfo
  77:../../libDaisy//src/sys/system.h ****     {
  78:../../libDaisy//src/sys/system.h ****         enum class Type : uint32_t
  79:../../libDaisy//src/sys/system.h ****         {
  80:../../libDaisy//src/sys/system.h ****             INVALID      = 0x00000000,
  81:../../libDaisy//src/sys/system.h ****             JUMP         = 0xDEADBEEF,
  82:../../libDaisy//src/sys/system.h ****             SKIP_TIMEOUT = 0x5AFEB007,
  83:../../libDaisy//src/sys/system.h ****             INF_TIMEOUT  = 0xB0074EFA,
  84:../../libDaisy//src/sys/system.h ****         } status;
  85:../../libDaisy//src/sys/system.h ****         uint32_t data;
  86:../../libDaisy//src/sys/system.h ****         enum class Version : uint32_t
  87:../../libDaisy//src/sys/system.h ****         {
  88:../../libDaisy//src/sys/system.h ****             LT_v6_0 = 0, // Less than v6.0
  89:../../libDaisy//src/sys/system.h ****             NONE,        // No bootloader present
  90:../../libDaisy//src/sys/system.h ****             v6_0,        // v6.0
  91:../../libDaisy//src/sys/system.h ****             v6_1,        // v6.1 or greater
  92:../../libDaisy//src/sys/system.h ****             LAST
  93:../../libDaisy//src/sys/system.h ****         } version;
  94:../../libDaisy//src/sys/system.h ****     };
  95:../../libDaisy//src/sys/system.h **** 
  96:../../libDaisy//src/sys/system.h ****     System() {}
  97:../../libDaisy//src/sys/system.h ****     ~System() {}
 105              		.loc 8 97 5 view .LVU24
 106              		.loc 8 97 5 is_stmt 0 view .LVU25
 107              	.LBE317:
 108              	.LBB318:
 109              	.LBI318:
 110              		.file 9 "../../libDaisy//src/hid/usb.h"
   1:../../libDaisy//src/hid/usb.h **** #pragma once
   2:../../libDaisy//src/hid/usb.h **** #ifndef DSY_HID_USB_H
   3:../../libDaisy//src/hid/usb.h **** #define DSY_HID_USB_H
   4:../../libDaisy//src/hid/usb.h **** #include <stdint.h>
   5:../../libDaisy//src/hid/usb.h **** #include <stdlib.h>
   6:../../libDaisy//src/hid/usb.h **** 
   7:../../libDaisy//src/hid/usb.h **** namespace daisy
   8:../../libDaisy//src/hid/usb.h **** /** @addtogroup human_interface
   9:../../libDaisy//src/hid/usb.h ****     @{
  10:../../libDaisy//src/hid/usb.h **** */
  11:../../libDaisy//src/hid/usb.h **** 
ARM GAS  /var/folders/z2/7_lhr9dn53s9tj4s0rwtyswm0000gn/T//ccooqcSF.s 			page 8


  12:../../libDaisy//src/hid/usb.h **** {
  13:../../libDaisy//src/hid/usb.h **** /** 
  14:../../libDaisy//src/hid/usb.h ****     @brief Interface for initializing and using the USB Peripherals on the daisy
  15:../../libDaisy//src/hid/usb.h ****     @author Stephen Hensley
  16:../../libDaisy//src/hid/usb.h ****     @date December 2019
  17:../../libDaisy//src/hid/usb.h **** */
  18:../../libDaisy//src/hid/usb.h **** class UsbHandle
  19:../../libDaisy//src/hid/usb.h **** {
  20:../../libDaisy//src/hid/usb.h ****   public:
  21:../../libDaisy//src/hid/usb.h ****     /** Return values for USBHandle Functions */
  22:../../libDaisy//src/hid/usb.h ****     enum class Result
  23:../../libDaisy//src/hid/usb.h ****     {
  24:../../libDaisy//src/hid/usb.h ****         OK,
  25:../../libDaisy//src/hid/usb.h ****         ERR,
  26:../../libDaisy//src/hid/usb.h ****     };
  27:../../libDaisy//src/hid/usb.h **** 
  28:../../libDaisy//src/hid/usb.h ****     /** Specified which of the two USB Peripherals to initialize. */
  29:../../libDaisy//src/hid/usb.h ****     enum UsbPeriph
  30:../../libDaisy//src/hid/usb.h ****     {
  31:../../libDaisy//src/hid/usb.h ****         FS_INTERNAL, /**< Internal pin */
  32:../../libDaisy//src/hid/usb.h ****         FS_EXTERNAL, /**< FS External D+ pin is Pin 38 (GPIO32). FS External D- pin is Pin 37 (GPIO
  33:../../libDaisy//src/hid/usb.h ****         FS_BOTH,     /**< Both */
  34:../../libDaisy//src/hid/usb.h ****     };
  35:../../libDaisy//src/hid/usb.h **** 
  36:../../libDaisy//src/hid/usb.h **** 
  37:../../libDaisy//src/hid/usb.h ****     /** Function called upon reception of a buffer */
  38:../../libDaisy//src/hid/usb.h ****     typedef void (*ReceiveCallback)(uint8_t* buff, uint32_t* len);
  39:../../libDaisy//src/hid/usb.h **** 
  40:../../libDaisy//src/hid/usb.h ****     UsbHandle() {}
  41:../../libDaisy//src/hid/usb.h **** 
  42:../../libDaisy//src/hid/usb.h ****     ~UsbHandle() {}
 111              		.loc 9 42 5 is_stmt 1 view .LVU26
 112              		.loc 9 42 5 is_stmt 0 view .LVU27
 113              	.LBE318:
 114              	.LBB319:
 115              	.LBI319:
 116              		.file 10 "../../libDaisy//src/per/adc.h"
   1:../../libDaisy//src/per/adc.h **** #pragma once
   2:../../libDaisy//src/per/adc.h **** #ifndef DSY_ADC_H
   3:../../libDaisy//src/per/adc.h **** #define DSY_ADC_H /**< Macro */
   4:../../libDaisy//src/per/adc.h **** #include <stdint.h>
   5:../../libDaisy//src/per/adc.h **** #include <stdlib.h>
   6:../../libDaisy//src/per/adc.h **** #include "daisy_core.h"
   7:../../libDaisy//src/per/adc.h **** #include "per/gpio.h"
   8:../../libDaisy//src/per/adc.h **** 
   9:../../libDaisy//src/per/adc.h **** #define DSY_ADC_MAX_CHANNELS 16 /**< Maximum number of ADC channels */
  10:../../libDaisy//src/per/adc.h **** 
  11:../../libDaisy//src/per/adc.h **** namespace daisy
  12:../../libDaisy//src/per/adc.h **** {
  13:../../libDaisy//src/per/adc.h **** /** @addtogroup per_analog
  14:../../libDaisy//src/per/adc.h ****     @{
  15:../../libDaisy//src/per/adc.h **** */
  16:../../libDaisy//src/per/adc.h **** 
  17:../../libDaisy//src/per/adc.h **** /* While there may not be many configuration options here,
  18:../../libDaisy//src/per/adc.h **** using a struct like this allows us to add more configuration
  19:../../libDaisy//src/per/adc.h **** later without breaking existing functionality.
  20:../../libDaisy//src/per/adc.h **** */
ARM GAS  /var/folders/z2/7_lhr9dn53s9tj4s0rwtyswm0000gn/T//ccooqcSF.s 			page 9


  21:../../libDaisy//src/per/adc.h **** 
  22:../../libDaisy//src/per/adc.h **** /** @brief   Configuration Structure for an ADC Channel 
  23:../../libDaisy//src/per/adc.h ****  *  @details This can be used to configure a a single input, 
  24:../../libDaisy//src/per/adc.h ****  *           or a multiplexed input, allowing up to 8 inputs on 
  25:../../libDaisy//src/per/adc.h ****  *           one channel.
  26:../../libDaisy//src/per/adc.h ****  *  @note    Sharing data lines to multiple muxes _is_ possible, but
  27:../../libDaisy//src/per/adc.h ****  *           each channel sharing data lines must be set to the maximum
  28:../../libDaisy//src/per/adc.h ****  *           number of channels, even if some multiplexers have fewer
  29:../../libDaisy//src/per/adc.h ****  *           inputs connected.
  30:../../libDaisy//src/per/adc.h **** */
  31:../../libDaisy//src/per/adc.h **** struct AdcChannelConfig
  32:../../libDaisy//src/per/adc.h **** {
  33:../../libDaisy//src/per/adc.h ****     /** Which pin to use for multiplexing */
  34:../../libDaisy//src/per/adc.h ****     enum MuxPin
  35:../../libDaisy//src/per/adc.h ****     {
  36:../../libDaisy//src/per/adc.h ****         MUX_SEL_0,    /**< & */
  37:../../libDaisy//src/per/adc.h ****         MUX_SEL_1,    /**< & */
  38:../../libDaisy//src/per/adc.h ****         MUX_SEL_2,    /**< & */
  39:../../libDaisy//src/per/adc.h ****         MUX_SEL_LAST, /**< & */
  40:../../libDaisy//src/per/adc.h ****     };
  41:../../libDaisy//src/per/adc.h **** 
  42:../../libDaisy//src/per/adc.h ****     /** \brief per channel conversion speed added to fixed time based on bitdepth, etc. */
  43:../../libDaisy//src/per/adc.h ****     enum ConversionSpeed
  44:../../libDaisy//src/per/adc.h ****     {
  45:../../libDaisy//src/per/adc.h ****         SPEED_1CYCLES_5,
  46:../../libDaisy//src/per/adc.h ****         SPEED_2CYCLES_5,
  47:../../libDaisy//src/per/adc.h ****         SPEED_8CYCLES_5,
  48:../../libDaisy//src/per/adc.h ****         SPEED_16CYCLES_5,
  49:../../libDaisy//src/per/adc.h ****         SPEED_32CYCLES_5,
  50:../../libDaisy//src/per/adc.h ****         SPEED_64CYCLES_5,
  51:../../libDaisy//src/per/adc.h ****         SPEED_387CYCLES_5,
  52:../../libDaisy//src/per/adc.h ****         SPEED_810CYCLES_5,
  53:../../libDaisy//src/per/adc.h ****     };
  54:../../libDaisy//src/per/adc.h **** 
  55:../../libDaisy//src/per/adc.h ****     /** Initializes a single ADC pin as an ADC. 
  56:../../libDaisy//src/per/adc.h ****     \param pin Pin to init.
  57:../../libDaisy//src/per/adc.h ****     \param speed conversion speed for this pin defaults to 8.5 cycles
  58:../../libDaisy//src/per/adc.h ****      */
  59:../../libDaisy//src/per/adc.h ****     void InitSingle(dsy_gpio_pin pin, ConversionSpeed speed = SPEED_8CYCLES_5);
  60:../../libDaisy//src/per/adc.h **** 
  61:../../libDaisy//src/per/adc.h ****     /** 
  62:../../libDaisy//src/per/adc.h ****     Initializes a single ADC pin as a Multiplexed ADC.
  63:../../libDaisy//src/per/adc.h ****     Requires a CD405X Multiplexer connected to the pin.
  64:../../libDaisy//src/per/adc.h ****     You only need to supply the mux pins that are required,
  65:../../libDaisy//src/per/adc.h ****     e.g. a 4052 mux would only require mux_0 and mux_1.
  66:../../libDaisy//src/per/adc.h ****     Internal Callbacks handle the pin addressing.
  67:../../libDaisy//src/per/adc.h ****     \param adc_pin &
  68:../../libDaisy//src/per/adc.h ****     \param mux_channels must be 1-8
  69:../../libDaisy//src/per/adc.h ****     \param mux_0 First mux pin
  70:../../libDaisy//src/per/adc.h ****     \param mux_1 Second mux pin
  71:../../libDaisy//src/per/adc.h ****     \param mux_2 Third mux pin
  72:../../libDaisy//src/per/adc.h ****     \param speed conversion speed for this pin defaults to 8.5 cycles
  73:../../libDaisy//src/per/adc.h ****     */
  74:../../libDaisy//src/per/adc.h ****     void InitMux(dsy_gpio_pin    adc_pin,
  75:../../libDaisy//src/per/adc.h ****                  size_t          mux_channels,
  76:../../libDaisy//src/per/adc.h ****                  dsy_gpio_pin    mux_0,
  77:../../libDaisy//src/per/adc.h ****                  dsy_gpio_pin    mux_1 = {DSY_GPIOX, 0},
ARM GAS  /var/folders/z2/7_lhr9dn53s9tj4s0rwtyswm0000gn/T//ccooqcSF.s 			page 10


  78:../../libDaisy//src/per/adc.h ****                  dsy_gpio_pin    mux_2 = {DSY_GPIOX, 0},
  79:../../libDaisy//src/per/adc.h ****                  ConversionSpeed speed = SPEED_8CYCLES_5);
  80:../../libDaisy//src/per/adc.h **** 
  81:../../libDaisy//src/per/adc.h ****     dsy_gpio        pin_;                   /**< & */
  82:../../libDaisy//src/per/adc.h ****     dsy_gpio        mux_pin_[MUX_SEL_LAST]; /**< & */
  83:../../libDaisy//src/per/adc.h ****     uint8_t         mux_channels_;          /**< & */
  84:../../libDaisy//src/per/adc.h ****     ConversionSpeed speed_;
  85:../../libDaisy//src/per/adc.h **** };
  86:../../libDaisy//src/per/adc.h **** 
  87:../../libDaisy//src/per/adc.h **** /**
  88:../../libDaisy//src/per/adc.h ****    @brief Handler for analog to digital conversion
  89:../../libDaisy//src/per/adc.h **** */
  90:../../libDaisy//src/per/adc.h **** class AdcHandle
  91:../../libDaisy//src/per/adc.h **** {
  92:../../libDaisy//src/per/adc.h ****   public:
  93:../../libDaisy//src/per/adc.h ****     /** Supported oversampling amounts */
  94:../../libDaisy//src/per/adc.h ****     enum OverSampling
  95:../../libDaisy//src/per/adc.h ****     {
  96:../../libDaisy//src/per/adc.h ****         OVS_NONE, /**< & */
  97:../../libDaisy//src/per/adc.h ****         OVS_4,    /**< & */
  98:../../libDaisy//src/per/adc.h ****         OVS_8,    /**< & */
  99:../../libDaisy//src/per/adc.h ****         OVS_16,   /**< & */
 100:../../libDaisy//src/per/adc.h ****         OVS_32,   /**< & */
 101:../../libDaisy//src/per/adc.h ****         OVS_64,   /**< & */
 102:../../libDaisy//src/per/adc.h ****         OVS_128,  /**< & */
 103:../../libDaisy//src/per/adc.h ****         OVS_256,  /**< & */
 104:../../libDaisy//src/per/adc.h ****         OVS_512,  /**< & */
 105:../../libDaisy//src/per/adc.h ****         OVS_1024, /**< & */
 106:../../libDaisy//src/per/adc.h ****         OVS_LAST, /**< & */
 107:../../libDaisy//src/per/adc.h ****     };
 108:../../libDaisy//src/per/adc.h **** 
 109:../../libDaisy//src/per/adc.h ****     AdcHandle() {}
 110:../../libDaisy//src/per/adc.h ****     ~AdcHandle() {}
 117              		.loc 10 110 5 is_stmt 1 view .LVU28
 118              		.loc 10 110 5 is_stmt 0 view .LVU29
 119              	.LBE319:
 120              	.LBB320:
 121              	.LBI320:
 122              		.file 11 "../../libDaisy//src/hid/audio.h"
   1:../../libDaisy//src/hid/audio.h **** #ifndef DSY_AUDIO_H
   2:../../libDaisy//src/hid/audio.h **** #define DSY_AUDIO_H /**< & */
   3:../../libDaisy//src/hid/audio.h **** 
   4:../../libDaisy//src/hid/audio.h **** #include "per/sai.h"
   5:../../libDaisy//src/hid/audio.h **** 
   6:../../libDaisy//src/hid/audio.h **** namespace daisy
   7:../../libDaisy//src/hid/audio.h **** {
   8:../../libDaisy//src/hid/audio.h **** /** @brief Audio Engine Handle
   9:../../libDaisy//src/hid/audio.h ****  *  @ingroup audio 
  10:../../libDaisy//src/hid/audio.h ****  *  @details This class allows for higher level access to an audio engine.
  11:../../libDaisy//src/hid/audio.h ****  *           If you're using a SOM like the DaisySeed or DaisyPatchSM (or any 
  12:../../libDaisy//src/hid/audio.h ****  *            board that includes one of those objects) then the intialization
  13:../../libDaisy//src/hid/audio.h ****  *            is already taken  care of.
  14:../../libDaisy//src/hid/audio.h ****  *           If you're setting up your own custom hardware, or need to make changes
  15:../../libDaisy//src/hid/audio.h ****  *           you will have to take the following steps:
  16:../../libDaisy//src/hid/audio.h ****  *             1. Create and Initialize an SaiHandle or two depending on your requirements
  17:../../libDaisy//src/hid/audio.h ****  *             2. Initialize the Audio Handle with the desired settings and the Initialized SaiHand
  18:../../libDaisy//src/hid/audio.h ****  *             3. If the connected codec requires special configuration or initialization, do so
ARM GAS  /var/folders/z2/7_lhr9dn53s9tj4s0rwtyswm0000gn/T//ccooqcSF.s 			page 11


  19:../../libDaisy//src/hid/audio.h ****  *             4. Write a callback method using either the AudioCallback or the InterleavingAudioCa
  20:../../libDaisy//src/hid/audio.h ****  *             5. Start the Audio using one of the StartAudio function
  21:../../libDaisy//src/hid/audio.h ****  */
  22:../../libDaisy//src/hid/audio.h **** class AudioHandle
  23:../../libDaisy//src/hid/audio.h **** {
  24:../../libDaisy//src/hid/audio.h ****   public:
  25:../../libDaisy//src/hid/audio.h ****     /** Manually configurable details about the Audio Engine */
  26:../../libDaisy//src/hid/audio.h ****     /** TODO: Figure out how to get samplerate in here. */
  27:../../libDaisy//src/hid/audio.h ****     struct Config
  28:../../libDaisy//src/hid/audio.h ****     {
  29:../../libDaisy//src/hid/audio.h ****         /** number of samples to process per callback */
  30:../../libDaisy//src/hid/audio.h ****         size_t blocksize = 48;
  31:../../libDaisy//src/hid/audio.h **** 
  32:../../libDaisy//src/hid/audio.h ****         /**< Sample rate of audio */
  33:../../libDaisy//src/hid/audio.h ****         SaiHandle::Config::SampleRate samplerate
  34:../../libDaisy//src/hid/audio.h ****             = SaiHandle::Config::SampleRate::SAI_48KHZ;
  35:../../libDaisy//src/hid/audio.h **** 
  36:../../libDaisy//src/hid/audio.h ****         /** factor for adjustment before and after callback for hardware that may have extra headro
  37:../../libDaisy//src/hid/audio.h ****         float postgain = 1.f;
  38:../../libDaisy//src/hid/audio.h **** 
  39:../../libDaisy//src/hid/audio.h ****         /** factor for additional one-sided compensation to audio path for hardware that may
  40:../../libDaisy//src/hid/audio.h ****          *  have unequal input/output ranges
  41:../../libDaisy//src/hid/audio.h ****          */
  42:../../libDaisy//src/hid/audio.h ****         float output_compensation = 1.f;
  43:../../libDaisy//src/hid/audio.h ****     };
  44:../../libDaisy//src/hid/audio.h **** 
  45:../../libDaisy//src/hid/audio.h ****     enum class Result
  46:../../libDaisy//src/hid/audio.h ****     {
  47:../../libDaisy//src/hid/audio.h ****         OK,
  48:../../libDaisy//src/hid/audio.h ****         ERR,
  49:../../libDaisy//src/hid/audio.h ****     };
  50:../../libDaisy//src/hid/audio.h **** 
  51:../../libDaisy//src/hid/audio.h ****     /** Non-Interleaving input buffer
  52:../../libDaisy//src/hid/audio.h ****      * Buffer arranged by float[chn][sample] 
  53:../../libDaisy//src/hid/audio.h ****      * const so that the user can't modify the input
  54:../../libDaisy//src/hid/audio.h ****      */
  55:../../libDaisy//src/hid/audio.h ****     typedef const float* const* InputBuffer;
  56:../../libDaisy//src/hid/audio.h **** 
  57:../../libDaisy//src/hid/audio.h ****     /** Non-Interleaving output buffer
  58:../../libDaisy//src/hid/audio.h ****      * Arranged by float[chn][sample] 
  59:../../libDaisy//src/hid/audio.h ****      */
  60:../../libDaisy//src/hid/audio.h ****     typedef float** OutputBuffer;
  61:../../libDaisy//src/hid/audio.h **** 
  62:../../libDaisy//src/hid/audio.h ****     /** Type for a Non-Interleaving audio callback 
  63:../../libDaisy//src/hid/audio.h ****      * Non-Interleaving audio callbacks in daisy will be of this type
  64:../../libDaisy//src/hid/audio.h ****      */
  65:../../libDaisy//src/hid/audio.h ****     typedef void (*AudioCallback)(InputBuffer  in,
  66:../../libDaisy//src/hid/audio.h ****                                   OutputBuffer out,
  67:../../libDaisy//src/hid/audio.h ****                                   size_t       size);
  68:../../libDaisy//src/hid/audio.h **** 
  69:../../libDaisy//src/hid/audio.h ****     /** Interleaving Input buffer
  70:../../libDaisy//src/hid/audio.h ****      ** audio is prepared as { L0, R0, L1, R1, . . . LN, RN }]
  71:../../libDaisy//src/hid/audio.h ****      ** this is const, as the user shouldn't modify it
  72:../../libDaisy//src/hid/audio.h ****     */
  73:../../libDaisy//src/hid/audio.h ****     typedef const float* InterleavingInputBuffer;
  74:../../libDaisy//src/hid/audio.h **** 
  75:../../libDaisy//src/hid/audio.h ****     /** Interleaving Output buffer 
ARM GAS  /var/folders/z2/7_lhr9dn53s9tj4s0rwtyswm0000gn/T//ccooqcSF.s 			page 12


  76:../../libDaisy//src/hid/audio.h ****      ** audio is prepared as { L0, R0, L1, R1, . . . LN, RN }
  77:../../libDaisy//src/hid/audio.h ****     */
  78:../../libDaisy//src/hid/audio.h ****     typedef float* InterleavingOutputBuffer;
  79:../../libDaisy//src/hid/audio.h **** 
  80:../../libDaisy//src/hid/audio.h ****     /** Interleaving Audio Callback 
  81:../../libDaisy//src/hid/audio.h ****      * Interleaving audio callbacks in daisy must be of this type
  82:../../libDaisy//src/hid/audio.h ****      */
  83:../../libDaisy//src/hid/audio.h ****     typedef void (*InterleavingAudioCallback)(InterleavingInputBuffer  in,
  84:../../libDaisy//src/hid/audio.h ****                                               InterleavingOutputBuffer out,
  85:../../libDaisy//src/hid/audio.h ****                                               size_t                   size);
  86:../../libDaisy//src/hid/audio.h **** 
  87:../../libDaisy//src/hid/audio.h ****     AudioHandle() : pimpl_(nullptr) {}
  88:../../libDaisy//src/hid/audio.h ****     ~AudioHandle() {}
 123              		.loc 11 88 5 is_stmt 1 view .LVU30
 124              		.loc 11 88 5 is_stmt 0 view .LVU31
 125              	.LBE320:
 126              	.LBE316:
 127              		.loc 1 31 20 view .LVU32
 128 0000 7047     		bx	lr
 129              		.cfi_endproc
 130              	.LFE2580:
 132              		.weak	_ZN5daisy10TusenskonaD1Ev
 133              		.thumb_set _ZN5daisy10TusenskonaD1Ev,_ZN5daisy10TusenskonaD2Ev
 134 0002 00BF     		.section	.text._ZN7daisysp10OscillatorD2Ev,"axG",%progbits,_ZN7daisysp10OscillatorD5Ev,comdat
 135              		.align	1
 136              		.p2align 2,,3
 137              		.weak	_ZN7daisysp10OscillatorD2Ev
 138              		.syntax unified
 139              		.thumb
 140              		.thumb_func
 142              	_ZN7daisysp10OscillatorD2Ev:
 143              	.LVL1:
 144              	.LFB4263:
 145              		.file 12 "../../DaisySP//Source/Synthesis/oscillator.h"
   1:../../DaisySP//Source/Synthesis/oscillator.h **** /*
   2:../../DaisySP//Source/Synthesis/oscillator.h **** Copyright (c) 2020 Electrosmith, Corp
   3:../../DaisySP//Source/Synthesis/oscillator.h **** 
   4:../../DaisySP//Source/Synthesis/oscillator.h **** Use of this source code is governed by an MIT-style
   5:../../DaisySP//Source/Synthesis/oscillator.h **** license that can be found in the LICENSE file or at
   6:../../DaisySP//Source/Synthesis/oscillator.h **** https://opensource.org/licenses/MIT.
   7:../../DaisySP//Source/Synthesis/oscillator.h **** */
   8:../../DaisySP//Source/Synthesis/oscillator.h **** 
   9:../../DaisySP//Source/Synthesis/oscillator.h **** #pragma once
  10:../../DaisySP//Source/Synthesis/oscillator.h **** #ifndef DSY_OSCILLATOR_H
  11:../../DaisySP//Source/Synthesis/oscillator.h **** #define DSY_OSCILLATOR_H
  12:../../DaisySP//Source/Synthesis/oscillator.h **** #include <stdint.h>
  13:../../DaisySP//Source/Synthesis/oscillator.h **** #include "Utility/dsp.h"
  14:../../DaisySP//Source/Synthesis/oscillator.h **** #ifdef __cplusplus
  15:../../DaisySP//Source/Synthesis/oscillator.h **** 
  16:../../DaisySP//Source/Synthesis/oscillator.h **** namespace daisysp
  17:../../DaisySP//Source/Synthesis/oscillator.h **** {
  18:../../DaisySP//Source/Synthesis/oscillator.h **** /** Synthesis of several waveforms, including polyBLEP bandlimited waveforms.
  19:../../DaisySP//Source/Synthesis/oscillator.h **** */
  20:../../DaisySP//Source/Synthesis/oscillator.h **** class Oscillator
  21:../../DaisySP//Source/Synthesis/oscillator.h **** {
  22:../../DaisySP//Source/Synthesis/oscillator.h ****   public:
  23:../../DaisySP//Source/Synthesis/oscillator.h ****     Oscillator() {}
ARM GAS  /var/folders/z2/7_lhr9dn53s9tj4s0rwtyswm0000gn/T//ccooqcSF.s 			page 13


  24:../../DaisySP//Source/Synthesis/oscillator.h ****     ~Oscillator() {}
 146              		.loc 12 24 5 is_stmt 1 view -0
 147              		.cfi_startproc
 148              		@ args = 0, pretend = 0, frame = 0
 149              		@ frame_needed = 0, uses_anonymous_args = 0
 150              		@ link register save eliminated.
 151              		.loc 12 24 20 is_stmt 0 view .LVU34
 152 0000 7047     		bx	lr
 153              		.cfi_endproc
 154              	.LFE4263:
 156              		.weak	_ZN7daisysp10OscillatorD1Ev
 157              		.thumb_set _ZN7daisysp10OscillatorD1Ev,_ZN7daisysp10OscillatorD2Ev
 158 0002 00BF     		.section	.text._ZN7daisysp9DelayLineIfLj24000EED2Ev,"axG",%progbits,_ZN7daisysp9DelayLineIfLj24000
 159              		.align	1
 160              		.p2align 2,,3
 161              		.weak	_ZN7daisysp9DelayLineIfLj24000EED2Ev
 162              		.syntax unified
 163              		.thumb
 164              		.thumb_func
 166              	_ZN7daisysp9DelayLineIfLj24000EED2Ev:
 167              	.LVL2:
 168              	.LFB5323:
 169              		.file 13 "../../DaisySP//Source/Utility/delayline.h"
   1:../../DaisySP//Source/Utility/delayline.h **** /*
   2:../../DaisySP//Source/Utility/delayline.h **** Copyright (c) 2020 Electrosmith, Corp
   3:../../DaisySP//Source/Utility/delayline.h **** 
   4:../../DaisySP//Source/Utility/delayline.h **** Use of this source code is governed by an MIT-style
   5:../../DaisySP//Source/Utility/delayline.h **** license that can be found in the LICENSE file or at
   6:../../DaisySP//Source/Utility/delayline.h **** https://opensource.org/licenses/MIT.
   7:../../DaisySP//Source/Utility/delayline.h **** */
   8:../../DaisySP//Source/Utility/delayline.h **** 
   9:../../DaisySP//Source/Utility/delayline.h **** #pragma once
  10:../../DaisySP//Source/Utility/delayline.h **** #ifndef DSY_DELAY_H
  11:../../DaisySP//Source/Utility/delayline.h **** #define DSY_DELAY_H
  12:../../DaisySP//Source/Utility/delayline.h **** #include <stdlib.h>
  13:../../DaisySP//Source/Utility/delayline.h **** #include <stdint.h>
  14:../../DaisySP//Source/Utility/delayline.h **** namespace daisysp
  15:../../DaisySP//Source/Utility/delayline.h **** {
  16:../../DaisySP//Source/Utility/delayline.h **** /** Simple Delay line.
  17:../../DaisySP//Source/Utility/delayline.h **** November 2019
  18:../../DaisySP//Source/Utility/delayline.h **** 
  19:../../DaisySP//Source/Utility/delayline.h **** Converted to Template December 2019
  20:../../DaisySP//Source/Utility/delayline.h **** 
  21:../../DaisySP//Source/Utility/delayline.h **** declaration example: (1 second of floats)
  22:../../DaisySP//Source/Utility/delayline.h **** 
  23:../../DaisySP//Source/Utility/delayline.h **** DelayLine<float, SAMPLE_RATE> del;
  24:../../DaisySP//Source/Utility/delayline.h **** 
  25:../../DaisySP//Source/Utility/delayline.h **** By: shensley
  26:../../DaisySP//Source/Utility/delayline.h **** */
  27:../../DaisySP//Source/Utility/delayline.h **** template <typename T, size_t max_size>
  28:../../DaisySP//Source/Utility/delayline.h **** class DelayLine
  29:../../DaisySP//Source/Utility/delayline.h **** {
  30:../../DaisySP//Source/Utility/delayline.h ****   public:
  31:../../DaisySP//Source/Utility/delayline.h ****     DelayLine() {}
  32:../../DaisySP//Source/Utility/delayline.h ****     ~DelayLine() {}
 170              		.loc 13 32 5 is_stmt 1 view -0
 171              		.cfi_startproc
ARM GAS  /var/folders/z2/7_lhr9dn53s9tj4s0rwtyswm0000gn/T//ccooqcSF.s 			page 14


 172              		@ args = 0, pretend = 0, frame = 0
 173              		@ frame_needed = 0, uses_anonymous_args = 0
 174              		@ link register save eliminated.
 175              		.loc 13 32 19 is_stmt 0 view .LVU36
 176 0000 7047     		bx	lr
 177              		.cfi_endproc
 178              	.LFE5323:
 180              		.weak	_ZN7daisysp9DelayLineIfLj24000EED1Ev
 181              		.thumb_set _ZN7daisysp9DelayLineIfLj24000EED1Ev,_ZN7daisysp9DelayLineIfLj24000EED2Ev
 182 0002 00BF     		.section	.text._Z13AudioCallbackPKPKfPPfj,"ax",%progbits
 183              		.align	1
 184              		.p2align 2,,3
 185              		.global	_Z13AudioCallbackPKPKfPPfj
 186              		.syntax unified
 187              		.thumb
 188              		.thumb_func
 190              	_Z13AudioCallbackPKPKfPPfj:
 191              	.LVL3:
 192              	.LFB4747:
 193              		.file 14 "daisytusen.cpp"
   1:daisytusen.cpp **** #include "../../tusenskona//src/tusenskona.h"
   2:daisytusen.cpp **** #include "daisysp.h"
   3:daisytusen.cpp **** 
   4:daisytusen.cpp **** 
   5:daisytusen.cpp **** using namespace daisy;
   6:daisytusen.cpp **** using namespace daisysp;
   7:daisytusen.cpp **** 
   8:daisytusen.cpp **** Tusenskona hw;
   9:daisytusen.cpp **** 
  10:daisytusen.cpp **** float freq = 440.f;
  11:daisytusen.cpp **** 
  12:daisytusen.cpp **** daisysp::Oscillator saw;
  13:daisytusen.cpp **** daisysp::Oscillator sine;
  14:daisytusen.cpp **** daisysp::DelayLine<float, 24000> delay;
  15:daisytusen.cpp **** float revAmount;
  16:daisytusen.cpp **** 
  17:daisytusen.cpp **** int inc = 0;
  18:daisytusen.cpp **** int count = 0;
  19:daisytusen.cpp **** //Color clrs[4];
  20:daisytusen.cpp **** float clrs[4][3] = {{1, 0., 0.},
  21:daisytusen.cpp ****                 {0., 1., 0.},
  22:daisytusen.cpp ****                 {0., 0., 1.},
  23:daisytusen.cpp ****                 {1., 0, 1.}};
  24:daisytusen.cpp **** 
  25:daisytusen.cpp **** void AudioCallback(AudioHandle::InputBuffer in, AudioHandle::OutputBuffer out, size_t size)
  26:daisytusen.cpp **** {
 194              		.loc 14 26 1 is_stmt 1 view -0
 195              		.cfi_startproc
 196              		@ args = 0, pretend = 0, frame = 0
 197              		@ frame_needed = 0, uses_anonymous_args = 0
  27:daisytusen.cpp **** 
  28:daisytusen.cpp ****     for (size_t i = 0; i < size; i++)
 198              		.loc 14 28 5 view .LVU38
 199              	.LBB332:
 200              		.loc 14 28 26 view .LVU39
 201 0000 002A     		cmp	r2, #0
 202 0002 00F09880 		beq	.L10
ARM GAS  /var/folders/z2/7_lhr9dn53s9tj4s0rwtyswm0000gn/T//ccooqcSF.s 			page 15


 203              	.LBE332:
  26:daisytusen.cpp **** 
 204              		.loc 14 26 1 is_stmt 0 view .LVU40
 205 0006 2DE9F84F 		push	{r3, r4, r5, r6, r7, r8, r9, r10, fp, lr}
 206              		.cfi_def_cfa_offset 40
 207              		.cfi_offset 3, -40
 208              		.cfi_offset 4, -36
 209              		.cfi_offset 5, -32
 210              		.cfi_offset 6, -28
 211              		.cfi_offset 7, -24
 212              		.cfi_offset 8, -20
 213              		.cfi_offset 9, -16
 214              		.cfi_offset 10, -12
 215              		.cfi_offset 11, -8
 216              		.cfi_offset 14, -4
 217 000a 0D46     		mov	r5, r1
 218 000c 1646     		mov	r6, r2
 219              	.LBB384:
  29:daisytusen.cpp ****     {
  30:daisytusen.cpp ****         out[0][i] = sine.Process();
 220              		.loc 14 30 14 view .LVU41
 221 000e D1F80080 		ldr	r8, [r1]
  28:daisytusen.cpp ****     {
 222              		.loc 14 28 17 view .LVU42
 223 0012 0024     		movs	r4, #0
 224 0014 484F     		ldr	r7, .L13
 225              	.LVL4:
 226              	.L8:
 227              		.loc 14 30 9 is_stmt 1 discriminator 2 view .LVU43
 228              		.loc 14 30 17 is_stmt 0 discriminator 2 view .LVU44
 229 0016 08EB8408 		add	r8, r8, r4, lsl #2
 230              		.loc 14 30 33 discriminator 2 view .LVU45
 231 001a 4848     		ldr	r0, .L13+4
 232 001c FFF7FEFF 		bl	_ZN7daisysp10Oscillator7ProcessEv
 233              	.LVL5:
  31:daisytusen.cpp ****         out[1][i] = saw.Process(); 
 234              		.loc 14 31 17 discriminator 2 view .LVU46
 235 0020 6B68     		ldr	r3, [r5, #4]
 236 0022 4FEA840A 		lsl	r10, r4, #2
 237              		.loc 14 31 32 discriminator 2 view .LVU47
 238 0026 4648     		ldr	r0, .L13+8
  30:daisytusen.cpp ****         out[1][i] = saw.Process(); 
 239              		.loc 14 30 19 discriminator 2 view .LVU48
 240 0028 88ED000A 		vstr.32	s0, [r8]
 241              		.loc 14 31 9 is_stmt 1 discriminator 2 view .LVU49
  28:daisytusen.cpp ****     {
 242              		.loc 14 28 5 is_stmt 0 discriminator 2 view .LVU50
 243 002c 0134     		adds	r4, r4, #1
 244              	.LVL6:
 245              		.loc 14 31 17 discriminator 2 view .LVU51
 246 002e 03EB0A0B 		add	fp, r3, r10
 247              		.loc 14 31 32 discriminator 2 view .LVU52
 248 0032 FFF7FEFF 		bl	_ZN7daisysp10Oscillator7ProcessEv
 249              	.LVL7:
  32:daisytusen.cpp ****         out[0][i] = tanh(out[0][i]);
 250              		.loc 14 32 31 discriminator 2 view .LVU53
 251 0036 D5F80080 		ldr	r8, [r5]
ARM GAS  /var/folders/z2/7_lhr9dn53s9tj4s0rwtyswm0000gn/T//ccooqcSF.s 			page 16


  31:daisytusen.cpp ****         out[1][i] = saw.Process(); 
 252              		.loc 14 31 19 discriminator 2 view .LVU54
 253 003a 8BED000A 		vstr.32	s0, [fp]
 254              		.loc 14 32 9 is_stmt 1 discriminator 2 view .LVU55
 255              		.loc 14 32 34 is_stmt 0 discriminator 2 view .LVU56
 256 003e 08EB0A09 		add	r9, r8, r10
 257              	.LVL8:
 258              	.LBB333:
 259              	.LBI333:
 260              		.file 15 "/Applications/ARM/arm-none-eabi/include/c++/10.3.1/cmath"
   1:/Applications/ARM/arm-none-eabi/include/c++/10.3.1/cmath **** // -*- C++ -*- C forwarding header.
   2:/Applications/ARM/arm-none-eabi/include/c++/10.3.1/cmath **** 
   3:/Applications/ARM/arm-none-eabi/include/c++/10.3.1/cmath **** // Copyright (C) 1997-2020 Free Software Foundation, Inc.
   4:/Applications/ARM/arm-none-eabi/include/c++/10.3.1/cmath **** //
   5:/Applications/ARM/arm-none-eabi/include/c++/10.3.1/cmath **** // This file is part of the GNU ISO C++ Library.  This library is free
   6:/Applications/ARM/arm-none-eabi/include/c++/10.3.1/cmath **** // software; you can redistribute it and/or modify it under the
   7:/Applications/ARM/arm-none-eabi/include/c++/10.3.1/cmath **** // terms of the GNU General Public License as published by the
   8:/Applications/ARM/arm-none-eabi/include/c++/10.3.1/cmath **** // Free Software Foundation; either version 3, or (at your option)
   9:/Applications/ARM/arm-none-eabi/include/c++/10.3.1/cmath **** // any later version.
  10:/Applications/ARM/arm-none-eabi/include/c++/10.3.1/cmath **** 
  11:/Applications/ARM/arm-none-eabi/include/c++/10.3.1/cmath **** // This library is distributed in the hope that it will be useful,
  12:/Applications/ARM/arm-none-eabi/include/c++/10.3.1/cmath **** // but WITHOUT ANY WARRANTY; without even the implied warranty of
  13:/Applications/ARM/arm-none-eabi/include/c++/10.3.1/cmath **** // MERCHANTABILITY or FITNESS FOR A PARTICULAR PURPOSE.  See the
  14:/Applications/ARM/arm-none-eabi/include/c++/10.3.1/cmath **** // GNU General Public License for more details.
  15:/Applications/ARM/arm-none-eabi/include/c++/10.3.1/cmath **** 
  16:/Applications/ARM/arm-none-eabi/include/c++/10.3.1/cmath **** // Under Section 7 of GPL version 3, you are granted additional
  17:/Applications/ARM/arm-none-eabi/include/c++/10.3.1/cmath **** // permissions described in the GCC Runtime Library Exception, version
  18:/Applications/ARM/arm-none-eabi/include/c++/10.3.1/cmath **** // 3.1, as published by the Free Software Foundation.
  19:/Applications/ARM/arm-none-eabi/include/c++/10.3.1/cmath **** 
  20:/Applications/ARM/arm-none-eabi/include/c++/10.3.1/cmath **** // You should have received a copy of the GNU General Public License and
  21:/Applications/ARM/arm-none-eabi/include/c++/10.3.1/cmath **** // a copy of the GCC Runtime Library Exception along with this program;
  22:/Applications/ARM/arm-none-eabi/include/c++/10.3.1/cmath **** // see the files COPYING3 and COPYING.RUNTIME respectively.  If not, see
  23:/Applications/ARM/arm-none-eabi/include/c++/10.3.1/cmath **** // <http://www.gnu.org/licenses/>.
  24:/Applications/ARM/arm-none-eabi/include/c++/10.3.1/cmath **** 
  25:/Applications/ARM/arm-none-eabi/include/c++/10.3.1/cmath **** /** @file include/cmath
  26:/Applications/ARM/arm-none-eabi/include/c++/10.3.1/cmath ****  *  This is a Standard C++ Library file.  You should @c \#include this file
  27:/Applications/ARM/arm-none-eabi/include/c++/10.3.1/cmath ****  *  in your programs, rather than any of the @a *.h implementation files.
  28:/Applications/ARM/arm-none-eabi/include/c++/10.3.1/cmath ****  *
  29:/Applications/ARM/arm-none-eabi/include/c++/10.3.1/cmath ****  *  This is the C++ version of the Standard C Library header @c math.h,
  30:/Applications/ARM/arm-none-eabi/include/c++/10.3.1/cmath ****  *  and its contents are (mostly) the same as that header, but are all
  31:/Applications/ARM/arm-none-eabi/include/c++/10.3.1/cmath ****  *  contained in the namespace @c std (except for names which are defined
  32:/Applications/ARM/arm-none-eabi/include/c++/10.3.1/cmath ****  *  as macros in C).
  33:/Applications/ARM/arm-none-eabi/include/c++/10.3.1/cmath ****  */
  34:/Applications/ARM/arm-none-eabi/include/c++/10.3.1/cmath **** 
  35:/Applications/ARM/arm-none-eabi/include/c++/10.3.1/cmath **** //
  36:/Applications/ARM/arm-none-eabi/include/c++/10.3.1/cmath **** // ISO C++ 14882: 26.5  C library
  37:/Applications/ARM/arm-none-eabi/include/c++/10.3.1/cmath **** //
  38:/Applications/ARM/arm-none-eabi/include/c++/10.3.1/cmath **** 
  39:/Applications/ARM/arm-none-eabi/include/c++/10.3.1/cmath **** #pragma GCC system_header
  40:/Applications/ARM/arm-none-eabi/include/c++/10.3.1/cmath **** 
  41:/Applications/ARM/arm-none-eabi/include/c++/10.3.1/cmath **** #include <bits/c++config.h>
  42:/Applications/ARM/arm-none-eabi/include/c++/10.3.1/cmath **** #include <bits/cpp_type_traits.h>
  43:/Applications/ARM/arm-none-eabi/include/c++/10.3.1/cmath **** #include <ext/type_traits.h>
  44:/Applications/ARM/arm-none-eabi/include/c++/10.3.1/cmath **** #define _GLIBCXX_INCLUDE_NEXT_C_HEADERS
  45:/Applications/ARM/arm-none-eabi/include/c++/10.3.1/cmath **** #include_next <math.h>
  46:/Applications/ARM/arm-none-eabi/include/c++/10.3.1/cmath **** #undef _GLIBCXX_INCLUDE_NEXT_C_HEADERS
  47:/Applications/ARM/arm-none-eabi/include/c++/10.3.1/cmath **** #include <bits/std_abs.h>
ARM GAS  /var/folders/z2/7_lhr9dn53s9tj4s0rwtyswm0000gn/T//ccooqcSF.s 			page 17


  48:/Applications/ARM/arm-none-eabi/include/c++/10.3.1/cmath **** 
  49:/Applications/ARM/arm-none-eabi/include/c++/10.3.1/cmath **** #ifndef _GLIBCXX_CMATH
  50:/Applications/ARM/arm-none-eabi/include/c++/10.3.1/cmath **** #define _GLIBCXX_CMATH 1
  51:/Applications/ARM/arm-none-eabi/include/c++/10.3.1/cmath **** 
  52:/Applications/ARM/arm-none-eabi/include/c++/10.3.1/cmath **** // Get rid of those macros defined in <math.h> in lieu of real functions.
  53:/Applications/ARM/arm-none-eabi/include/c++/10.3.1/cmath **** #undef div
  54:/Applications/ARM/arm-none-eabi/include/c++/10.3.1/cmath **** #undef acos
  55:/Applications/ARM/arm-none-eabi/include/c++/10.3.1/cmath **** #undef asin
  56:/Applications/ARM/arm-none-eabi/include/c++/10.3.1/cmath **** #undef atan
  57:/Applications/ARM/arm-none-eabi/include/c++/10.3.1/cmath **** #undef atan2
  58:/Applications/ARM/arm-none-eabi/include/c++/10.3.1/cmath **** #undef ceil
  59:/Applications/ARM/arm-none-eabi/include/c++/10.3.1/cmath **** #undef cos
  60:/Applications/ARM/arm-none-eabi/include/c++/10.3.1/cmath **** #undef cosh
  61:/Applications/ARM/arm-none-eabi/include/c++/10.3.1/cmath **** #undef exp
  62:/Applications/ARM/arm-none-eabi/include/c++/10.3.1/cmath **** #undef fabs
  63:/Applications/ARM/arm-none-eabi/include/c++/10.3.1/cmath **** #undef floor
  64:/Applications/ARM/arm-none-eabi/include/c++/10.3.1/cmath **** #undef fmod
  65:/Applications/ARM/arm-none-eabi/include/c++/10.3.1/cmath **** #undef frexp
  66:/Applications/ARM/arm-none-eabi/include/c++/10.3.1/cmath **** #undef ldexp
  67:/Applications/ARM/arm-none-eabi/include/c++/10.3.1/cmath **** #undef log
  68:/Applications/ARM/arm-none-eabi/include/c++/10.3.1/cmath **** #undef log10
  69:/Applications/ARM/arm-none-eabi/include/c++/10.3.1/cmath **** #undef modf
  70:/Applications/ARM/arm-none-eabi/include/c++/10.3.1/cmath **** #undef pow
  71:/Applications/ARM/arm-none-eabi/include/c++/10.3.1/cmath **** #undef sin
  72:/Applications/ARM/arm-none-eabi/include/c++/10.3.1/cmath **** #undef sinh
  73:/Applications/ARM/arm-none-eabi/include/c++/10.3.1/cmath **** #undef sqrt
  74:/Applications/ARM/arm-none-eabi/include/c++/10.3.1/cmath **** #undef tan
  75:/Applications/ARM/arm-none-eabi/include/c++/10.3.1/cmath **** #undef tanh
  76:/Applications/ARM/arm-none-eabi/include/c++/10.3.1/cmath **** 
  77:/Applications/ARM/arm-none-eabi/include/c++/10.3.1/cmath **** extern "C++"
  78:/Applications/ARM/arm-none-eabi/include/c++/10.3.1/cmath **** {
  79:/Applications/ARM/arm-none-eabi/include/c++/10.3.1/cmath **** namespace std _GLIBCXX_VISIBILITY(default)
  80:/Applications/ARM/arm-none-eabi/include/c++/10.3.1/cmath **** {
  81:/Applications/ARM/arm-none-eabi/include/c++/10.3.1/cmath **** _GLIBCXX_BEGIN_NAMESPACE_VERSION
  82:/Applications/ARM/arm-none-eabi/include/c++/10.3.1/cmath **** 
  83:/Applications/ARM/arm-none-eabi/include/c++/10.3.1/cmath ****   using ::acos;
  84:/Applications/ARM/arm-none-eabi/include/c++/10.3.1/cmath **** 
  85:/Applications/ARM/arm-none-eabi/include/c++/10.3.1/cmath **** #ifndef __CORRECT_ISO_CPP_MATH_H_PROTO
  86:/Applications/ARM/arm-none-eabi/include/c++/10.3.1/cmath ****   inline _GLIBCXX_CONSTEXPR float
  87:/Applications/ARM/arm-none-eabi/include/c++/10.3.1/cmath ****   acos(float __x)
  88:/Applications/ARM/arm-none-eabi/include/c++/10.3.1/cmath ****   { return __builtin_acosf(__x); }
  89:/Applications/ARM/arm-none-eabi/include/c++/10.3.1/cmath **** 
  90:/Applications/ARM/arm-none-eabi/include/c++/10.3.1/cmath ****   inline _GLIBCXX_CONSTEXPR long double
  91:/Applications/ARM/arm-none-eabi/include/c++/10.3.1/cmath ****   acos(long double __x)
  92:/Applications/ARM/arm-none-eabi/include/c++/10.3.1/cmath ****   { return __builtin_acosl(__x); }
  93:/Applications/ARM/arm-none-eabi/include/c++/10.3.1/cmath **** #endif
  94:/Applications/ARM/arm-none-eabi/include/c++/10.3.1/cmath **** 
  95:/Applications/ARM/arm-none-eabi/include/c++/10.3.1/cmath ****   template<typename _Tp>
  96:/Applications/ARM/arm-none-eabi/include/c++/10.3.1/cmath ****     inline _GLIBCXX_CONSTEXPR
  97:/Applications/ARM/arm-none-eabi/include/c++/10.3.1/cmath ****     typename __gnu_cxx::__enable_if<__is_integer<_Tp>::__value, 
  98:/Applications/ARM/arm-none-eabi/include/c++/10.3.1/cmath ****                                     double>::__type
  99:/Applications/ARM/arm-none-eabi/include/c++/10.3.1/cmath ****     acos(_Tp __x)
 100:/Applications/ARM/arm-none-eabi/include/c++/10.3.1/cmath ****     { return __builtin_acos(__x); }
 101:/Applications/ARM/arm-none-eabi/include/c++/10.3.1/cmath **** 
 102:/Applications/ARM/arm-none-eabi/include/c++/10.3.1/cmath ****   using ::asin;
 103:/Applications/ARM/arm-none-eabi/include/c++/10.3.1/cmath **** 
 104:/Applications/ARM/arm-none-eabi/include/c++/10.3.1/cmath **** #ifndef __CORRECT_ISO_CPP_MATH_H_PROTO
ARM GAS  /var/folders/z2/7_lhr9dn53s9tj4s0rwtyswm0000gn/T//ccooqcSF.s 			page 18


 105:/Applications/ARM/arm-none-eabi/include/c++/10.3.1/cmath ****   inline _GLIBCXX_CONSTEXPR float
 106:/Applications/ARM/arm-none-eabi/include/c++/10.3.1/cmath ****   asin(float __x)
 107:/Applications/ARM/arm-none-eabi/include/c++/10.3.1/cmath ****   { return __builtin_asinf(__x); }
 108:/Applications/ARM/arm-none-eabi/include/c++/10.3.1/cmath **** 
 109:/Applications/ARM/arm-none-eabi/include/c++/10.3.1/cmath ****   inline _GLIBCXX_CONSTEXPR long double
 110:/Applications/ARM/arm-none-eabi/include/c++/10.3.1/cmath ****   asin(long double __x)
 111:/Applications/ARM/arm-none-eabi/include/c++/10.3.1/cmath ****   { return __builtin_asinl(__x); }
 112:/Applications/ARM/arm-none-eabi/include/c++/10.3.1/cmath **** #endif
 113:/Applications/ARM/arm-none-eabi/include/c++/10.3.1/cmath **** 
 114:/Applications/ARM/arm-none-eabi/include/c++/10.3.1/cmath ****   template<typename _Tp>
 115:/Applications/ARM/arm-none-eabi/include/c++/10.3.1/cmath ****     inline _GLIBCXX_CONSTEXPR
 116:/Applications/ARM/arm-none-eabi/include/c++/10.3.1/cmath ****     typename __gnu_cxx::__enable_if<__is_integer<_Tp>::__value,
 117:/Applications/ARM/arm-none-eabi/include/c++/10.3.1/cmath ****                                     double>::__type
 118:/Applications/ARM/arm-none-eabi/include/c++/10.3.1/cmath ****     asin(_Tp __x)
 119:/Applications/ARM/arm-none-eabi/include/c++/10.3.1/cmath ****     { return __builtin_asin(__x); }
 120:/Applications/ARM/arm-none-eabi/include/c++/10.3.1/cmath **** 
 121:/Applications/ARM/arm-none-eabi/include/c++/10.3.1/cmath ****   using ::atan;
 122:/Applications/ARM/arm-none-eabi/include/c++/10.3.1/cmath **** 
 123:/Applications/ARM/arm-none-eabi/include/c++/10.3.1/cmath **** #ifndef __CORRECT_ISO_CPP_MATH_H_PROTO
 124:/Applications/ARM/arm-none-eabi/include/c++/10.3.1/cmath ****   inline _GLIBCXX_CONSTEXPR float
 125:/Applications/ARM/arm-none-eabi/include/c++/10.3.1/cmath ****   atan(float __x)
 126:/Applications/ARM/arm-none-eabi/include/c++/10.3.1/cmath ****   { return __builtin_atanf(__x); }
 127:/Applications/ARM/arm-none-eabi/include/c++/10.3.1/cmath **** 
 128:/Applications/ARM/arm-none-eabi/include/c++/10.3.1/cmath ****   inline _GLIBCXX_CONSTEXPR long double
 129:/Applications/ARM/arm-none-eabi/include/c++/10.3.1/cmath ****   atan(long double __x)
 130:/Applications/ARM/arm-none-eabi/include/c++/10.3.1/cmath ****   { return __builtin_atanl(__x); }
 131:/Applications/ARM/arm-none-eabi/include/c++/10.3.1/cmath **** #endif
 132:/Applications/ARM/arm-none-eabi/include/c++/10.3.1/cmath **** 
 133:/Applications/ARM/arm-none-eabi/include/c++/10.3.1/cmath ****   template<typename _Tp>
 134:/Applications/ARM/arm-none-eabi/include/c++/10.3.1/cmath ****     inline _GLIBCXX_CONSTEXPR
 135:/Applications/ARM/arm-none-eabi/include/c++/10.3.1/cmath ****     typename __gnu_cxx::__enable_if<__is_integer<_Tp>::__value,
 136:/Applications/ARM/arm-none-eabi/include/c++/10.3.1/cmath ****                                     double>::__type
 137:/Applications/ARM/arm-none-eabi/include/c++/10.3.1/cmath ****     atan(_Tp __x)
 138:/Applications/ARM/arm-none-eabi/include/c++/10.3.1/cmath ****     { return __builtin_atan(__x); }
 139:/Applications/ARM/arm-none-eabi/include/c++/10.3.1/cmath **** 
 140:/Applications/ARM/arm-none-eabi/include/c++/10.3.1/cmath ****   using ::atan2;
 141:/Applications/ARM/arm-none-eabi/include/c++/10.3.1/cmath **** 
 142:/Applications/ARM/arm-none-eabi/include/c++/10.3.1/cmath **** #ifndef __CORRECT_ISO_CPP_MATH_H_PROTO
 143:/Applications/ARM/arm-none-eabi/include/c++/10.3.1/cmath ****   inline _GLIBCXX_CONSTEXPR float
 144:/Applications/ARM/arm-none-eabi/include/c++/10.3.1/cmath ****   atan2(float __y, float __x)
 145:/Applications/ARM/arm-none-eabi/include/c++/10.3.1/cmath ****   { return __builtin_atan2f(__y, __x); }
 146:/Applications/ARM/arm-none-eabi/include/c++/10.3.1/cmath **** 
 147:/Applications/ARM/arm-none-eabi/include/c++/10.3.1/cmath ****   inline _GLIBCXX_CONSTEXPR long double
 148:/Applications/ARM/arm-none-eabi/include/c++/10.3.1/cmath ****   atan2(long double __y, long double __x)
 149:/Applications/ARM/arm-none-eabi/include/c++/10.3.1/cmath ****   { return __builtin_atan2l(__y, __x); }
 150:/Applications/ARM/arm-none-eabi/include/c++/10.3.1/cmath **** #endif
 151:/Applications/ARM/arm-none-eabi/include/c++/10.3.1/cmath **** 
 152:/Applications/ARM/arm-none-eabi/include/c++/10.3.1/cmath ****   template<typename _Tp, typename _Up>
 153:/Applications/ARM/arm-none-eabi/include/c++/10.3.1/cmath ****     inline _GLIBCXX_CONSTEXPR
 154:/Applications/ARM/arm-none-eabi/include/c++/10.3.1/cmath ****     typename __gnu_cxx::__promote_2<_Tp, _Up>::__type
 155:/Applications/ARM/arm-none-eabi/include/c++/10.3.1/cmath ****     atan2(_Tp __y, _Up __x)
 156:/Applications/ARM/arm-none-eabi/include/c++/10.3.1/cmath ****     {
 157:/Applications/ARM/arm-none-eabi/include/c++/10.3.1/cmath ****       typedef typename __gnu_cxx::__promote_2<_Tp, _Up>::__type __type;
 158:/Applications/ARM/arm-none-eabi/include/c++/10.3.1/cmath ****       return atan2(__type(__y), __type(__x));
 159:/Applications/ARM/arm-none-eabi/include/c++/10.3.1/cmath ****     }
 160:/Applications/ARM/arm-none-eabi/include/c++/10.3.1/cmath **** 
 161:/Applications/ARM/arm-none-eabi/include/c++/10.3.1/cmath ****   using ::ceil;
ARM GAS  /var/folders/z2/7_lhr9dn53s9tj4s0rwtyswm0000gn/T//ccooqcSF.s 			page 19


 162:/Applications/ARM/arm-none-eabi/include/c++/10.3.1/cmath **** 
 163:/Applications/ARM/arm-none-eabi/include/c++/10.3.1/cmath **** #ifndef __CORRECT_ISO_CPP_MATH_H_PROTO
 164:/Applications/ARM/arm-none-eabi/include/c++/10.3.1/cmath ****   inline _GLIBCXX_CONSTEXPR float
 165:/Applications/ARM/arm-none-eabi/include/c++/10.3.1/cmath ****   ceil(float __x)
 166:/Applications/ARM/arm-none-eabi/include/c++/10.3.1/cmath ****   { return __builtin_ceilf(__x); }
 167:/Applications/ARM/arm-none-eabi/include/c++/10.3.1/cmath **** 
 168:/Applications/ARM/arm-none-eabi/include/c++/10.3.1/cmath ****   inline _GLIBCXX_CONSTEXPR long double
 169:/Applications/ARM/arm-none-eabi/include/c++/10.3.1/cmath ****   ceil(long double __x)
 170:/Applications/ARM/arm-none-eabi/include/c++/10.3.1/cmath ****   { return __builtin_ceill(__x); }
 171:/Applications/ARM/arm-none-eabi/include/c++/10.3.1/cmath **** #endif
 172:/Applications/ARM/arm-none-eabi/include/c++/10.3.1/cmath **** 
 173:/Applications/ARM/arm-none-eabi/include/c++/10.3.1/cmath ****   template<typename _Tp>
 174:/Applications/ARM/arm-none-eabi/include/c++/10.3.1/cmath ****     inline _GLIBCXX_CONSTEXPR
 175:/Applications/ARM/arm-none-eabi/include/c++/10.3.1/cmath ****     typename __gnu_cxx::__enable_if<__is_integer<_Tp>::__value, 
 176:/Applications/ARM/arm-none-eabi/include/c++/10.3.1/cmath ****                                     double>::__type
 177:/Applications/ARM/arm-none-eabi/include/c++/10.3.1/cmath ****     ceil(_Tp __x)
 178:/Applications/ARM/arm-none-eabi/include/c++/10.3.1/cmath ****     { return __builtin_ceil(__x); }
 179:/Applications/ARM/arm-none-eabi/include/c++/10.3.1/cmath **** 
 180:/Applications/ARM/arm-none-eabi/include/c++/10.3.1/cmath ****   using ::cos;
 181:/Applications/ARM/arm-none-eabi/include/c++/10.3.1/cmath **** 
 182:/Applications/ARM/arm-none-eabi/include/c++/10.3.1/cmath **** #ifndef __CORRECT_ISO_CPP_MATH_H_PROTO
 183:/Applications/ARM/arm-none-eabi/include/c++/10.3.1/cmath ****   inline _GLIBCXX_CONSTEXPR float
 184:/Applications/ARM/arm-none-eabi/include/c++/10.3.1/cmath ****   cos(float __x)
 185:/Applications/ARM/arm-none-eabi/include/c++/10.3.1/cmath ****   { return __builtin_cosf(__x); }
 186:/Applications/ARM/arm-none-eabi/include/c++/10.3.1/cmath **** 
 187:/Applications/ARM/arm-none-eabi/include/c++/10.3.1/cmath ****   inline _GLIBCXX_CONSTEXPR long double
 188:/Applications/ARM/arm-none-eabi/include/c++/10.3.1/cmath ****   cos(long double __x)
 189:/Applications/ARM/arm-none-eabi/include/c++/10.3.1/cmath ****   { return __builtin_cosl(__x); }
 190:/Applications/ARM/arm-none-eabi/include/c++/10.3.1/cmath **** #endif
 191:/Applications/ARM/arm-none-eabi/include/c++/10.3.1/cmath **** 
 192:/Applications/ARM/arm-none-eabi/include/c++/10.3.1/cmath ****   template<typename _Tp>
 193:/Applications/ARM/arm-none-eabi/include/c++/10.3.1/cmath ****     inline _GLIBCXX_CONSTEXPR
 194:/Applications/ARM/arm-none-eabi/include/c++/10.3.1/cmath ****     typename __gnu_cxx::__enable_if<__is_integer<_Tp>::__value,
 195:/Applications/ARM/arm-none-eabi/include/c++/10.3.1/cmath ****                                     double>::__type
 196:/Applications/ARM/arm-none-eabi/include/c++/10.3.1/cmath ****     cos(_Tp __x)
 197:/Applications/ARM/arm-none-eabi/include/c++/10.3.1/cmath ****     { return __builtin_cos(__x); }
 198:/Applications/ARM/arm-none-eabi/include/c++/10.3.1/cmath **** 
 199:/Applications/ARM/arm-none-eabi/include/c++/10.3.1/cmath ****   using ::cosh;
 200:/Applications/ARM/arm-none-eabi/include/c++/10.3.1/cmath **** 
 201:/Applications/ARM/arm-none-eabi/include/c++/10.3.1/cmath **** #ifndef __CORRECT_ISO_CPP_MATH_H_PROTO
 202:/Applications/ARM/arm-none-eabi/include/c++/10.3.1/cmath ****   inline _GLIBCXX_CONSTEXPR float
 203:/Applications/ARM/arm-none-eabi/include/c++/10.3.1/cmath ****   cosh(float __x)
 204:/Applications/ARM/arm-none-eabi/include/c++/10.3.1/cmath ****   { return __builtin_coshf(__x); }
 205:/Applications/ARM/arm-none-eabi/include/c++/10.3.1/cmath **** 
 206:/Applications/ARM/arm-none-eabi/include/c++/10.3.1/cmath ****   inline _GLIBCXX_CONSTEXPR long double
 207:/Applications/ARM/arm-none-eabi/include/c++/10.3.1/cmath ****   cosh(long double __x)
 208:/Applications/ARM/arm-none-eabi/include/c++/10.3.1/cmath ****   { return __builtin_coshl(__x); }
 209:/Applications/ARM/arm-none-eabi/include/c++/10.3.1/cmath **** #endif
 210:/Applications/ARM/arm-none-eabi/include/c++/10.3.1/cmath **** 
 211:/Applications/ARM/arm-none-eabi/include/c++/10.3.1/cmath ****   template<typename _Tp>
 212:/Applications/ARM/arm-none-eabi/include/c++/10.3.1/cmath ****     inline _GLIBCXX_CONSTEXPR
 213:/Applications/ARM/arm-none-eabi/include/c++/10.3.1/cmath ****     typename __gnu_cxx::__enable_if<__is_integer<_Tp>::__value,
 214:/Applications/ARM/arm-none-eabi/include/c++/10.3.1/cmath ****                                     double>::__type
 215:/Applications/ARM/arm-none-eabi/include/c++/10.3.1/cmath ****     cosh(_Tp __x)
 216:/Applications/ARM/arm-none-eabi/include/c++/10.3.1/cmath ****     { return __builtin_cosh(__x); }
 217:/Applications/ARM/arm-none-eabi/include/c++/10.3.1/cmath **** 
 218:/Applications/ARM/arm-none-eabi/include/c++/10.3.1/cmath ****   using ::exp;
ARM GAS  /var/folders/z2/7_lhr9dn53s9tj4s0rwtyswm0000gn/T//ccooqcSF.s 			page 20


 219:/Applications/ARM/arm-none-eabi/include/c++/10.3.1/cmath **** 
 220:/Applications/ARM/arm-none-eabi/include/c++/10.3.1/cmath **** #ifndef __CORRECT_ISO_CPP_MATH_H_PROTO
 221:/Applications/ARM/arm-none-eabi/include/c++/10.3.1/cmath ****   inline _GLIBCXX_CONSTEXPR float
 222:/Applications/ARM/arm-none-eabi/include/c++/10.3.1/cmath ****   exp(float __x)
 223:/Applications/ARM/arm-none-eabi/include/c++/10.3.1/cmath ****   { return __builtin_expf(__x); }
 224:/Applications/ARM/arm-none-eabi/include/c++/10.3.1/cmath **** 
 225:/Applications/ARM/arm-none-eabi/include/c++/10.3.1/cmath ****   inline _GLIBCXX_CONSTEXPR long double
 226:/Applications/ARM/arm-none-eabi/include/c++/10.3.1/cmath ****   exp(long double __x)
 227:/Applications/ARM/arm-none-eabi/include/c++/10.3.1/cmath ****   { return __builtin_expl(__x); }
 228:/Applications/ARM/arm-none-eabi/include/c++/10.3.1/cmath **** #endif
 229:/Applications/ARM/arm-none-eabi/include/c++/10.3.1/cmath **** 
 230:/Applications/ARM/arm-none-eabi/include/c++/10.3.1/cmath ****   template<typename _Tp>
 231:/Applications/ARM/arm-none-eabi/include/c++/10.3.1/cmath ****     inline _GLIBCXX_CONSTEXPR
 232:/Applications/ARM/arm-none-eabi/include/c++/10.3.1/cmath ****     typename __gnu_cxx::__enable_if<__is_integer<_Tp>::__value,
 233:/Applications/ARM/arm-none-eabi/include/c++/10.3.1/cmath ****                                     double>::__type
 234:/Applications/ARM/arm-none-eabi/include/c++/10.3.1/cmath ****     exp(_Tp __x)
 235:/Applications/ARM/arm-none-eabi/include/c++/10.3.1/cmath ****     { return __builtin_exp(__x); }
 236:/Applications/ARM/arm-none-eabi/include/c++/10.3.1/cmath **** 
 237:/Applications/ARM/arm-none-eabi/include/c++/10.3.1/cmath ****   using ::fabs;
 238:/Applications/ARM/arm-none-eabi/include/c++/10.3.1/cmath **** 
 239:/Applications/ARM/arm-none-eabi/include/c++/10.3.1/cmath **** #ifndef __CORRECT_ISO_CPP_MATH_H_PROTO
 240:/Applications/ARM/arm-none-eabi/include/c++/10.3.1/cmath ****   inline _GLIBCXX_CONSTEXPR float
 241:/Applications/ARM/arm-none-eabi/include/c++/10.3.1/cmath ****   fabs(float __x)
 242:/Applications/ARM/arm-none-eabi/include/c++/10.3.1/cmath ****   { return __builtin_fabsf(__x); }
 243:/Applications/ARM/arm-none-eabi/include/c++/10.3.1/cmath **** 
 244:/Applications/ARM/arm-none-eabi/include/c++/10.3.1/cmath ****   inline _GLIBCXX_CONSTEXPR long double
 245:/Applications/ARM/arm-none-eabi/include/c++/10.3.1/cmath ****   fabs(long double __x)
 246:/Applications/ARM/arm-none-eabi/include/c++/10.3.1/cmath ****   { return __builtin_fabsl(__x); }
 247:/Applications/ARM/arm-none-eabi/include/c++/10.3.1/cmath **** #endif
 248:/Applications/ARM/arm-none-eabi/include/c++/10.3.1/cmath **** 
 249:/Applications/ARM/arm-none-eabi/include/c++/10.3.1/cmath ****   template<typename _Tp>
 250:/Applications/ARM/arm-none-eabi/include/c++/10.3.1/cmath ****     inline _GLIBCXX_CONSTEXPR
 251:/Applications/ARM/arm-none-eabi/include/c++/10.3.1/cmath ****     typename __gnu_cxx::__enable_if<__is_integer<_Tp>::__value,
 252:/Applications/ARM/arm-none-eabi/include/c++/10.3.1/cmath ****                                     double>::__type
 253:/Applications/ARM/arm-none-eabi/include/c++/10.3.1/cmath ****     fabs(_Tp __x)
 254:/Applications/ARM/arm-none-eabi/include/c++/10.3.1/cmath ****     { return __builtin_fabs(__x); }
 255:/Applications/ARM/arm-none-eabi/include/c++/10.3.1/cmath **** 
 256:/Applications/ARM/arm-none-eabi/include/c++/10.3.1/cmath ****   using ::floor;
 257:/Applications/ARM/arm-none-eabi/include/c++/10.3.1/cmath **** 
 258:/Applications/ARM/arm-none-eabi/include/c++/10.3.1/cmath **** #ifndef __CORRECT_ISO_CPP_MATH_H_PROTO
 259:/Applications/ARM/arm-none-eabi/include/c++/10.3.1/cmath ****   inline _GLIBCXX_CONSTEXPR float
 260:/Applications/ARM/arm-none-eabi/include/c++/10.3.1/cmath ****   floor(float __x)
 261:/Applications/ARM/arm-none-eabi/include/c++/10.3.1/cmath ****   { return __builtin_floorf(__x); }
 262:/Applications/ARM/arm-none-eabi/include/c++/10.3.1/cmath **** 
 263:/Applications/ARM/arm-none-eabi/include/c++/10.3.1/cmath ****   inline _GLIBCXX_CONSTEXPR long double
 264:/Applications/ARM/arm-none-eabi/include/c++/10.3.1/cmath ****   floor(long double __x)
 265:/Applications/ARM/arm-none-eabi/include/c++/10.3.1/cmath ****   { return __builtin_floorl(__x); }
 266:/Applications/ARM/arm-none-eabi/include/c++/10.3.1/cmath **** #endif
 267:/Applications/ARM/arm-none-eabi/include/c++/10.3.1/cmath **** 
 268:/Applications/ARM/arm-none-eabi/include/c++/10.3.1/cmath ****   template<typename _Tp>
 269:/Applications/ARM/arm-none-eabi/include/c++/10.3.1/cmath ****     inline _GLIBCXX_CONSTEXPR
 270:/Applications/ARM/arm-none-eabi/include/c++/10.3.1/cmath ****     typename __gnu_cxx::__enable_if<__is_integer<_Tp>::__value,
 271:/Applications/ARM/arm-none-eabi/include/c++/10.3.1/cmath ****                                     double>::__type
 272:/Applications/ARM/arm-none-eabi/include/c++/10.3.1/cmath ****     floor(_Tp __x)
 273:/Applications/ARM/arm-none-eabi/include/c++/10.3.1/cmath ****     { return __builtin_floor(__x); }
 274:/Applications/ARM/arm-none-eabi/include/c++/10.3.1/cmath **** 
 275:/Applications/ARM/arm-none-eabi/include/c++/10.3.1/cmath ****   using ::fmod;
ARM GAS  /var/folders/z2/7_lhr9dn53s9tj4s0rwtyswm0000gn/T//ccooqcSF.s 			page 21


 276:/Applications/ARM/arm-none-eabi/include/c++/10.3.1/cmath **** 
 277:/Applications/ARM/arm-none-eabi/include/c++/10.3.1/cmath **** #ifndef __CORRECT_ISO_CPP_MATH_H_PROTO
 278:/Applications/ARM/arm-none-eabi/include/c++/10.3.1/cmath ****   inline _GLIBCXX_CONSTEXPR float
 279:/Applications/ARM/arm-none-eabi/include/c++/10.3.1/cmath ****   fmod(float __x, float __y)
 280:/Applications/ARM/arm-none-eabi/include/c++/10.3.1/cmath ****   { return __builtin_fmodf(__x, __y); }
 281:/Applications/ARM/arm-none-eabi/include/c++/10.3.1/cmath **** 
 282:/Applications/ARM/arm-none-eabi/include/c++/10.3.1/cmath ****   inline _GLIBCXX_CONSTEXPR long double
 283:/Applications/ARM/arm-none-eabi/include/c++/10.3.1/cmath ****   fmod(long double __x, long double __y)
 284:/Applications/ARM/arm-none-eabi/include/c++/10.3.1/cmath ****   { return __builtin_fmodl(__x, __y); }
 285:/Applications/ARM/arm-none-eabi/include/c++/10.3.1/cmath **** #endif
 286:/Applications/ARM/arm-none-eabi/include/c++/10.3.1/cmath **** 
 287:/Applications/ARM/arm-none-eabi/include/c++/10.3.1/cmath ****   template<typename _Tp, typename _Up>
 288:/Applications/ARM/arm-none-eabi/include/c++/10.3.1/cmath ****     inline _GLIBCXX_CONSTEXPR
 289:/Applications/ARM/arm-none-eabi/include/c++/10.3.1/cmath ****     typename __gnu_cxx::__promote_2<_Tp, _Up>::__type
 290:/Applications/ARM/arm-none-eabi/include/c++/10.3.1/cmath ****     fmod(_Tp __x, _Up __y)
 291:/Applications/ARM/arm-none-eabi/include/c++/10.3.1/cmath ****     {
 292:/Applications/ARM/arm-none-eabi/include/c++/10.3.1/cmath ****       typedef typename __gnu_cxx::__promote_2<_Tp, _Up>::__type __type;
 293:/Applications/ARM/arm-none-eabi/include/c++/10.3.1/cmath ****       return fmod(__type(__x), __type(__y));
 294:/Applications/ARM/arm-none-eabi/include/c++/10.3.1/cmath ****     }
 295:/Applications/ARM/arm-none-eabi/include/c++/10.3.1/cmath **** 
 296:/Applications/ARM/arm-none-eabi/include/c++/10.3.1/cmath ****   using ::frexp;
 297:/Applications/ARM/arm-none-eabi/include/c++/10.3.1/cmath **** 
 298:/Applications/ARM/arm-none-eabi/include/c++/10.3.1/cmath **** #ifndef __CORRECT_ISO_CPP_MATH_H_PROTO
 299:/Applications/ARM/arm-none-eabi/include/c++/10.3.1/cmath ****   inline float
 300:/Applications/ARM/arm-none-eabi/include/c++/10.3.1/cmath ****   frexp(float __x, int* __exp)
 301:/Applications/ARM/arm-none-eabi/include/c++/10.3.1/cmath ****   { return __builtin_frexpf(__x, __exp); }
 302:/Applications/ARM/arm-none-eabi/include/c++/10.3.1/cmath **** 
 303:/Applications/ARM/arm-none-eabi/include/c++/10.3.1/cmath ****   inline long double
 304:/Applications/ARM/arm-none-eabi/include/c++/10.3.1/cmath ****   frexp(long double __x, int* __exp)
 305:/Applications/ARM/arm-none-eabi/include/c++/10.3.1/cmath ****   { return __builtin_frexpl(__x, __exp); }
 306:/Applications/ARM/arm-none-eabi/include/c++/10.3.1/cmath **** #endif
 307:/Applications/ARM/arm-none-eabi/include/c++/10.3.1/cmath **** 
 308:/Applications/ARM/arm-none-eabi/include/c++/10.3.1/cmath ****   template<typename _Tp>
 309:/Applications/ARM/arm-none-eabi/include/c++/10.3.1/cmath ****     inline _GLIBCXX_CONSTEXPR
 310:/Applications/ARM/arm-none-eabi/include/c++/10.3.1/cmath ****     typename __gnu_cxx::__enable_if<__is_integer<_Tp>::__value, 
 311:/Applications/ARM/arm-none-eabi/include/c++/10.3.1/cmath ****                                     double>::__type
 312:/Applications/ARM/arm-none-eabi/include/c++/10.3.1/cmath ****     frexp(_Tp __x, int* __exp)
 313:/Applications/ARM/arm-none-eabi/include/c++/10.3.1/cmath ****     { return __builtin_frexp(__x, __exp); }
 314:/Applications/ARM/arm-none-eabi/include/c++/10.3.1/cmath **** 
 315:/Applications/ARM/arm-none-eabi/include/c++/10.3.1/cmath ****   using ::ldexp;
 316:/Applications/ARM/arm-none-eabi/include/c++/10.3.1/cmath **** 
 317:/Applications/ARM/arm-none-eabi/include/c++/10.3.1/cmath **** #ifndef __CORRECT_ISO_CPP_MATH_H_PROTO
 318:/Applications/ARM/arm-none-eabi/include/c++/10.3.1/cmath ****   inline _GLIBCXX_CONSTEXPR float
 319:/Applications/ARM/arm-none-eabi/include/c++/10.3.1/cmath ****   ldexp(float __x, int __exp)
 320:/Applications/ARM/arm-none-eabi/include/c++/10.3.1/cmath ****   { return __builtin_ldexpf(__x, __exp); }
 321:/Applications/ARM/arm-none-eabi/include/c++/10.3.1/cmath **** 
 322:/Applications/ARM/arm-none-eabi/include/c++/10.3.1/cmath ****   inline _GLIBCXX_CONSTEXPR long double
 323:/Applications/ARM/arm-none-eabi/include/c++/10.3.1/cmath ****   ldexp(long double __x, int __exp)
 324:/Applications/ARM/arm-none-eabi/include/c++/10.3.1/cmath ****   { return __builtin_ldexpl(__x, __exp); }
 325:/Applications/ARM/arm-none-eabi/include/c++/10.3.1/cmath **** #endif
 326:/Applications/ARM/arm-none-eabi/include/c++/10.3.1/cmath **** 
 327:/Applications/ARM/arm-none-eabi/include/c++/10.3.1/cmath ****   template<typename _Tp>
 328:/Applications/ARM/arm-none-eabi/include/c++/10.3.1/cmath ****     inline _GLIBCXX_CONSTEXPR
 329:/Applications/ARM/arm-none-eabi/include/c++/10.3.1/cmath ****     typename __gnu_cxx::__enable_if<__is_integer<_Tp>::__value, 
 330:/Applications/ARM/arm-none-eabi/include/c++/10.3.1/cmath ****                                     double>::__type
 331:/Applications/ARM/arm-none-eabi/include/c++/10.3.1/cmath ****     ldexp(_Tp __x, int __exp)
 332:/Applications/ARM/arm-none-eabi/include/c++/10.3.1/cmath ****     { return __builtin_ldexp(__x, __exp); }
ARM GAS  /var/folders/z2/7_lhr9dn53s9tj4s0rwtyswm0000gn/T//ccooqcSF.s 			page 22


 333:/Applications/ARM/arm-none-eabi/include/c++/10.3.1/cmath **** 
 334:/Applications/ARM/arm-none-eabi/include/c++/10.3.1/cmath ****   using ::log;
 335:/Applications/ARM/arm-none-eabi/include/c++/10.3.1/cmath **** 
 336:/Applications/ARM/arm-none-eabi/include/c++/10.3.1/cmath **** #ifndef __CORRECT_ISO_CPP_MATH_H_PROTO
 337:/Applications/ARM/arm-none-eabi/include/c++/10.3.1/cmath ****   inline _GLIBCXX_CONSTEXPR float
 338:/Applications/ARM/arm-none-eabi/include/c++/10.3.1/cmath ****   log(float __x)
 339:/Applications/ARM/arm-none-eabi/include/c++/10.3.1/cmath ****   { return __builtin_logf(__x); }
 340:/Applications/ARM/arm-none-eabi/include/c++/10.3.1/cmath **** 
 341:/Applications/ARM/arm-none-eabi/include/c++/10.3.1/cmath ****   inline _GLIBCXX_CONSTEXPR long double
 342:/Applications/ARM/arm-none-eabi/include/c++/10.3.1/cmath ****   log(long double __x)
 343:/Applications/ARM/arm-none-eabi/include/c++/10.3.1/cmath ****   { return __builtin_logl(__x); }
 344:/Applications/ARM/arm-none-eabi/include/c++/10.3.1/cmath **** #endif
 345:/Applications/ARM/arm-none-eabi/include/c++/10.3.1/cmath **** 
 346:/Applications/ARM/arm-none-eabi/include/c++/10.3.1/cmath ****   template<typename _Tp>
 347:/Applications/ARM/arm-none-eabi/include/c++/10.3.1/cmath ****     inline _GLIBCXX_CONSTEXPR
 348:/Applications/ARM/arm-none-eabi/include/c++/10.3.1/cmath ****     typename __gnu_cxx::__enable_if<__is_integer<_Tp>::__value, 
 349:/Applications/ARM/arm-none-eabi/include/c++/10.3.1/cmath ****                                     double>::__type
 350:/Applications/ARM/arm-none-eabi/include/c++/10.3.1/cmath ****     log(_Tp __x)
 351:/Applications/ARM/arm-none-eabi/include/c++/10.3.1/cmath ****     { return __builtin_log(__x); }
 352:/Applications/ARM/arm-none-eabi/include/c++/10.3.1/cmath **** 
 353:/Applications/ARM/arm-none-eabi/include/c++/10.3.1/cmath ****   using ::log10;
 354:/Applications/ARM/arm-none-eabi/include/c++/10.3.1/cmath **** 
 355:/Applications/ARM/arm-none-eabi/include/c++/10.3.1/cmath **** #ifndef __CORRECT_ISO_CPP_MATH_H_PROTO
 356:/Applications/ARM/arm-none-eabi/include/c++/10.3.1/cmath ****   inline _GLIBCXX_CONSTEXPR float
 357:/Applications/ARM/arm-none-eabi/include/c++/10.3.1/cmath ****   log10(float __x)
 358:/Applications/ARM/arm-none-eabi/include/c++/10.3.1/cmath ****   { return __builtin_log10f(__x); }
 359:/Applications/ARM/arm-none-eabi/include/c++/10.3.1/cmath **** 
 360:/Applications/ARM/arm-none-eabi/include/c++/10.3.1/cmath ****   inline _GLIBCXX_CONSTEXPR long double
 361:/Applications/ARM/arm-none-eabi/include/c++/10.3.1/cmath ****   log10(long double __x)
 362:/Applications/ARM/arm-none-eabi/include/c++/10.3.1/cmath ****   { return __builtin_log10l(__x); }
 363:/Applications/ARM/arm-none-eabi/include/c++/10.3.1/cmath **** #endif
 364:/Applications/ARM/arm-none-eabi/include/c++/10.3.1/cmath **** 
 365:/Applications/ARM/arm-none-eabi/include/c++/10.3.1/cmath ****   template<typename _Tp>
 366:/Applications/ARM/arm-none-eabi/include/c++/10.3.1/cmath ****     inline _GLIBCXX_CONSTEXPR
 367:/Applications/ARM/arm-none-eabi/include/c++/10.3.1/cmath ****     typename __gnu_cxx::__enable_if<__is_integer<_Tp>::__value,
 368:/Applications/ARM/arm-none-eabi/include/c++/10.3.1/cmath ****                                     double>::__type
 369:/Applications/ARM/arm-none-eabi/include/c++/10.3.1/cmath ****     log10(_Tp __x)
 370:/Applications/ARM/arm-none-eabi/include/c++/10.3.1/cmath ****     { return __builtin_log10(__x); }
 371:/Applications/ARM/arm-none-eabi/include/c++/10.3.1/cmath **** 
 372:/Applications/ARM/arm-none-eabi/include/c++/10.3.1/cmath ****   using ::modf;
 373:/Applications/ARM/arm-none-eabi/include/c++/10.3.1/cmath **** 
 374:/Applications/ARM/arm-none-eabi/include/c++/10.3.1/cmath **** #ifndef __CORRECT_ISO_CPP_MATH_H_PROTO
 375:/Applications/ARM/arm-none-eabi/include/c++/10.3.1/cmath ****   inline float
 376:/Applications/ARM/arm-none-eabi/include/c++/10.3.1/cmath ****   modf(float __x, float* __iptr)
 377:/Applications/ARM/arm-none-eabi/include/c++/10.3.1/cmath ****   { return __builtin_modff(__x, __iptr); }
 378:/Applications/ARM/arm-none-eabi/include/c++/10.3.1/cmath **** 
 379:/Applications/ARM/arm-none-eabi/include/c++/10.3.1/cmath ****   inline long double
 380:/Applications/ARM/arm-none-eabi/include/c++/10.3.1/cmath ****   modf(long double __x, long double* __iptr)
 381:/Applications/ARM/arm-none-eabi/include/c++/10.3.1/cmath ****   { return __builtin_modfl(__x, __iptr); }
 382:/Applications/ARM/arm-none-eabi/include/c++/10.3.1/cmath **** #endif
 383:/Applications/ARM/arm-none-eabi/include/c++/10.3.1/cmath **** 
 384:/Applications/ARM/arm-none-eabi/include/c++/10.3.1/cmath ****   using ::pow;
 385:/Applications/ARM/arm-none-eabi/include/c++/10.3.1/cmath **** 
 386:/Applications/ARM/arm-none-eabi/include/c++/10.3.1/cmath **** #ifndef __CORRECT_ISO_CPP_MATH_H_PROTO
 387:/Applications/ARM/arm-none-eabi/include/c++/10.3.1/cmath ****   inline _GLIBCXX_CONSTEXPR float
 388:/Applications/ARM/arm-none-eabi/include/c++/10.3.1/cmath ****   pow(float __x, float __y)
 389:/Applications/ARM/arm-none-eabi/include/c++/10.3.1/cmath ****   { return __builtin_powf(__x, __y); }
ARM GAS  /var/folders/z2/7_lhr9dn53s9tj4s0rwtyswm0000gn/T//ccooqcSF.s 			page 23


 390:/Applications/ARM/arm-none-eabi/include/c++/10.3.1/cmath **** 
 391:/Applications/ARM/arm-none-eabi/include/c++/10.3.1/cmath ****   inline _GLIBCXX_CONSTEXPR long double
 392:/Applications/ARM/arm-none-eabi/include/c++/10.3.1/cmath ****   pow(long double __x, long double __y)
 393:/Applications/ARM/arm-none-eabi/include/c++/10.3.1/cmath ****   { return __builtin_powl(__x, __y); }
 394:/Applications/ARM/arm-none-eabi/include/c++/10.3.1/cmath **** 
 395:/Applications/ARM/arm-none-eabi/include/c++/10.3.1/cmath **** #if __cplusplus < 201103L
 396:/Applications/ARM/arm-none-eabi/include/c++/10.3.1/cmath ****   // _GLIBCXX_RESOLVE_LIB_DEFECTS
 397:/Applications/ARM/arm-none-eabi/include/c++/10.3.1/cmath ****   // DR 550. What should the return type of pow(float,int) be?
 398:/Applications/ARM/arm-none-eabi/include/c++/10.3.1/cmath ****   inline double
 399:/Applications/ARM/arm-none-eabi/include/c++/10.3.1/cmath ****   pow(double __x, int __i)
 400:/Applications/ARM/arm-none-eabi/include/c++/10.3.1/cmath ****   { return __builtin_powi(__x, __i); }
 401:/Applications/ARM/arm-none-eabi/include/c++/10.3.1/cmath **** 
 402:/Applications/ARM/arm-none-eabi/include/c++/10.3.1/cmath ****   inline float
 403:/Applications/ARM/arm-none-eabi/include/c++/10.3.1/cmath ****   pow(float __x, int __n)
 404:/Applications/ARM/arm-none-eabi/include/c++/10.3.1/cmath ****   { return __builtin_powif(__x, __n); }
 405:/Applications/ARM/arm-none-eabi/include/c++/10.3.1/cmath **** 
 406:/Applications/ARM/arm-none-eabi/include/c++/10.3.1/cmath ****   inline long double
 407:/Applications/ARM/arm-none-eabi/include/c++/10.3.1/cmath ****   pow(long double __x, int __n)
 408:/Applications/ARM/arm-none-eabi/include/c++/10.3.1/cmath ****   { return __builtin_powil(__x, __n); }
 409:/Applications/ARM/arm-none-eabi/include/c++/10.3.1/cmath **** #endif
 410:/Applications/ARM/arm-none-eabi/include/c++/10.3.1/cmath **** #endif
 411:/Applications/ARM/arm-none-eabi/include/c++/10.3.1/cmath **** 
 412:/Applications/ARM/arm-none-eabi/include/c++/10.3.1/cmath ****   template<typename _Tp, typename _Up>
 413:/Applications/ARM/arm-none-eabi/include/c++/10.3.1/cmath ****     inline _GLIBCXX_CONSTEXPR
 414:/Applications/ARM/arm-none-eabi/include/c++/10.3.1/cmath ****     typename __gnu_cxx::__promote_2<_Tp, _Up>::__type
 415:/Applications/ARM/arm-none-eabi/include/c++/10.3.1/cmath ****     pow(_Tp __x, _Up __y)
 416:/Applications/ARM/arm-none-eabi/include/c++/10.3.1/cmath ****     {
 417:/Applications/ARM/arm-none-eabi/include/c++/10.3.1/cmath ****       typedef typename __gnu_cxx::__promote_2<_Tp, _Up>::__type __type;
 418:/Applications/ARM/arm-none-eabi/include/c++/10.3.1/cmath ****       return pow(__type(__x), __type(__y));
 419:/Applications/ARM/arm-none-eabi/include/c++/10.3.1/cmath ****     }
 420:/Applications/ARM/arm-none-eabi/include/c++/10.3.1/cmath **** 
 421:/Applications/ARM/arm-none-eabi/include/c++/10.3.1/cmath ****   using ::sin;
 422:/Applications/ARM/arm-none-eabi/include/c++/10.3.1/cmath **** 
 423:/Applications/ARM/arm-none-eabi/include/c++/10.3.1/cmath **** #ifndef __CORRECT_ISO_CPP_MATH_H_PROTO
 424:/Applications/ARM/arm-none-eabi/include/c++/10.3.1/cmath ****   inline _GLIBCXX_CONSTEXPR float
 425:/Applications/ARM/arm-none-eabi/include/c++/10.3.1/cmath ****   sin(float __x)
 426:/Applications/ARM/arm-none-eabi/include/c++/10.3.1/cmath ****   { return __builtin_sinf(__x); }
 427:/Applications/ARM/arm-none-eabi/include/c++/10.3.1/cmath **** 
 428:/Applications/ARM/arm-none-eabi/include/c++/10.3.1/cmath ****   inline _GLIBCXX_CONSTEXPR long double
 429:/Applications/ARM/arm-none-eabi/include/c++/10.3.1/cmath ****   sin(long double __x)
 430:/Applications/ARM/arm-none-eabi/include/c++/10.3.1/cmath ****   { return __builtin_sinl(__x); }
 431:/Applications/ARM/arm-none-eabi/include/c++/10.3.1/cmath **** #endif
 432:/Applications/ARM/arm-none-eabi/include/c++/10.3.1/cmath **** 
 433:/Applications/ARM/arm-none-eabi/include/c++/10.3.1/cmath ****   template<typename _Tp>
 434:/Applications/ARM/arm-none-eabi/include/c++/10.3.1/cmath ****     inline _GLIBCXX_CONSTEXPR
 435:/Applications/ARM/arm-none-eabi/include/c++/10.3.1/cmath ****     typename __gnu_cxx::__enable_if<__is_integer<_Tp>::__value, 
 436:/Applications/ARM/arm-none-eabi/include/c++/10.3.1/cmath ****                                     double>::__type
 437:/Applications/ARM/arm-none-eabi/include/c++/10.3.1/cmath ****     sin(_Tp __x)
 438:/Applications/ARM/arm-none-eabi/include/c++/10.3.1/cmath ****     { return __builtin_sin(__x); }
 439:/Applications/ARM/arm-none-eabi/include/c++/10.3.1/cmath **** 
 440:/Applications/ARM/arm-none-eabi/include/c++/10.3.1/cmath ****   using ::sinh;
 441:/Applications/ARM/arm-none-eabi/include/c++/10.3.1/cmath **** 
 442:/Applications/ARM/arm-none-eabi/include/c++/10.3.1/cmath **** #ifndef __CORRECT_ISO_CPP_MATH_H_PROTO
 443:/Applications/ARM/arm-none-eabi/include/c++/10.3.1/cmath ****   inline _GLIBCXX_CONSTEXPR float
 444:/Applications/ARM/arm-none-eabi/include/c++/10.3.1/cmath ****   sinh(float __x)
 445:/Applications/ARM/arm-none-eabi/include/c++/10.3.1/cmath ****   { return __builtin_sinhf(__x); }
 446:/Applications/ARM/arm-none-eabi/include/c++/10.3.1/cmath **** 
ARM GAS  /var/folders/z2/7_lhr9dn53s9tj4s0rwtyswm0000gn/T//ccooqcSF.s 			page 24


 447:/Applications/ARM/arm-none-eabi/include/c++/10.3.1/cmath ****   inline _GLIBCXX_CONSTEXPR long double
 448:/Applications/ARM/arm-none-eabi/include/c++/10.3.1/cmath ****   sinh(long double __x)
 449:/Applications/ARM/arm-none-eabi/include/c++/10.3.1/cmath ****   { return __builtin_sinhl(__x); }
 450:/Applications/ARM/arm-none-eabi/include/c++/10.3.1/cmath **** #endif
 451:/Applications/ARM/arm-none-eabi/include/c++/10.3.1/cmath **** 
 452:/Applications/ARM/arm-none-eabi/include/c++/10.3.1/cmath ****   template<typename _Tp>
 453:/Applications/ARM/arm-none-eabi/include/c++/10.3.1/cmath ****     inline _GLIBCXX_CONSTEXPR
 454:/Applications/ARM/arm-none-eabi/include/c++/10.3.1/cmath ****     typename __gnu_cxx::__enable_if<__is_integer<_Tp>::__value, 
 455:/Applications/ARM/arm-none-eabi/include/c++/10.3.1/cmath ****                                     double>::__type
 456:/Applications/ARM/arm-none-eabi/include/c++/10.3.1/cmath ****     sinh(_Tp __x)
 457:/Applications/ARM/arm-none-eabi/include/c++/10.3.1/cmath ****     { return __builtin_sinh(__x); }
 458:/Applications/ARM/arm-none-eabi/include/c++/10.3.1/cmath **** 
 459:/Applications/ARM/arm-none-eabi/include/c++/10.3.1/cmath ****   using ::sqrt;
 460:/Applications/ARM/arm-none-eabi/include/c++/10.3.1/cmath **** 
 461:/Applications/ARM/arm-none-eabi/include/c++/10.3.1/cmath **** #ifndef __CORRECT_ISO_CPP_MATH_H_PROTO
 462:/Applications/ARM/arm-none-eabi/include/c++/10.3.1/cmath ****   inline _GLIBCXX_CONSTEXPR float
 463:/Applications/ARM/arm-none-eabi/include/c++/10.3.1/cmath ****   sqrt(float __x)
 464:/Applications/ARM/arm-none-eabi/include/c++/10.3.1/cmath ****   { return __builtin_sqrtf(__x); }
 465:/Applications/ARM/arm-none-eabi/include/c++/10.3.1/cmath **** 
 466:/Applications/ARM/arm-none-eabi/include/c++/10.3.1/cmath ****   inline _GLIBCXX_CONSTEXPR long double
 467:/Applications/ARM/arm-none-eabi/include/c++/10.3.1/cmath ****   sqrt(long double __x)
 468:/Applications/ARM/arm-none-eabi/include/c++/10.3.1/cmath ****   { return __builtin_sqrtl(__x); }
 469:/Applications/ARM/arm-none-eabi/include/c++/10.3.1/cmath **** #endif
 470:/Applications/ARM/arm-none-eabi/include/c++/10.3.1/cmath **** 
 471:/Applications/ARM/arm-none-eabi/include/c++/10.3.1/cmath ****   template<typename _Tp>
 472:/Applications/ARM/arm-none-eabi/include/c++/10.3.1/cmath ****     inline _GLIBCXX_CONSTEXPR
 473:/Applications/ARM/arm-none-eabi/include/c++/10.3.1/cmath ****     typename __gnu_cxx::__enable_if<__is_integer<_Tp>::__value, 
 474:/Applications/ARM/arm-none-eabi/include/c++/10.3.1/cmath ****                                     double>::__type
 475:/Applications/ARM/arm-none-eabi/include/c++/10.3.1/cmath ****     sqrt(_Tp __x)
 476:/Applications/ARM/arm-none-eabi/include/c++/10.3.1/cmath ****     { return __builtin_sqrt(__x); }
 477:/Applications/ARM/arm-none-eabi/include/c++/10.3.1/cmath **** 
 478:/Applications/ARM/arm-none-eabi/include/c++/10.3.1/cmath ****   using ::tan;
 479:/Applications/ARM/arm-none-eabi/include/c++/10.3.1/cmath **** 
 480:/Applications/ARM/arm-none-eabi/include/c++/10.3.1/cmath **** #ifndef __CORRECT_ISO_CPP_MATH_H_PROTO
 481:/Applications/ARM/arm-none-eabi/include/c++/10.3.1/cmath ****   inline _GLIBCXX_CONSTEXPR float
 482:/Applications/ARM/arm-none-eabi/include/c++/10.3.1/cmath ****   tan(float __x)
 483:/Applications/ARM/arm-none-eabi/include/c++/10.3.1/cmath ****   { return __builtin_tanf(__x); }
 484:/Applications/ARM/arm-none-eabi/include/c++/10.3.1/cmath **** 
 485:/Applications/ARM/arm-none-eabi/include/c++/10.3.1/cmath ****   inline _GLIBCXX_CONSTEXPR long double
 486:/Applications/ARM/arm-none-eabi/include/c++/10.3.1/cmath ****   tan(long double __x)
 487:/Applications/ARM/arm-none-eabi/include/c++/10.3.1/cmath ****   { return __builtin_tanl(__x); }
 488:/Applications/ARM/arm-none-eabi/include/c++/10.3.1/cmath **** #endif
 489:/Applications/ARM/arm-none-eabi/include/c++/10.3.1/cmath **** 
 490:/Applications/ARM/arm-none-eabi/include/c++/10.3.1/cmath ****   template<typename _Tp>
 491:/Applications/ARM/arm-none-eabi/include/c++/10.3.1/cmath ****     inline _GLIBCXX_CONSTEXPR
 492:/Applications/ARM/arm-none-eabi/include/c++/10.3.1/cmath ****     typename __gnu_cxx::__enable_if<__is_integer<_Tp>::__value, 
 493:/Applications/ARM/arm-none-eabi/include/c++/10.3.1/cmath ****                                     double>::__type
 494:/Applications/ARM/arm-none-eabi/include/c++/10.3.1/cmath ****     tan(_Tp __x)
 495:/Applications/ARM/arm-none-eabi/include/c++/10.3.1/cmath ****     { return __builtin_tan(__x); }
 496:/Applications/ARM/arm-none-eabi/include/c++/10.3.1/cmath **** 
 497:/Applications/ARM/arm-none-eabi/include/c++/10.3.1/cmath ****   using ::tanh;
 498:/Applications/ARM/arm-none-eabi/include/c++/10.3.1/cmath **** 
 499:/Applications/ARM/arm-none-eabi/include/c++/10.3.1/cmath **** #ifndef __CORRECT_ISO_CPP_MATH_H_PROTO
 500:/Applications/ARM/arm-none-eabi/include/c++/10.3.1/cmath ****   inline _GLIBCXX_CONSTEXPR float
 501:/Applications/ARM/arm-none-eabi/include/c++/10.3.1/cmath ****   tanh(float __x)
 261              		.loc 15 501 3 is_stmt 1 discriminator 2 view .LVU57
 262              	.LBB334:
ARM GAS  /var/folders/z2/7_lhr9dn53s9tj4s0rwtyswm0000gn/T//ccooqcSF.s 			page 25


 502:/Applications/ARM/arm-none-eabi/include/c++/10.3.1/cmath ****   { return __builtin_tanhf(__x); }
 263              		.loc 15 502 5 discriminator 2 view .LVU58
 264              		.loc 15 502 27 is_stmt 0 discriminator 2 view .LVU59
 265 0042 99ED000A 		vldr.32	s0, [r9]
 266 0046 FFF7FEFF 		bl	tanhf
 267              	.LVL9:
 268              		.loc 15 502 27 discriminator 2 view .LVU60
 269              	.LBE334:
 270              	.LBE333:
  33:daisytusen.cpp ****         out[1][i] = tanh(out[1][i]);
 271              		.loc 14 33 34 discriminator 2 view .LVU61
 272 004a 6B68     		ldr	r3, [r5, #4]
  32:daisytusen.cpp ****         out[1][i] = tanh(out[1][i]);
 273              		.loc 14 32 19 discriminator 2 view .LVU62
 274 004c 89ED000A 		vstr.32	s0, [r9]
 275              		.loc 14 33 9 is_stmt 1 discriminator 2 view .LVU63
 276              		.loc 14 33 34 is_stmt 0 discriminator 2 view .LVU64
 277 0050 9A44     		add	r10, r10, r3
 278              	.LVL10:
 279              	.LBB335:
 280              	.LBI335:
 501:/Applications/ARM/arm-none-eabi/include/c++/10.3.1/cmath ****   { return __builtin_tanhf(__x); }
 281              		.loc 15 501 3 is_stmt 1 discriminator 2 view .LVU65
 282              	.LBB336:
 283              		.loc 15 502 5 discriminator 2 view .LVU66
 284              		.loc 15 502 27 is_stmt 0 discriminator 2 view .LVU67
 285 0052 9AED000A 		vldr.32	s0, [r10]
 286 0056 FFF7FEFF 		bl	tanhf
 287              	.LVL11:
 288              		.loc 15 502 27 discriminator 2 view .LVU68
 289              	.LBE336:
 290              	.LBE335:
 291              	.LBB337:
 292              	.LBB338:
  33:../../DaisySP//Source/Utility/delayline.h ****     /** initializes the delay line by clearing the values within, and setting delay to 1 sample.
  34:../../DaisySP//Source/Utility/delayline.h ****     */
  35:../../DaisySP//Source/Utility/delayline.h ****     void Init() { Reset(); }
  36:../../DaisySP//Source/Utility/delayline.h ****     /** clears buffer, sets write ptr to 0, and delay to 1 sample.
  37:../../DaisySP//Source/Utility/delayline.h ****     */
  38:../../DaisySP//Source/Utility/delayline.h ****     void Reset()
  39:../../DaisySP//Source/Utility/delayline.h ****     {
  40:../../DaisySP//Source/Utility/delayline.h ****         for(size_t i = 0; i < max_size; i++)
  41:../../DaisySP//Source/Utility/delayline.h ****         {
  42:../../DaisySP//Source/Utility/delayline.h ****             line_[i] = T(0);
  43:../../DaisySP//Source/Utility/delayline.h ****         }
  44:../../DaisySP//Source/Utility/delayline.h ****         write_ptr_ = 0;
  45:../../DaisySP//Source/Utility/delayline.h ****         delay_     = 1;
  46:../../DaisySP//Source/Utility/delayline.h ****     }
  47:../../DaisySP//Source/Utility/delayline.h **** 
  48:../../DaisySP//Source/Utility/delayline.h ****     /** sets the delay time in samples
  49:../../DaisySP//Source/Utility/delayline.h ****         If a float is passed in, a fractional component will be calculated for interpolating the de
  50:../../DaisySP//Source/Utility/delayline.h ****     */
  51:../../DaisySP//Source/Utility/delayline.h ****     inline void SetDelay(size_t delay)
  52:../../DaisySP//Source/Utility/delayline.h ****     {
  53:../../DaisySP//Source/Utility/delayline.h ****         frac_  = 0.0f;
  54:../../DaisySP//Source/Utility/delayline.h ****         delay_ = delay < max_size ? delay : max_size - 1;
  55:../../DaisySP//Source/Utility/delayline.h ****     }
ARM GAS  /var/folders/z2/7_lhr9dn53s9tj4s0rwtyswm0000gn/T//ccooqcSF.s 			page 26


  56:../../DaisySP//Source/Utility/delayline.h **** 
  57:../../DaisySP//Source/Utility/delayline.h ****     /** sets the delay time in samples
  58:../../DaisySP//Source/Utility/delayline.h ****         If a float is passed in, a fractional component will be calculated for interpolating the de
  59:../../DaisySP//Source/Utility/delayline.h ****     */
  60:../../DaisySP//Source/Utility/delayline.h ****     inline void SetDelay(float delay)
  61:../../DaisySP//Source/Utility/delayline.h ****     {
  62:../../DaisySP//Source/Utility/delayline.h ****         int32_t int_delay = static_cast<int32_t>(delay);
  63:../../DaisySP//Source/Utility/delayline.h ****         frac_             = delay - static_cast<float>(int_delay);
  64:../../DaisySP//Source/Utility/delayline.h ****         delay_ = static_cast<size_t>(int_delay) < max_size ? int_delay
  65:../../DaisySP//Source/Utility/delayline.h ****                                                            : max_size - 1;
  66:../../DaisySP//Source/Utility/delayline.h ****     }
  67:../../DaisySP//Source/Utility/delayline.h **** 
  68:../../DaisySP//Source/Utility/delayline.h ****     /** writes the sample of type T to the delay line, and advances the write ptr
  69:../../DaisySP//Source/Utility/delayline.h ****     */
  70:../../DaisySP//Source/Utility/delayline.h ****     inline void Write(const T sample)
  71:../../DaisySP//Source/Utility/delayline.h ****     {
  72:../../DaisySP//Source/Utility/delayline.h ****         line_[write_ptr_] = sample;
  73:../../DaisySP//Source/Utility/delayline.h ****         write_ptr_        = (write_ptr_ - 1 + max_size) % max_size;
  74:../../DaisySP//Source/Utility/delayline.h ****     }
  75:../../DaisySP//Source/Utility/delayline.h **** 
  76:../../DaisySP//Source/Utility/delayline.h ****     /** returns the next sample of type T in the delay line, interpolated if necessary.
  77:../../DaisySP//Source/Utility/delayline.h ****     */
  78:../../DaisySP//Source/Utility/delayline.h ****     inline const T Read() const
  79:../../DaisySP//Source/Utility/delayline.h ****     {
  80:../../DaisySP//Source/Utility/delayline.h ****         T a = line_[(write_ptr_ + delay_) % max_size];
 293              		.loc 13 80 43 discriminator 2 view .LVU69
 294 005a 3A4B     		ldr	r3, .L13+12
 295 005c 45F6C051 		movw	r1, #24000
 296              	.LBE338:
 297              	.LBE337:
  34:daisytusen.cpp ****         delay.Write(out[0][i] + 0.5*delay.Read());
 298              		.loc 14 34 31 discriminator 2 view .LVU70
 299 0060 B6EE003B 		vmov.f64	d3, #5.0e-1
  35:daisytusen.cpp ****         out[0][i] += 0.25*delay.Read();
 300              		.loc 14 35 19 discriminator 2 view .LVU71
 301 0064 B5EE005B 		vmov.f64	d5, #2.5e-1
  28:daisytusen.cpp ****     {
 302              		.loc 14 28 26 discriminator 2 view .LVU72
 303 0068 A642     		cmp	r6, r4
 304              	.LBB348:
 305              	.LBB339:
 306              		.loc 13 80 35 discriminator 2 view .LVU73
 307 006a D7E901C0 		ldrd	ip, r0, [r7, #4]
 308              	.LBE339:
 309              	.LBE348:
  33:daisytusen.cpp ****         delay.Write(out[0][i] + 0.5*delay.Read());
 310              		.loc 14 33 19 discriminator 2 view .LVU74
 311 006e 8AED000A 		vstr.32	s0, [r10]
  34:daisytusen.cpp ****         out[0][i] += 0.25*delay.Read();
 312              		.loc 14 34 9 is_stmt 1 discriminator 2 view .LVU75
 313              	.LVL12:
 314              	.LBB349:
 315              	.LBI337:
  78:../../DaisySP//Source/Utility/delayline.h ****     {
 316              		.loc 13 78 20 discriminator 2 view .LVU76
 317              	.LBB340:
 318              		.loc 13 80 33 is_stmt 0 discriminator 2 view .LVU77
ARM GAS  /var/folders/z2/7_lhr9dn53s9tj4s0rwtyswm0000gn/T//ccooqcSF.s 			page 27


 319 0072 0CEB0002 		add	r2, ip, r0
  81:../../DaisySP//Source/Utility/delayline.h ****         T b = line_[(write_ptr_ + delay_ + 1) % max_size];
  82:../../DaisySP//Source/Utility/delayline.h ****         return a + (b - a) * frac_;
 320              		.loc 13 82 30 discriminator 2 view .LVU78
 321 0076 D7ED004A 		vldr.32	s9, [r7]
 322              	.LBE340:
 323              	.LBE349:
  34:daisytusen.cpp ****         out[0][i] += 0.25*delay.Read();
 324              		.loc 14 34 29 discriminator 2 view .LVU79
 325 007a 99ED007A 		vldr.32	s14, [r9]
 326              	.LBB350:
 327              	.LBB341:
  80:../../DaisySP//Source/Utility/delayline.h ****         T b = line_[(write_ptr_ + delay_ + 1) % max_size];
 328              		.loc 13 80 43 discriminator 2 view .LVU80
 329 007e A3FB02BA 		umull	fp, r10, r3, r2
  81:../../DaisySP//Source/Utility/delayline.h ****         T b = line_[(write_ptr_ + delay_ + 1) % max_size];
 330              		.loc 13 81 42 discriminator 2 view .LVU81
 331 0082 02F1010E 		add	lr, r2, #1
 332              	.LBE341:
 333              	.LBE350:
  34:daisytusen.cpp ****         out[0][i] += 0.25*delay.Read();
 334              		.loc 14 34 29 discriminator 2 view .LVU82
 335 0086 B7EEC77A 		vcvt.f64.f32	d7, s14
 336              	.LBB351:
 337              	.LBB342:
  80:../../DaisySP//Source/Utility/delayline.h ****         T b = line_[(write_ptr_ + delay_ + 1) % max_size];
 338              		.loc 13 80 43 discriminator 2 view .LVU83
 339 008a 4FEA5A2A 		lsr	r10, r10, #9
 340 008e 01FB1A22 		mls	r2, r1, r10, r2
  81:../../DaisySP//Source/Utility/delayline.h ****         T b = line_[(write_ptr_ + delay_ + 1) % max_size];
 341              		.loc 13 81 47 discriminator 2 view .LVU84
 342 0092 A3FB0EBA 		umull	fp, r10, r3, lr
  80:../../DaisySP//Source/Utility/delayline.h ****         T b = line_[(write_ptr_ + delay_ + 1) % max_size];
 343              		.loc 13 80 11 discriminator 2 view .LVU85
 344 0096 07EB8202 		add	r2, r7, r2, lsl #2
  81:../../DaisySP//Source/Utility/delayline.h ****         T b = line_[(write_ptr_ + delay_ + 1) % max_size];
 345              		.loc 13 81 47 discriminator 2 view .LVU86
 346 009a 4FEA5A2A 		lsr	r10, r10, #9
  80:../../DaisySP//Source/Utility/delayline.h ****         T b = line_[(write_ptr_ + delay_ + 1) % max_size];
 347              		.loc 13 80 11 discriminator 2 view .LVU87
 348 009e 92ED036A 		vldr.32	s12, [r2, #12]
 349              	.LVL13:
  80:../../DaisySP//Source/Utility/delayline.h ****         T b = line_[(write_ptr_ + delay_ + 1) % max_size];
 350              		.loc 13 80 11 discriminator 2 view .LVU88
 351              	.LBE342:
 352              	.LBE351:
 353              	.LBB352:
 354              	.LBB353:
  72:../../DaisySP//Source/Utility/delayline.h ****         write_ptr_        = (write_ptr_ - 1 + max_size) % max_size;
 355              		.loc 13 72 27 discriminator 2 view .LVU89
 356 00a2 07EB8C02 		add	r2, r7, ip, lsl #2
 357              	.LBE353:
 358              	.LBE352:
 359              	.LBB359:
 360              	.LBB343:
  81:../../DaisySP//Source/Utility/delayline.h ****         return a + (b - a) * frac_;
 361              		.loc 13 81 47 discriminator 2 view .LVU90
ARM GAS  /var/folders/z2/7_lhr9dn53s9tj4s0rwtyswm0000gn/T//ccooqcSF.s 			page 28


 362 00a6 01FB1AEE 		mls	lr, r1, r10, lr
 363              	.LVL14:
  81:../../DaisySP//Source/Utility/delayline.h ****         return a + (b - a) * frac_;
 364              		.loc 13 81 47 discriminator 2 view .LVU91
 365              	.LBE343:
 366              	.LBE359:
 367              	.LBB360:
 368              	.LBB354:
  73:../../DaisySP//Source/Utility/delayline.h ****     }
 369              		.loc 13 73 45 discriminator 2 view .LVU92
 370 00aa 45F6BF5A 		movw	r10, #23999
 371              	.LBE354:
 372              	.LBE360:
 373              	.LBB361:
 374              	.LBB344:
  81:../../DaisySP//Source/Utility/delayline.h ****         return a + (b - a) * frac_;
 375              		.loc 13 81 11 discriminator 2 view .LVU93
 376 00ae 07EB8E0E 		add	lr, r7, lr, lsl #2
 377              	.LBE344:
 378              	.LBE361:
 379              	.LBB362:
 380              	.LBB355:
  73:../../DaisySP//Source/Utility/delayline.h ****     }
 381              		.loc 13 73 45 discriminator 2 view .LVU94
 382 00b2 E244     		add	r10, r10, ip
 383              	.LBE355:
 384              	.LBE362:
 385              	.LBB363:
 386              	.LBB345:
 387              		.loc 13 82 23 discriminator 2 view .LVU95
 388 00b4 DEED036A 		vldr.32	s13, [lr, #12]
 389              	.LBE345:
 390              	.LBE363:
 391              	.LBB364:
 392              	.LBB356:
  73:../../DaisySP//Source/Utility/delayline.h ****     }
 393              		.loc 13 73 57 discriminator 2 view .LVU96
 394 00b8 A3FB0AEC 		umull	lr, ip, r3, r10
 395              	.LVL15:
  73:../../DaisySP//Source/Utility/delayline.h ****     }
 396              		.loc 13 73 57 discriminator 2 view .LVU97
 397              	.LBE356:
 398              	.LBE364:
 399              	.LBB365:
 400              	.LBB346:
 401              		.loc 13 82 23 discriminator 2 view .LVU98
 402 00bc 76EEC66A 		vsub.f32	s13, s13, s12
 403              	.LBE346:
 404              	.LBE365:
 405              	.LBB366:
 406              	.LBB357:
  73:../../DaisySP//Source/Utility/delayline.h ****     }
 407              		.loc 13 73 57 discriminator 2 view .LVU99
 408 00c0 4FEA5C2C 		lsr	ip, ip, #9
 409 00c4 01FB1CAC 		mls	ip, r1, ip, r10
 410              	.LBE357:
 411              	.LBE366:
ARM GAS  /var/folders/z2/7_lhr9dn53s9tj4s0rwtyswm0000gn/T//ccooqcSF.s 			page 29


 412              	.LBB367:
 413              	.LBB347:
 414              		.loc 13 82 30 discriminator 2 view .LVU100
 415 00c8 A6EEA46A 		vfma.f32	s12, s13, s9
 416              	.LVL16:
 417              		.loc 13 82 30 discriminator 2 view .LVU101
 418              	.LBE347:
 419              	.LBE367:
 420              	.LBB368:
 421              	.LBB369:
  80:../../DaisySP//Source/Utility/delayline.h ****         T b = line_[(write_ptr_ + delay_ + 1) % max_size];
 422              		.loc 13 80 33 discriminator 2 view .LVU102
 423 00cc 6044     		add	r0, r0, ip
 424              	.LBE369:
 425              	.LBE368:
 426              	.LBB376:
 427              	.LBB358:
  73:../../DaisySP//Source/Utility/delayline.h ****     }
 428              		.loc 13 73 27 discriminator 2 view .LVU103
 429 00ce C7F804C0 		str	ip, [r7, #4]
 430              	.LBE358:
 431              	.LBE376:
 432              	.LBB377:
 433              	.LBB370:
  81:../../DaisySP//Source/Utility/delayline.h ****         return a + (b - a) * frac_;
 434              		.loc 13 81 42 discriminator 2 view .LVU104
 435 00d2 00F1010C 		add	ip, r0, #1
  80:../../DaisySP//Source/Utility/delayline.h ****         T b = line_[(write_ptr_ + delay_ + 1) % max_size];
 436              		.loc 13 80 43 discriminator 2 view .LVU105
 437 00d6 A3FB00AE 		umull	r10, lr, r3, r0
  81:../../DaisySP//Source/Utility/delayline.h ****         return a + (b - a) * frac_;
 438              		.loc 13 81 47 discriminator 2 view .LVU106
 439 00da A3FB0CA3 		umull	r10, r3, r3, ip
  80:../../DaisySP//Source/Utility/delayline.h ****         T b = line_[(write_ptr_ + delay_ + 1) % max_size];
 440              		.loc 13 80 43 discriminator 2 view .LVU107
 441 00de 4FEA5E2E 		lsr	lr, lr, #9
 442              	.LBE370:
 443              	.LBE377:
  34:daisytusen.cpp ****         out[0][i] += 0.25*delay.Read();
 444              		.loc 14 34 47 discriminator 2 view .LVU108
 445 00e2 B7EEC66A 		vcvt.f64.f32	d6, s12
 446              	.LBB378:
 447              	.LBB371:
  81:../../DaisySP//Source/Utility/delayline.h ****         return a + (b - a) * frac_;
 448              		.loc 13 81 47 discriminator 2 view .LVU109
 449 00e6 4FEA5323 		lsr	r3, r3, #9
  80:../../DaisySP//Source/Utility/delayline.h ****         T b = line_[(write_ptr_ + delay_ + 1) % max_size];
 450              		.loc 13 80 43 discriminator 2 view .LVU110
 451 00ea 01FB1E00 		mls	r0, r1, lr, r0
 452              	.LBE371:
 453              	.LBE378:
  34:daisytusen.cpp ****         out[0][i] += 0.25*delay.Read();
 454              		.loc 14 34 31 discriminator 2 view .LVU111
 455 00ee A6EE037B 		vfma.f64	d7, d6, d3
 456              	.LVL17:
 457              	.LBB379:
 458              	.LBI352:
ARM GAS  /var/folders/z2/7_lhr9dn53s9tj4s0rwtyswm0000gn/T//ccooqcSF.s 			page 30


  70:../../DaisySP//Source/Utility/delayline.h ****     {
 459              		.loc 13 70 17 is_stmt 1 discriminator 2 view .LVU112
  70:../../DaisySP//Source/Utility/delayline.h ****     {
 460              		.loc 13 70 17 is_stmt 0 discriminator 2 view .LVU113
 461              	.LBE379:
 462              		.loc 14 35 9 is_stmt 1 discriminator 2 view .LVU114
 463              	.LBB380:
 464              	.LBI368:
  78:../../DaisySP//Source/Utility/delayline.h ****     {
 465              		.loc 13 78 20 discriminator 2 view .LVU115
 466              	.LBB372:
  81:../../DaisySP//Source/Utility/delayline.h ****         return a + (b - a) * frac_;
 467              		.loc 13 81 47 is_stmt 0 discriminator 2 view .LVU116
 468 00f2 01FB13CC 		mls	ip, r1, r3, ip
  80:../../DaisySP//Source/Utility/delayline.h ****         T b = line_[(write_ptr_ + delay_ + 1) % max_size];
 469              		.loc 13 80 11 discriminator 2 view .LVU117
 470 00f6 07EB8000 		add	r0, r7, r0, lsl #2
  81:../../DaisySP//Source/Utility/delayline.h ****         return a + (b - a) * frac_;
 471              		.loc 13 81 11 discriminator 2 view .LVU118
 472 00fa 07EB8C0C 		add	ip, r7, ip, lsl #2
 473              	.LBE372:
 474              	.LBE380:
  34:daisytusen.cpp ****         out[0][i] += 0.25*delay.Read();
 475              		.loc 14 34 20 discriminator 2 view .LVU119
 476 00fe B7EEC77B 		vcvt.f32.f64	s14, d7
 477 0102 82ED037A 		vstr.32	s14, [r2, #12]
 478              	.LBB381:
 479              	.LBB373:
  80:../../DaisySP//Source/Utility/delayline.h ****         T b = line_[(write_ptr_ + delay_ + 1) % max_size];
 480              		.loc 13 80 11 discriminator 2 view .LVU120
 481 0106 90ED036A 		vldr.32	s12, [r0, #12]
 482              	.LVL18:
 483              		.loc 13 82 23 discriminator 2 view .LVU121
 484 010a DCED036A 		vldr.32	s13, [ip, #12]
 485              	.LBE373:
 486              	.LBE381:
 487              		.loc 14 35 19 discriminator 2 view .LVU122
 488 010e 99ED007A 		vldr.32	s14, [r9]
 489              	.LBB382:
 490              	.LBB374:
 491              		.loc 13 82 23 discriminator 2 view .LVU123
 492 0112 76EEC66A 		vsub.f32	s13, s13, s12
 493              	.LBE374:
 494              	.LBE382:
 495              		.loc 14 35 19 discriminator 2 view .LVU124
 496 0116 B7EEC77A 		vcvt.f64.f32	d7, s14
 497              	.LBB383:
 498              	.LBB375:
 499              		.loc 13 82 30 discriminator 2 view .LVU125
 500 011a A6EEA46A 		vfma.f32	s12, s13, s9
 501              	.LVL19:
 502              		.loc 13 82 30 discriminator 2 view .LVU126
 503              	.LBE375:
 504              	.LBE383:
 505              		.loc 14 35 37 discriminator 2 view .LVU127
 506 011e B7EEC66A 		vcvt.f64.f32	d6, s12
 507              		.loc 14 35 19 discriminator 2 view .LVU128
ARM GAS  /var/folders/z2/7_lhr9dn53s9tj4s0rwtyswm0000gn/T//ccooqcSF.s 			page 31


 508 0122 A6EE057B 		vfma.f64	d7, d6, d5
 509 0126 B7EEC77B 		vcvt.f32.f64	s14, d7
 510 012a 89ED007A 		vstr.32	s14, [r9]
  28:daisytusen.cpp ****     {
 511              		.loc 14 28 5 is_stmt 1 discriminator 2 view .LVU129
 512              	.LVL20:
  28:daisytusen.cpp ****     {
 513              		.loc 14 28 26 discriminator 2 view .LVU130
 514 012e 7FF472AF 		bne	.L8
 515              	.LBE384:
  36:daisytusen.cpp ****     }
  37:daisytusen.cpp **** }
 516              		.loc 14 37 1 is_stmt 0 view .LVU131
 517 0132 BDE8F88F 		pop	{r3, r4, r5, r6, r7, r8, r9, r10, fp, pc}
 518              	.LVL21:
 519              	.L10:
 520              		.cfi_def_cfa_offset 0
 521              		.cfi_restore 3
 522              		.cfi_restore 4
 523              		.cfi_restore 5
 524              		.cfi_restore 6
 525              		.cfi_restore 7
 526              		.cfi_restore 8
 527              		.cfi_restore 9
 528              		.cfi_restore 10
 529              		.cfi_restore 11
 530              		.cfi_restore 14
 531              		.loc 14 37 1 view .LVU132
 532 0136 7047     		bx	lr
 533              	.L14:
 534              		.align	2
 535              	.L13:
 536 0138 00000000 		.word	delay
 537 013c 00000000 		.word	.LANCHOR0
 538 0140 00000000 		.word	.LANCHOR1
 539 0144 F1197605 		.word	91625969
 540              		.cfi_endproc
 541              	.LFE4747:
 543              		.section	.text._Z14UpdateControlsv,"ax",%progbits
 544              		.align	1
 545              		.p2align 2,,3
 546              		.global	_Z14UpdateControlsv
 547              		.syntax unified
 548              		.thumb
 549              		.thumb_func
 551              	_Z14UpdateControlsv:
 552              	.LFB4748:
  38:daisytusen.cpp **** 
  39:daisytusen.cpp **** 
  40:daisytusen.cpp **** 
  41:daisytusen.cpp **** 
  42:daisytusen.cpp **** void UpdateControls()
  43:daisytusen.cpp **** {
 553              		.loc 14 43 1 is_stmt 1 view -0
 554              		.cfi_startproc
 555              		@ args = 0, pretend = 0, frame = 0
 556              		@ frame_needed = 0, uses_anonymous_args = 0
ARM GAS  /var/folders/z2/7_lhr9dn53s9tj4s0rwtyswm0000gn/T//ccooqcSF.s 			page 32


  44:daisytusen.cpp ****     hw.ProcessAllControls();
 557              		.loc 14 44 5 view .LVU134
 558              	.LVL22:
 559              	.LBB385:
 560              	.LBI385:
  32:../../tusenskona//src/tusenskona.h **** 
  33:../../tusenskona//src/tusenskona.h ****     /** Init related stuff. */
  34:../../tusenskona//src/tusenskona.h ****     void Init(bool boost = false);
  35:../../tusenskona//src/tusenskona.h **** 
  36:../../tusenskona//src/tusenskona.h ****     /** Wait for a bit
  37:../../tusenskona//src/tusenskona.h ****     \param del Time to wait in ms.
  38:../../tusenskona//src/tusenskona.h ****     */
  39:../../tusenskona//src/tusenskona.h ****     void DelayMs(size_t del);
  40:../../tusenskona//src/tusenskona.h **** 
  41:../../tusenskona//src/tusenskona.h ****     /** Starts the callback
  42:../../tusenskona//src/tusenskona.h ****     \param cb Interleaved callback function
  43:../../tusenskona//src/tusenskona.h ****     */
  44:../../tusenskona//src/tusenskona.h ****     void StartAudio(AudioHandle::InterleavingAudioCallback cb);
  45:../../tusenskona//src/tusenskona.h **** 
  46:../../tusenskona//src/tusenskona.h ****     /** Starts the callback
  47:../../tusenskona//src/tusenskona.h ****     \param cb multichannel callback function
  48:../../tusenskona//src/tusenskona.h ****     */
  49:../../tusenskona//src/tusenskona.h ****     void StartAudio(AudioHandle::AudioCallback cb);
  50:../../tusenskona//src/tusenskona.h **** 
  51:../../tusenskona//src/tusenskona.h ****     /**
  52:../../tusenskona//src/tusenskona.h ****        Switch callback functions
  53:../../tusenskona//src/tusenskona.h ****        \param cb New interleaved callback function.
  54:../../tusenskona//src/tusenskona.h ****     */
  55:../../tusenskona//src/tusenskona.h ****     void ChangeAudioCallback(AudioHandle::InterleavingAudioCallback cb);
  56:../../tusenskona//src/tusenskona.h **** 
  57:../../tusenskona//src/tusenskona.h ****     /**
  58:../../tusenskona//src/tusenskona.h ****        Switch callback functions
  59:../../tusenskona//src/tusenskona.h ****        \param cb New multichannel callback function.
  60:../../tusenskona//src/tusenskona.h ****     */
  61:../../tusenskona//src/tusenskona.h ****     void ChangeAudioCallback(AudioHandle::AudioCallback cb);
  62:../../tusenskona//src/tusenskona.h **** 
  63:../../tusenskona//src/tusenskona.h ****     /** Stops the audio if it is running. */
  64:../../tusenskona//src/tusenskona.h ****     void StopAudio();
  65:../../tusenskona//src/tusenskona.h **** 
  66:../../tusenskona//src/tusenskona.h ****     /** Updates the Audio Sample Rate, and reinitializes.
  67:../../tusenskona//src/tusenskona.h ****      ** Audio must be stopped for this to work.
  68:../../tusenskona//src/tusenskona.h ****      */
  69:../../tusenskona//src/tusenskona.h ****     void SetAudioSampleRate(SaiHandle::Config::SampleRate samplerate);
  70:../../tusenskona//src/tusenskona.h **** 
  71:../../tusenskona//src/tusenskona.h ****     /** Returns the audio sample rate in Hz as a floating point number.
  72:../../tusenskona//src/tusenskona.h ****      */
  73:../../tusenskona//src/tusenskona.h ****     float AudioSampleRate();
  74:../../tusenskona//src/tusenskona.h **** 
  75:../../tusenskona//src/tusenskona.h ****     /** Sets the number of samples processed per channel by the audio callback.
  76:../../tusenskona//src/tusenskona.h ****      */
  77:../../tusenskona//src/tusenskona.h ****     void SetAudioBlockSize(size_t blocksize);
  78:../../tusenskona//src/tusenskona.h **** 
  79:../../tusenskona//src/tusenskona.h ****     /** Returns the number of samples per channel in a block of audio. */
  80:../../tusenskona//src/tusenskona.h ****     size_t AudioBlockSize();
  81:../../tusenskona//src/tusenskona.h **** 
  82:../../tusenskona//src/tusenskona.h ****     /** Returns the rate in Hz that the Audio callback is called */
  83:../../tusenskona//src/tusenskona.h ****     float AudioCallbackRate();
ARM GAS  /var/folders/z2/7_lhr9dn53s9tj4s0rwtyswm0000gn/T//ccooqcSF.s 			page 33


  84:../../tusenskona//src/tusenskona.h **** 
  85:../../tusenskona//src/tusenskona.h ****     /**
  86:../../tusenskona//src/tusenskona.h ****        Start analog to digital conversion.
  87:../../tusenskona//src/tusenskona.h ****      */
  88:../../tusenskona//src/tusenskona.h ****     void StartAdc();
  89:../../tusenskona//src/tusenskona.h **** 
  90:../../tusenskona//src/tusenskona.h ****     /** Stops Transfering data from the ADC */
  91:../../tusenskona//src/tusenskona.h ****     void StopAdc();
  92:../../tusenskona//src/tusenskona.h **** 
  93:../../tusenskona//src/tusenskona.h ****     /** Call at same rate as analog reads for smooth reading.*/
  94:../../tusenskona//src/tusenskona.h ****     void ProcessAnalogControls();
  95:../../tusenskona//src/tusenskona.h **** 
  96:../../tusenskona//src/tusenskona.h ****     /** Process Analog and Digital Controls */
  97:../../tusenskona//src/tusenskona.h ****     inline void ProcessAllControls()
 561              		.loc 1 97 17 view .LVU135
 562              	.LBB386:
  98:../../tusenskona//src/tusenskona.h ****     {
  99:../../tusenskona//src/tusenskona.h ****         ProcessAnalogControls();
 563              		.loc 1 99 9 view .LVU136
 564              	.LBE386:
 565              	.LBE385:
  43:daisytusen.cpp ****     hw.ProcessAllControls();
 566              		.loc 14 43 1 is_stmt 0 view .LVU137
 567 0000 F8B5     		push	{r3, r4, r5, r6, r7, lr}
 568              		.cfi_def_cfa_offset 24
 569              		.cfi_offset 3, -24
 570              		.cfi_offset 4, -20
 571              		.cfi_offset 5, -16
 572              		.cfi_offset 6, -12
 573              		.cfi_offset 7, -8
 574              		.cfi_offset 14, -4
 575              	.LBB390:
 576              	.LBB387:
 577              		.loc 1 99 30 view .LVU138
 578 0002 4C4C     		ldr	r4, .L31
 579              	.LBE387:
 580              	.LBE390:
 581              	.LBB391:
 582              	.LBB392:
  25:../../DaisySP//Source/Synthesis/oscillator.h ****     /** Choices for output waveforms, POLYBLEP are appropriately labeled. Others are naive forms.
  26:../../DaisySP//Source/Synthesis/oscillator.h ****     */
  27:../../DaisySP//Source/Synthesis/oscillator.h ****     enum
  28:../../DaisySP//Source/Synthesis/oscillator.h ****     {
  29:../../DaisySP//Source/Synthesis/oscillator.h ****         WAVE_SIN,
  30:../../DaisySP//Source/Synthesis/oscillator.h ****         WAVE_TRI,
  31:../../DaisySP//Source/Synthesis/oscillator.h ****         WAVE_SAW,
  32:../../DaisySP//Source/Synthesis/oscillator.h ****         WAVE_RAMP,
  33:../../DaisySP//Source/Synthesis/oscillator.h ****         WAVE_SQUARE,
  34:../../DaisySP//Source/Synthesis/oscillator.h ****         WAVE_POLYBLEP_TRI,
  35:../../DaisySP//Source/Synthesis/oscillator.h ****         WAVE_POLYBLEP_SAW,
  36:../../DaisySP//Source/Synthesis/oscillator.h ****         WAVE_POLYBLEP_SQUARE,
  37:../../DaisySP//Source/Synthesis/oscillator.h ****         WAVE_LAST,
  38:../../DaisySP//Source/Synthesis/oscillator.h ****     };
  39:../../DaisySP//Source/Synthesis/oscillator.h **** 
  40:../../DaisySP//Source/Synthesis/oscillator.h **** 
  41:../../DaisySP//Source/Synthesis/oscillator.h ****     /** Initializes the Oscillator
  42:../../DaisySP//Source/Synthesis/oscillator.h **** 
ARM GAS  /var/folders/z2/7_lhr9dn53s9tj4s0rwtyswm0000gn/T//ccooqcSF.s 			page 34


  43:../../DaisySP//Source/Synthesis/oscillator.h ****         \param sample_rate - sample rate of the audio engine being run, and the frequency that the 
  44:../../DaisySP//Source/Synthesis/oscillator.h **** 
  45:../../DaisySP//Source/Synthesis/oscillator.h ****         Defaults:
  46:../../DaisySP//Source/Synthesis/oscillator.h ****         - freq_ = 100 Hz
  47:../../DaisySP//Source/Synthesis/oscillator.h ****         - amp_ = 0.5
  48:../../DaisySP//Source/Synthesis/oscillator.h ****         - waveform_ = sine wave.
  49:../../DaisySP//Source/Synthesis/oscillator.h ****     */
  50:../../DaisySP//Source/Synthesis/oscillator.h ****     void Init(float sample_rate)
  51:../../DaisySP//Source/Synthesis/oscillator.h ****     {
  52:../../DaisySP//Source/Synthesis/oscillator.h ****         sr_        = sample_rate;
  53:../../DaisySP//Source/Synthesis/oscillator.h ****         sr_recip_  = 1.0f / sample_rate;
  54:../../DaisySP//Source/Synthesis/oscillator.h ****         freq_      = 100.0f;
  55:../../DaisySP//Source/Synthesis/oscillator.h ****         amp_       = 0.5f;
  56:../../DaisySP//Source/Synthesis/oscillator.h ****         pw_        = 0.5f;
  57:../../DaisySP//Source/Synthesis/oscillator.h ****         phase_     = 0.0f;
  58:../../DaisySP//Source/Synthesis/oscillator.h ****         phase_inc_ = CalcPhaseInc(freq_);
  59:../../DaisySP//Source/Synthesis/oscillator.h ****         waveform_  = WAVE_SIN;
  60:../../DaisySP//Source/Synthesis/oscillator.h ****         eoc_       = true;
  61:../../DaisySP//Source/Synthesis/oscillator.h ****         eor_       = true;
  62:../../DaisySP//Source/Synthesis/oscillator.h ****     }
  63:../../DaisySP//Source/Synthesis/oscillator.h **** 
  64:../../DaisySP//Source/Synthesis/oscillator.h **** 
  65:../../DaisySP//Source/Synthesis/oscillator.h ****     /** Changes the frequency of the Oscillator, and recalculates phase increment.
  66:../../DaisySP//Source/Synthesis/oscillator.h ****     */
  67:../../DaisySP//Source/Synthesis/oscillator.h ****     inline void SetFreq(const float f)
  68:../../DaisySP//Source/Synthesis/oscillator.h ****     {
  69:../../DaisySP//Source/Synthesis/oscillator.h ****         freq_      = f;
 583              		.loc 12 69 20 view .LVU139
 584 0004 4C4D     		ldr	r5, .L31+4
 585              	.LBE392:
 586              	.LBE391:
 587              	.LBB396:
 588              	.LBB388:
 589              		.loc 1 99 30 view .LVU140
 590 0006 2046     		mov	r0, r4
 591              	.LBE388:
 592              	.LBE396:
  45:daisytusen.cpp ****     
  46:daisytusen.cpp ****     //knobs
  47:daisytusen.cpp ****     float ctrl = hw.GetKnobValue((Tusenskona::Knob)0);
  48:daisytusen.cpp ****     float ctrl1 = hw.GetKnobValue((Tusenskona::Knob)1);
  49:daisytusen.cpp ****     float ctrl2 = hw.GetKnobValue((Tusenskona::Knob)2);
  50:daisytusen.cpp ****     float ctrl3 = hw.GetKnobValue((Tusenskona::Knob)3);
  51:daisytusen.cpp **** 
  52:daisytusen.cpp ****     freq = powf(2.f,6.0f*ctrl) * 40.f; 
 593              		.loc 14 52 10 view .LVU141
 594 0008 4C4F     		ldr	r7, .L31+8
 595              	.LBB397:
 596              	.LBB398:
 597              		.loc 12 69 20 view .LVU142
 598 000a 4D4E     		ldr	r6, .L31+12
 599              	.LBE398:
 600              	.LBE397:
  43:daisytusen.cpp ****     hw.ProcessAllControls();
 601              		.loc 14 43 1 view .LVU143
 602 000c 2DED068B 		vpush.64	{d8, d9, d10}
 603              		.cfi_def_cfa_offset 48
ARM GAS  /var/folders/z2/7_lhr9dn53s9tj4s0rwtyswm0000gn/T//ccooqcSF.s 			page 35


 604              		.cfi_offset 80, -48
 605              		.cfi_offset 81, -44
 606              		.cfi_offset 82, -40
 607              		.cfi_offset 83, -36
 608              		.cfi_offset 84, -32
 609              		.cfi_offset 85, -28
 610              	.LBB402:
 611              	.LBB389:
 612              		.loc 1 99 30 view .LVU144
 613 0010 FFF7FEFF 		bl	_ZN5daisy10Tusenskona21ProcessAnalogControlsEv
 614              	.LVL23:
 100:../../tusenskona//src/tusenskona.h ****         ProcessDigitalControls();
 615              		.loc 1 100 9 is_stmt 1 view .LVU145
 616              		.loc 1 100 31 is_stmt 0 view .LVU146
 617 0014 2046     		mov	r0, r4
 618 0016 FFF7FEFF 		bl	_ZN5daisy10Tusenskona22ProcessDigitalControlsEv
 619              	.LVL24:
 620              		.loc 1 100 31 view .LVU147
 621              	.LBE389:
 622              	.LBE402:
  47:daisytusen.cpp ****     float ctrl1 = hw.GetKnobValue((Tusenskona::Knob)1);
 623              		.loc 14 47 5 is_stmt 1 view .LVU148
  47:daisytusen.cpp ****     float ctrl1 = hw.GetKnobValue((Tusenskona::Knob)1);
 624              		.loc 14 47 33 is_stmt 0 view .LVU149
 625 001a 0021     		movs	r1, #0
 626 001c 2046     		mov	r0, r4
 627              		.loc 14 52 16 view .LVU150
 628 001e B1EE08AA 		vmov.f32	s20, #6.0e+0
  47:daisytusen.cpp ****     float ctrl1 = hw.GetKnobValue((Tusenskona::Knob)1);
 629              		.loc 14 47 33 view .LVU151
 630 0022 FFF7FEFF 		bl	_ZN5daisy10Tusenskona12GetKnobValueENS0_4KnobE
 631              	.LVL25:
  48:daisytusen.cpp ****     float ctrl2 = hw.GetKnobValue((Tusenskona::Knob)2);
 632              		.loc 14 48 34 view .LVU152
 633 0026 0121     		movs	r1, #1
  47:daisytusen.cpp ****     float ctrl1 = hw.GetKnobValue((Tusenskona::Knob)1);
 634              		.loc 14 47 33 view .LVU153
 635 0028 B0EE409A 		vmov.f32	s18, s0
 636              	.LVL26:
  48:daisytusen.cpp ****     float ctrl2 = hw.GetKnobValue((Tusenskona::Knob)2);
 637              		.loc 14 48 5 is_stmt 1 view .LVU154
  48:daisytusen.cpp ****     float ctrl2 = hw.GetKnobValue((Tusenskona::Knob)2);
 638              		.loc 14 48 34 is_stmt 0 view .LVU155
 639 002c 2046     		mov	r0, r4
 640 002e FFF7FEFF 		bl	_ZN5daisy10Tusenskona12GetKnobValueENS0_4KnobE
 641              	.LVL27:
  49:daisytusen.cpp ****     float ctrl3 = hw.GetKnobValue((Tusenskona::Knob)3);
 642              		.loc 14 49 34 view .LVU156
 643 0032 0221     		movs	r1, #2
 644 0034 2046     		mov	r0, r4
  48:daisytusen.cpp ****     float ctrl2 = hw.GetKnobValue((Tusenskona::Knob)2);
 645              		.loc 14 48 34 view .LVU157
 646 0036 F0EE408A 		vmov.f32	s17, s0
 647              	.LVL28:
  49:daisytusen.cpp ****     float ctrl3 = hw.GetKnobValue((Tusenskona::Knob)3);
 648              		.loc 14 49 5 is_stmt 1 view .LVU158
 649              		.loc 14 52 32 is_stmt 0 view .LVU159
ARM GAS  /var/folders/z2/7_lhr9dn53s9tj4s0rwtyswm0000gn/T//ccooqcSF.s 			page 36


 650 003a DFED429A 		vldr.32	s19, .L31+16
  49:daisytusen.cpp ****     float ctrl3 = hw.GetKnobValue((Tusenskona::Knob)3);
 651              		.loc 14 49 34 view .LVU160
 652 003e FFF7FEFF 		bl	_ZN5daisy10Tusenskona12GetKnobValueENS0_4KnobE
 653              	.LVL29:
  50:daisytusen.cpp **** 
 654              		.loc 14 50 34 view .LVU161
 655 0042 0321     		movs	r1, #3
 656 0044 2046     		mov	r0, r4
  49:daisytusen.cpp ****     float ctrl3 = hw.GetKnobValue((Tusenskona::Knob)3);
 657              		.loc 14 49 34 view .LVU162
 658 0046 B0EE408A 		vmov.f32	s16, s0
 659              	.LVL30:
  50:daisytusen.cpp **** 
 660              		.loc 14 50 5 is_stmt 1 view .LVU163
  50:daisytusen.cpp **** 
 661              		.loc 14 50 34 is_stmt 0 view .LVU164
 662 004a FFF7FEFF 		bl	_ZN5daisy10Tusenskona12GetKnobValueENS0_4KnobE
 663              	.LVL31:
 664              		.loc 14 52 5 is_stmt 1 view .LVU165
 665              		.loc 14 52 16 is_stmt 0 view .LVU166
 666 004e 69EE0A0A 		vmul.f32	s1, s18, s20
 667 0052 B0EE000A 		vmov.f32	s0, #2.0e+0
 668 0056 FFF7FEFF 		bl	powf
 669              	.LVL32:
 670              		.loc 14 52 32 view .LVU167
 671 005a 20EE290A 		vmul.f32	s0, s0, s19
 672              	.LBB403:
 673              	.LBB393:
  70:../../DaisySP//Source/Synthesis/oscillator.h ****         phase_inc_ = CalcPhaseInc(f);
 674              		.loc 12 70 34 view .LVU168
 675 005e 2846     		mov	r0, r5
 676              	.LBE393:
 677              	.LBE403:
 678              		.loc 14 52 10 view .LVU169
 679 0060 87ED000A 		vstr.32	s0, [r7]
  53:daisytusen.cpp ****     sine.SetFreq(freq);
 680              		.loc 14 53 5 is_stmt 1 view .LVU170
 681              	.LVL33:
 682              	.LBB404:
 683              	.LBI391:
  67:../../DaisySP//Source/Synthesis/oscillator.h ****     {
 684              		.loc 12 67 17 view .LVU171
 685              	.LBB394:
  69:../../DaisySP//Source/Synthesis/oscillator.h ****         phase_inc_ = CalcPhaseInc(f);
 686              		.loc 12 69 9 view .LVU172
  69:../../DaisySP//Source/Synthesis/oscillator.h ****         phase_inc_ = CalcPhaseInc(f);
 687              		.loc 12 69 20 is_stmt 0 view .LVU173
 688 0064 85ED020A 		vstr.32	s0, [r5, #8]
 689              		.loc 12 70 9 is_stmt 1 view .LVU174
 690              		.loc 12 70 34 is_stmt 0 view .LVU175
 691 0068 FFF7FEFF 		bl	_ZN7daisysp10Oscillator12CalcPhaseIncEf
 692              	.LVL34:
 693              		.loc 12 70 34 view .LVU176
 694 006c F0EE407A 		vmov.f32	s15, s0
 695              	.LBE394:
 696              	.LBE404:
ARM GAS  /var/folders/z2/7_lhr9dn53s9tj4s0rwtyswm0000gn/T//ccooqcSF.s 			page 37


  54:daisytusen.cpp ****     freq = powf(2.f,6.0f*ctrl1) * 40.f; 
 697              		.loc 14 54 16 view .LVU177
 698 0070 68EE8A0A 		vmul.f32	s1, s17, s20
 699 0074 B0EE000A 		vmov.f32	s0, #2.0e+0
 700              	.LBB405:
 701              	.LBB395:
 702              		.loc 12 70 20 view .LVU178
 703 0078 C5ED077A 		vstr.32	s15, [r5, #28]
 704              	.LVL35:
 705              		.loc 12 70 20 view .LVU179
 706              	.LBE395:
 707              	.LBE405:
 708              		.loc 14 54 5 is_stmt 1 view .LVU180
 709              		.loc 14 54 16 is_stmt 0 view .LVU181
 710 007c FFF7FEFF 		bl	powf
 711              	.LVL36:
 712              		.loc 14 54 33 view .LVU182
 713 0080 20EE290A 		vmul.f32	s0, s0, s19
 714              	.LBB406:
 715              	.LBB399:
 716              		.loc 12 70 34 view .LVU183
 717 0084 3046     		mov	r0, r6
 718              	.LBE399:
 719              	.LBE406:
 720              		.loc 14 54 10 view .LVU184
 721 0086 87ED000A 		vstr.32	s0, [r7]
  55:daisytusen.cpp ****     saw.SetFreq(freq);
 722              		.loc 14 55 5 is_stmt 1 view .LVU185
 723              	.LVL37:
 724              	.LBB407:
 725              	.LBI397:
  67:../../DaisySP//Source/Synthesis/oscillator.h ****     {
 726              		.loc 12 67 17 view .LVU186
 727              	.LBB400:
  69:../../DaisySP//Source/Synthesis/oscillator.h ****         phase_inc_ = CalcPhaseInc(f);
 728              		.loc 12 69 9 view .LVU187
  69:../../DaisySP//Source/Synthesis/oscillator.h ****         phase_inc_ = CalcPhaseInc(f);
 729              		.loc 12 69 20 is_stmt 0 view .LVU188
 730 008a 86ED020A 		vstr.32	s0, [r6, #8]
 731              		.loc 12 70 9 is_stmt 1 view .LVU189
 732              		.loc 12 70 34 is_stmt 0 view .LVU190
 733 008e FFF7FEFF 		bl	_ZN7daisysp10Oscillator12CalcPhaseIncEf
 734              	.LVL38:
 735              		.loc 12 70 34 view .LVU191
 736              	.LBE400:
 737              	.LBE407:
 738              	.LBB408:
 739              	.LBB409:
  22:../../libDaisy//src/hid/encoder.h **** 
  23:../../libDaisy//src/hid/encoder.h ****     /** Initializes the encoder with the specified hardware pins.
  24:../../libDaisy//src/hid/encoder.h ****      * Update rate is to be deprecated in a future release
  25:../../libDaisy//src/hid/encoder.h ****      */
  26:../../libDaisy//src/hid/encoder.h ****     void Init(dsy_gpio_pin a,
  27:../../libDaisy//src/hid/encoder.h ****               dsy_gpio_pin b,
  28:../../libDaisy//src/hid/encoder.h ****               dsy_gpio_pin click,
  29:../../libDaisy//src/hid/encoder.h ****               float        update_rate = 0.f);
  30:../../libDaisy//src/hid/encoder.h ****     /** Called at update_rate to debounce and handle timing for the switch.
ARM GAS  /var/folders/z2/7_lhr9dn53s9tj4s0rwtyswm0000gn/T//ccooqcSF.s 			page 38


  31:../../libDaisy//src/hid/encoder.h ****      * In order for events not to be missed, its important that the Edge/Pressed checks be made at 
  32:../../libDaisy//src/hid/encoder.h ****      */
  33:../../libDaisy//src/hid/encoder.h ****     void Debounce();
  34:../../libDaisy//src/hid/encoder.h **** 
  35:../../libDaisy//src/hid/encoder.h ****     /** Returns +1 if the encoder was turned clockwise, -1 if it was turned counter-clockwise, or 0
  36:../../libDaisy//src/hid/encoder.h ****     inline int32_t Increment() const { return updated_ ? inc_ : 0; }
 740              		.loc 6 36 56 view .LVU192
 741 0092 94F84410 		ldrb	r1, [r4, #68]	@ zero_extendqisi2
 742              	.LBE409:
 743              	.LBE408:
 744              	.LBB411:
 745              	.LBB401:
 746              		.loc 12 70 20 view .LVU193
 747 0096 86ED070A 		vstr.32	s0, [r6, #28]
 748              	.LVL39:
 749              		.loc 12 70 20 view .LVU194
 750              	.LBE401:
 751              	.LBE411:
  56:daisytusen.cpp **** 
  57:daisytusen.cpp ****     int enc = hw.encoder.Increment();
 752              		.loc 14 57 5 is_stmt 1 view .LVU195
 753              	.LBB412:
 754              	.LBI408:
 755              		.loc 6 36 20 view .LVU196
 756              	.LBB410:
 757              		.loc 6 36 40 view .LVU197
 758              		.loc 6 36 56 is_stmt 0 view .LVU198
 759 009a 01B1     		cbz	r1, .L16
 760 009c 616E     		ldr	r1, [r4, #100]
 761              	.L16:
 762              	.LVL40:
 763              		.loc 6 36 56 view .LVU199
 764              	.LBE410:
 765              	.LBE412:
  58:daisytusen.cpp ****     bool sw1 = hw.encoder.Pressed();
 766              		.loc 14 58 5 is_stmt 1 view .LVU200
 767              	.LBB413:
 768              	.LBI413:
  37:../../libDaisy//src/hid/encoder.h **** 
  38:../../libDaisy//src/hid/encoder.h ****     /** Returns true if the encoder was just pressed. */
  39:../../libDaisy//src/hid/encoder.h ****     inline bool RisingEdge() const { return sw_.RisingEdge(); }
  40:../../libDaisy//src/hid/encoder.h **** 
  41:../../libDaisy//src/hid/encoder.h ****     /** Returns true if the encoder was just released. */
  42:../../libDaisy//src/hid/encoder.h ****     inline bool FallingEdge() const { return sw_.FallingEdge(); }
  43:../../libDaisy//src/hid/encoder.h **** 
  44:../../libDaisy//src/hid/encoder.h ****     /** Returns true while the encoder is held down.*/
  45:../../libDaisy//src/hid/encoder.h ****     inline bool Pressed() const { return sw_.Pressed(); }
 769              		.loc 6 45 17 view .LVU201
 770              	.LBE413:
 771              		.loc 6 45 35 view .LVU202
 772              	.LBB424:
 773              	.LBB414:
 774              	.LBI414:
  43:../../libDaisy//src/hid/switch.h **** 
  44:../../libDaisy//src/hid/switch.h ****     /** 
  45:../../libDaisy//src/hid/switch.h ****     Initializes the switch object with a given port/pin combo.
  46:../../libDaisy//src/hid/switch.h ****     \param pin port/pin object to tell the switch which hardware pin to use.
ARM GAS  /var/folders/z2/7_lhr9dn53s9tj4s0rwtyswm0000gn/T//ccooqcSF.s 			page 39


  47:../../libDaisy//src/hid/switch.h ****     \param update_rate Does nothing. Backwards compatibility until next breaking update.
  48:../../libDaisy//src/hid/switch.h ****     \param t switch type -- Default: TYPE_MOMENTARY
  49:../../libDaisy//src/hid/switch.h ****     \param pol switch polarity -- Default: POLARITY_INVERTED
  50:../../libDaisy//src/hid/switch.h ****     \param pu switch pull up/down -- Default: PULL_UP
  51:../../libDaisy//src/hid/switch.h ****     */
  52:../../libDaisy//src/hid/switch.h ****     void
  53:../../libDaisy//src/hid/switch.h ****     Init(dsy_gpio_pin pin, float update_rate, Type t, Polarity pol, Pull pu);
  54:../../libDaisy//src/hid/switch.h **** 
  55:../../libDaisy//src/hid/switch.h ****     /**
  56:../../libDaisy//src/hid/switch.h ****        Simplified Init.
  57:../../libDaisy//src/hid/switch.h ****        \param pin port/pin object to tell the switch which hardware pin to use.
  58:../../libDaisy//src/hid/switch.h ****        \param update_rate Left for backwards compatibility until next breaking change.
  59:../../libDaisy//src/hid/switch.h ****     */
  60:../../libDaisy//src/hid/switch.h ****     void Init(dsy_gpio_pin pin, float update_rate = 0.f);
  61:../../libDaisy//src/hid/switch.h **** 
  62:../../libDaisy//src/hid/switch.h ****     /** 
  63:../../libDaisy//src/hid/switch.h ****     Called at update_rate to debounce and handle timing for the switch.
  64:../../libDaisy//src/hid/switch.h ****     In order for events not to be missed, its important that the Edge/Pressed checks
  65:../../libDaisy//src/hid/switch.h ****     be made at the same rate as the debounce function is being called.
  66:../../libDaisy//src/hid/switch.h ****     */
  67:../../libDaisy//src/hid/switch.h ****     void Debounce();
  68:../../libDaisy//src/hid/switch.h **** 
  69:../../libDaisy//src/hid/switch.h ****     /** \return true if a button was just pressed. */
  70:../../libDaisy//src/hid/switch.h ****     inline bool RisingEdge() const { return updated_ ? state_ == 0x7f : false; }
  71:../../libDaisy//src/hid/switch.h **** 
  72:../../libDaisy//src/hid/switch.h ****     /** \return true if the button was just released */
  73:../../libDaisy//src/hid/switch.h ****     inline bool FallingEdge() const
  74:../../libDaisy//src/hid/switch.h ****     {
  75:../../libDaisy//src/hid/switch.h ****         return updated_ ? state_ == 0x80 : false;
  76:../../libDaisy//src/hid/switch.h ****     }
  77:../../libDaisy//src/hid/switch.h **** 
  78:../../libDaisy//src/hid/switch.h ****     /** \return true if the button is held down (or if the toggle is on) */
  79:../../libDaisy//src/hid/switch.h ****     inline bool Pressed() const { return state_ == 0xff; }
 775              		.loc 4 79 17 view .LVU203
 776              	.LBB415:
 777              		.loc 4 79 35 view .LVU204
 778              	.LBE415:
 779              	.LBE414:
 780              	.LBE424:
  59:daisytusen.cpp ****     bool sw2 = hw.button1.Pressed();
  60:daisytusen.cpp ****     bool sw3 = hw.button2.Pressed();
  61:daisytusen.cpp ****     count = std::max(std::min(count + enc,3),0);
 781              		.loc 14 61 37 is_stmt 0 view .LVU205
 782 009e 2A48     		ldr	r0, .L31+20
 783              	.LBB425:
 784              	.LBB420:
 785              	.LBB416:
 786              		.loc 4 79 52 view .LVU206
 787 00a0 94F85220 		ldrb	r2, [r4, #82]	@ zero_extendqisi2
 788              	.LBE416:
 789              	.LBE420:
 790              	.LBE425:
 791              	.LBB426:
 792              	.LBB427:
 793 00a4 94F802C1 		ldrb	ip, [r4, #258]	@ zero_extendqisi2
 794              	.LBE427:
 795              	.LBE426:
ARM GAS  /var/folders/z2/7_lhr9dn53s9tj4s0rwtyswm0000gn/T//ccooqcSF.s 			page 40


 796              	.LBB432:
 797              	.LBB433:
 798 00a8 94F81231 		ldrb	r3, [r4, #274]	@ zero_extendqisi2
 799              	.LBE433:
 800              	.LBE432:
 801              	.LBB437:
 802              	.LBB421:
 803              	.LBB417:
 804 00ac A2F1FF02 		sub	r2, #255
 805              	.LBE417:
 806              	.LBE421:
 807              	.LBE437:
 808              		.loc 14 61 37 view .LVU207
 809 00b0 0468     		ldr	r4, [r0]
 810              	.LBB438:
 811              	.LBB428:
 812              		.loc 4 79 52 view .LVU208
 813 00b2 ACF1FF0C 		sub	ip, ip, #255
 814              	.LBE428:
 815              	.LBE438:
 816              	.LBB439:
 817              	.LBB434:
 818 00b6 A3F1FF03 		sub	r3, #255
 819              	.LBE434:
 820              	.LBE439:
 821              	.LBB440:
 822              	.LBB422:
 823              	.LBB418:
 824 00ba B2FA82F2 		clz	r2, r2
 825              	.LBE418:
 826              	.LBE422:
 827              	.LBE440:
 828              		.loc 14 61 37 view .LVU209
 829 00be 2144     		add	r1, r1, r4
 830              	.LVL41:
 831              	.LBB441:
 832              	.LBB429:
 833              		.loc 4 79 52 view .LVU210
 834 00c0 BCFA8CFC 		clz	ip, ip
 835              	.LBE429:
 836              	.LBE441:
 837              	.LBB442:
 838              	.LBB435:
 839 00c4 B3FA83F3 		clz	r3, r3
 840              	.LBE435:
 841              	.LBE442:
 842              	.LBB443:
 843              	.LBB423:
 844              	.LBB419:
 845 00c8 5209     		lsrs	r2, r2, #5
 846              	.LVL42:
 847              		.loc 4 79 52 view .LVU211
 848              	.LBE419:
 849              	.LBE423:
 850              	.LBE443:
  59:daisytusen.cpp ****     bool sw2 = hw.button1.Pressed();
 851              		.loc 14 59 5 is_stmt 1 view .LVU212
ARM GAS  /var/folders/z2/7_lhr9dn53s9tj4s0rwtyswm0000gn/T//ccooqcSF.s 			page 41


 852              	.LBB444:
 853              	.LBI426:
 854              		.loc 4 79 17 view .LVU213
 855              	.LBB430:
 856              		.loc 4 79 35 view .LVU214
 857              	.LBE430:
 858              	.LBE444:
 859              	.LBB445:
 860              	.LBB446:
 861              		.file 16 "/Applications/ARM/arm-none-eabi/include/c++/10.3.1/bits/stl_algobase.h"
   1:/Applications/ARM/arm-none-eabi/include/c++/10.3.1/bits/stl_algobase.h **** // Core algorithmic facilities -*- C++ -*-
   2:/Applications/ARM/arm-none-eabi/include/c++/10.3.1/bits/stl_algobase.h **** 
   3:/Applications/ARM/arm-none-eabi/include/c++/10.3.1/bits/stl_algobase.h **** // Copyright (C) 2001-2020 Free Software Foundation, Inc.
   4:/Applications/ARM/arm-none-eabi/include/c++/10.3.1/bits/stl_algobase.h **** //
   5:/Applications/ARM/arm-none-eabi/include/c++/10.3.1/bits/stl_algobase.h **** // This file is part of the GNU ISO C++ Library.  This library is free
   6:/Applications/ARM/arm-none-eabi/include/c++/10.3.1/bits/stl_algobase.h **** // software; you can redistribute it and/or modify it under the
   7:/Applications/ARM/arm-none-eabi/include/c++/10.3.1/bits/stl_algobase.h **** // terms of the GNU General Public License as published by the
   8:/Applications/ARM/arm-none-eabi/include/c++/10.3.1/bits/stl_algobase.h **** // Free Software Foundation; either version 3, or (at your option)
   9:/Applications/ARM/arm-none-eabi/include/c++/10.3.1/bits/stl_algobase.h **** // any later version.
  10:/Applications/ARM/arm-none-eabi/include/c++/10.3.1/bits/stl_algobase.h **** 
  11:/Applications/ARM/arm-none-eabi/include/c++/10.3.1/bits/stl_algobase.h **** // This library is distributed in the hope that it will be useful,
  12:/Applications/ARM/arm-none-eabi/include/c++/10.3.1/bits/stl_algobase.h **** // but WITHOUT ANY WARRANTY; without even the implied warranty of
  13:/Applications/ARM/arm-none-eabi/include/c++/10.3.1/bits/stl_algobase.h **** // MERCHANTABILITY or FITNESS FOR A PARTICULAR PURPOSE.  See the
  14:/Applications/ARM/arm-none-eabi/include/c++/10.3.1/bits/stl_algobase.h **** // GNU General Public License for more details.
  15:/Applications/ARM/arm-none-eabi/include/c++/10.3.1/bits/stl_algobase.h **** 
  16:/Applications/ARM/arm-none-eabi/include/c++/10.3.1/bits/stl_algobase.h **** // Under Section 7 of GPL version 3, you are granted additional
  17:/Applications/ARM/arm-none-eabi/include/c++/10.3.1/bits/stl_algobase.h **** // permissions described in the GCC Runtime Library Exception, version
  18:/Applications/ARM/arm-none-eabi/include/c++/10.3.1/bits/stl_algobase.h **** // 3.1, as published by the Free Software Foundation.
  19:/Applications/ARM/arm-none-eabi/include/c++/10.3.1/bits/stl_algobase.h **** 
  20:/Applications/ARM/arm-none-eabi/include/c++/10.3.1/bits/stl_algobase.h **** // You should have received a copy of the GNU General Public License and
  21:/Applications/ARM/arm-none-eabi/include/c++/10.3.1/bits/stl_algobase.h **** // a copy of the GCC Runtime Library Exception along with this program;
  22:/Applications/ARM/arm-none-eabi/include/c++/10.3.1/bits/stl_algobase.h **** // see the files COPYING3 and COPYING.RUNTIME respectively.  If not, see
  23:/Applications/ARM/arm-none-eabi/include/c++/10.3.1/bits/stl_algobase.h **** // <http://www.gnu.org/licenses/>.
  24:/Applications/ARM/arm-none-eabi/include/c++/10.3.1/bits/stl_algobase.h **** 
  25:/Applications/ARM/arm-none-eabi/include/c++/10.3.1/bits/stl_algobase.h **** /*
  26:/Applications/ARM/arm-none-eabi/include/c++/10.3.1/bits/stl_algobase.h ****  *
  27:/Applications/ARM/arm-none-eabi/include/c++/10.3.1/bits/stl_algobase.h ****  * Copyright (c) 1994
  28:/Applications/ARM/arm-none-eabi/include/c++/10.3.1/bits/stl_algobase.h ****  * Hewlett-Packard Company
  29:/Applications/ARM/arm-none-eabi/include/c++/10.3.1/bits/stl_algobase.h ****  *
  30:/Applications/ARM/arm-none-eabi/include/c++/10.3.1/bits/stl_algobase.h ****  * Permission to use, copy, modify, distribute and sell this software
  31:/Applications/ARM/arm-none-eabi/include/c++/10.3.1/bits/stl_algobase.h ****  * and its documentation for any purpose is hereby granted without fee,
  32:/Applications/ARM/arm-none-eabi/include/c++/10.3.1/bits/stl_algobase.h ****  * provided that the above copyright notice appear in all copies and
  33:/Applications/ARM/arm-none-eabi/include/c++/10.3.1/bits/stl_algobase.h ****  * that both that copyright notice and this permission notice appear
  34:/Applications/ARM/arm-none-eabi/include/c++/10.3.1/bits/stl_algobase.h ****  * in supporting documentation.  Hewlett-Packard Company makes no
  35:/Applications/ARM/arm-none-eabi/include/c++/10.3.1/bits/stl_algobase.h ****  * representations about the suitability of this software for any
  36:/Applications/ARM/arm-none-eabi/include/c++/10.3.1/bits/stl_algobase.h ****  * purpose.  It is provided "as is" without express or implied warranty.
  37:/Applications/ARM/arm-none-eabi/include/c++/10.3.1/bits/stl_algobase.h ****  *
  38:/Applications/ARM/arm-none-eabi/include/c++/10.3.1/bits/stl_algobase.h ****  *
  39:/Applications/ARM/arm-none-eabi/include/c++/10.3.1/bits/stl_algobase.h ****  * Copyright (c) 1996-1998
  40:/Applications/ARM/arm-none-eabi/include/c++/10.3.1/bits/stl_algobase.h ****  * Silicon Graphics Computer Systems, Inc.
  41:/Applications/ARM/arm-none-eabi/include/c++/10.3.1/bits/stl_algobase.h ****  *
  42:/Applications/ARM/arm-none-eabi/include/c++/10.3.1/bits/stl_algobase.h ****  * Permission to use, copy, modify, distribute and sell this software
  43:/Applications/ARM/arm-none-eabi/include/c++/10.3.1/bits/stl_algobase.h ****  * and its documentation for any purpose is hereby granted without fee,
  44:/Applications/ARM/arm-none-eabi/include/c++/10.3.1/bits/stl_algobase.h ****  * provided that the above copyright notice appear in all copies and
  45:/Applications/ARM/arm-none-eabi/include/c++/10.3.1/bits/stl_algobase.h ****  * that both that copyright notice and this permission notice appear
  46:/Applications/ARM/arm-none-eabi/include/c++/10.3.1/bits/stl_algobase.h ****  * in supporting documentation.  Silicon Graphics makes no
  47:/Applications/ARM/arm-none-eabi/include/c++/10.3.1/bits/stl_algobase.h ****  * representations about the suitability of this software for any
ARM GAS  /var/folders/z2/7_lhr9dn53s9tj4s0rwtyswm0000gn/T//ccooqcSF.s 			page 42


  48:/Applications/ARM/arm-none-eabi/include/c++/10.3.1/bits/stl_algobase.h ****  * purpose.  It is provided "as is" without express or implied warranty.
  49:/Applications/ARM/arm-none-eabi/include/c++/10.3.1/bits/stl_algobase.h ****  */
  50:/Applications/ARM/arm-none-eabi/include/c++/10.3.1/bits/stl_algobase.h **** 
  51:/Applications/ARM/arm-none-eabi/include/c++/10.3.1/bits/stl_algobase.h **** /** @file bits/stl_algobase.h
  52:/Applications/ARM/arm-none-eabi/include/c++/10.3.1/bits/stl_algobase.h ****  *  This is an internal header file, included by other library headers.
  53:/Applications/ARM/arm-none-eabi/include/c++/10.3.1/bits/stl_algobase.h ****  *  Do not attempt to use it directly. @headername{algorithm}
  54:/Applications/ARM/arm-none-eabi/include/c++/10.3.1/bits/stl_algobase.h ****  */
  55:/Applications/ARM/arm-none-eabi/include/c++/10.3.1/bits/stl_algobase.h **** 
  56:/Applications/ARM/arm-none-eabi/include/c++/10.3.1/bits/stl_algobase.h **** #ifndef _STL_ALGOBASE_H
  57:/Applications/ARM/arm-none-eabi/include/c++/10.3.1/bits/stl_algobase.h **** #define _STL_ALGOBASE_H 1
  58:/Applications/ARM/arm-none-eabi/include/c++/10.3.1/bits/stl_algobase.h **** 
  59:/Applications/ARM/arm-none-eabi/include/c++/10.3.1/bits/stl_algobase.h **** #include <bits/c++config.h>
  60:/Applications/ARM/arm-none-eabi/include/c++/10.3.1/bits/stl_algobase.h **** #include <bits/functexcept.h>
  61:/Applications/ARM/arm-none-eabi/include/c++/10.3.1/bits/stl_algobase.h **** #include <bits/cpp_type_traits.h>
  62:/Applications/ARM/arm-none-eabi/include/c++/10.3.1/bits/stl_algobase.h **** #include <ext/type_traits.h>
  63:/Applications/ARM/arm-none-eabi/include/c++/10.3.1/bits/stl_algobase.h **** #include <ext/numeric_traits.h>
  64:/Applications/ARM/arm-none-eabi/include/c++/10.3.1/bits/stl_algobase.h **** #include <bits/stl_pair.h>
  65:/Applications/ARM/arm-none-eabi/include/c++/10.3.1/bits/stl_algobase.h **** #include <bits/stl_iterator_base_types.h>
  66:/Applications/ARM/arm-none-eabi/include/c++/10.3.1/bits/stl_algobase.h **** #include <bits/stl_iterator_base_funcs.h>
  67:/Applications/ARM/arm-none-eabi/include/c++/10.3.1/bits/stl_algobase.h **** #include <bits/stl_iterator.h>
  68:/Applications/ARM/arm-none-eabi/include/c++/10.3.1/bits/stl_algobase.h **** #include <bits/concept_check.h>
  69:/Applications/ARM/arm-none-eabi/include/c++/10.3.1/bits/stl_algobase.h **** #include <debug/debug.h>
  70:/Applications/ARM/arm-none-eabi/include/c++/10.3.1/bits/stl_algobase.h **** #include <bits/move.h> // For std::swap
  71:/Applications/ARM/arm-none-eabi/include/c++/10.3.1/bits/stl_algobase.h **** #include <bits/predefined_ops.h>
  72:/Applications/ARM/arm-none-eabi/include/c++/10.3.1/bits/stl_algobase.h **** #if __cplusplus >= 201103L
  73:/Applications/ARM/arm-none-eabi/include/c++/10.3.1/bits/stl_algobase.h **** # include <type_traits>
  74:/Applications/ARM/arm-none-eabi/include/c++/10.3.1/bits/stl_algobase.h **** #endif
  75:/Applications/ARM/arm-none-eabi/include/c++/10.3.1/bits/stl_algobase.h **** #if __cplusplus > 201703L
  76:/Applications/ARM/arm-none-eabi/include/c++/10.3.1/bits/stl_algobase.h **** # include <compare>
  77:/Applications/ARM/arm-none-eabi/include/c++/10.3.1/bits/stl_algobase.h **** #endif
  78:/Applications/ARM/arm-none-eabi/include/c++/10.3.1/bits/stl_algobase.h **** 
  79:/Applications/ARM/arm-none-eabi/include/c++/10.3.1/bits/stl_algobase.h **** namespace std _GLIBCXX_VISIBILITY(default)
  80:/Applications/ARM/arm-none-eabi/include/c++/10.3.1/bits/stl_algobase.h **** {
  81:/Applications/ARM/arm-none-eabi/include/c++/10.3.1/bits/stl_algobase.h **** _GLIBCXX_BEGIN_NAMESPACE_VERSION
  82:/Applications/ARM/arm-none-eabi/include/c++/10.3.1/bits/stl_algobase.h **** 
  83:/Applications/ARM/arm-none-eabi/include/c++/10.3.1/bits/stl_algobase.h ****   /*
  84:/Applications/ARM/arm-none-eabi/include/c++/10.3.1/bits/stl_algobase.h ****    * A constexpr wrapper for __builtin_memcmp.
  85:/Applications/ARM/arm-none-eabi/include/c++/10.3.1/bits/stl_algobase.h ****    * @param __num The number of elements of type _Tp (not bytes).
  86:/Applications/ARM/arm-none-eabi/include/c++/10.3.1/bits/stl_algobase.h ****    */
  87:/Applications/ARM/arm-none-eabi/include/c++/10.3.1/bits/stl_algobase.h ****   template<typename _Tp, typename _Up>
  88:/Applications/ARM/arm-none-eabi/include/c++/10.3.1/bits/stl_algobase.h ****     _GLIBCXX14_CONSTEXPR
  89:/Applications/ARM/arm-none-eabi/include/c++/10.3.1/bits/stl_algobase.h ****     inline int
  90:/Applications/ARM/arm-none-eabi/include/c++/10.3.1/bits/stl_algobase.h ****     __memcmp(const _Tp* __first1, const _Up* __first2, size_t __num)
  91:/Applications/ARM/arm-none-eabi/include/c++/10.3.1/bits/stl_algobase.h ****     {
  92:/Applications/ARM/arm-none-eabi/include/c++/10.3.1/bits/stl_algobase.h **** #if __cplusplus >= 201103L
  93:/Applications/ARM/arm-none-eabi/include/c++/10.3.1/bits/stl_algobase.h ****       static_assert(sizeof(_Tp) == sizeof(_Up), "can be compared with memcmp");
  94:/Applications/ARM/arm-none-eabi/include/c++/10.3.1/bits/stl_algobase.h **** #endif
  95:/Applications/ARM/arm-none-eabi/include/c++/10.3.1/bits/stl_algobase.h **** #ifdef __cpp_lib_is_constant_evaluated
  96:/Applications/ARM/arm-none-eabi/include/c++/10.3.1/bits/stl_algobase.h ****       if (std::is_constant_evaluated())
  97:/Applications/ARM/arm-none-eabi/include/c++/10.3.1/bits/stl_algobase.h **** 	{
  98:/Applications/ARM/arm-none-eabi/include/c++/10.3.1/bits/stl_algobase.h **** 	  for(; __num > 0; ++__first1, ++__first2, --__num)
  99:/Applications/ARM/arm-none-eabi/include/c++/10.3.1/bits/stl_algobase.h **** 	    if (*__first1 != *__first2)
 100:/Applications/ARM/arm-none-eabi/include/c++/10.3.1/bits/stl_algobase.h **** 	      return *__first1 < *__first2 ? -1 : 1;
 101:/Applications/ARM/arm-none-eabi/include/c++/10.3.1/bits/stl_algobase.h **** 	  return 0;
 102:/Applications/ARM/arm-none-eabi/include/c++/10.3.1/bits/stl_algobase.h **** 	}
 103:/Applications/ARM/arm-none-eabi/include/c++/10.3.1/bits/stl_algobase.h ****       else
 104:/Applications/ARM/arm-none-eabi/include/c++/10.3.1/bits/stl_algobase.h **** #endif
ARM GAS  /var/folders/z2/7_lhr9dn53s9tj4s0rwtyswm0000gn/T//ccooqcSF.s 			page 43


 105:/Applications/ARM/arm-none-eabi/include/c++/10.3.1/bits/stl_algobase.h **** 	return __builtin_memcmp(__first1, __first2, sizeof(_Tp) * __num);
 106:/Applications/ARM/arm-none-eabi/include/c++/10.3.1/bits/stl_algobase.h ****     }
 107:/Applications/ARM/arm-none-eabi/include/c++/10.3.1/bits/stl_algobase.h **** 
 108:/Applications/ARM/arm-none-eabi/include/c++/10.3.1/bits/stl_algobase.h **** #if __cplusplus < 201103L
 109:/Applications/ARM/arm-none-eabi/include/c++/10.3.1/bits/stl_algobase.h ****   // See http://gcc.gnu.org/ml/libstdc++/2004-08/msg00167.html: in a
 110:/Applications/ARM/arm-none-eabi/include/c++/10.3.1/bits/stl_algobase.h ****   // nutshell, we are partially implementing the resolution of DR 187,
 111:/Applications/ARM/arm-none-eabi/include/c++/10.3.1/bits/stl_algobase.h ****   // when it's safe, i.e., the value_types are equal.
 112:/Applications/ARM/arm-none-eabi/include/c++/10.3.1/bits/stl_algobase.h ****   template<bool _BoolType>
 113:/Applications/ARM/arm-none-eabi/include/c++/10.3.1/bits/stl_algobase.h ****     struct __iter_swap
 114:/Applications/ARM/arm-none-eabi/include/c++/10.3.1/bits/stl_algobase.h ****     {
 115:/Applications/ARM/arm-none-eabi/include/c++/10.3.1/bits/stl_algobase.h ****       template<typename _ForwardIterator1, typename _ForwardIterator2>
 116:/Applications/ARM/arm-none-eabi/include/c++/10.3.1/bits/stl_algobase.h **** 	static void
 117:/Applications/ARM/arm-none-eabi/include/c++/10.3.1/bits/stl_algobase.h **** 	iter_swap(_ForwardIterator1 __a, _ForwardIterator2 __b)
 118:/Applications/ARM/arm-none-eabi/include/c++/10.3.1/bits/stl_algobase.h **** 	{
 119:/Applications/ARM/arm-none-eabi/include/c++/10.3.1/bits/stl_algobase.h **** 	  typedef typename iterator_traits<_ForwardIterator1>::value_type
 120:/Applications/ARM/arm-none-eabi/include/c++/10.3.1/bits/stl_algobase.h **** 	    _ValueType1;
 121:/Applications/ARM/arm-none-eabi/include/c++/10.3.1/bits/stl_algobase.h **** 	  _ValueType1 __tmp = *__a;
 122:/Applications/ARM/arm-none-eabi/include/c++/10.3.1/bits/stl_algobase.h **** 	  *__a = *__b;
 123:/Applications/ARM/arm-none-eabi/include/c++/10.3.1/bits/stl_algobase.h **** 	  *__b = __tmp;
 124:/Applications/ARM/arm-none-eabi/include/c++/10.3.1/bits/stl_algobase.h **** 	}
 125:/Applications/ARM/arm-none-eabi/include/c++/10.3.1/bits/stl_algobase.h ****     };
 126:/Applications/ARM/arm-none-eabi/include/c++/10.3.1/bits/stl_algobase.h **** 
 127:/Applications/ARM/arm-none-eabi/include/c++/10.3.1/bits/stl_algobase.h ****   template<>
 128:/Applications/ARM/arm-none-eabi/include/c++/10.3.1/bits/stl_algobase.h ****     struct __iter_swap<true>
 129:/Applications/ARM/arm-none-eabi/include/c++/10.3.1/bits/stl_algobase.h ****     {
 130:/Applications/ARM/arm-none-eabi/include/c++/10.3.1/bits/stl_algobase.h ****       template<typename _ForwardIterator1, typename _ForwardIterator2>
 131:/Applications/ARM/arm-none-eabi/include/c++/10.3.1/bits/stl_algobase.h **** 	static void
 132:/Applications/ARM/arm-none-eabi/include/c++/10.3.1/bits/stl_algobase.h **** 	iter_swap(_ForwardIterator1 __a, _ForwardIterator2 __b)
 133:/Applications/ARM/arm-none-eabi/include/c++/10.3.1/bits/stl_algobase.h **** 	{
 134:/Applications/ARM/arm-none-eabi/include/c++/10.3.1/bits/stl_algobase.h **** 	  swap(*__a, *__b);
 135:/Applications/ARM/arm-none-eabi/include/c++/10.3.1/bits/stl_algobase.h **** 	}
 136:/Applications/ARM/arm-none-eabi/include/c++/10.3.1/bits/stl_algobase.h ****     };
 137:/Applications/ARM/arm-none-eabi/include/c++/10.3.1/bits/stl_algobase.h **** #endif // C++03
 138:/Applications/ARM/arm-none-eabi/include/c++/10.3.1/bits/stl_algobase.h **** 
 139:/Applications/ARM/arm-none-eabi/include/c++/10.3.1/bits/stl_algobase.h ****   /**
 140:/Applications/ARM/arm-none-eabi/include/c++/10.3.1/bits/stl_algobase.h ****    *  @brief Swaps the contents of two iterators.
 141:/Applications/ARM/arm-none-eabi/include/c++/10.3.1/bits/stl_algobase.h ****    *  @ingroup mutating_algorithms
 142:/Applications/ARM/arm-none-eabi/include/c++/10.3.1/bits/stl_algobase.h ****    *  @param  __a  An iterator.
 143:/Applications/ARM/arm-none-eabi/include/c++/10.3.1/bits/stl_algobase.h ****    *  @param  __b  Another iterator.
 144:/Applications/ARM/arm-none-eabi/include/c++/10.3.1/bits/stl_algobase.h ****    *  @return   Nothing.
 145:/Applications/ARM/arm-none-eabi/include/c++/10.3.1/bits/stl_algobase.h ****    *
 146:/Applications/ARM/arm-none-eabi/include/c++/10.3.1/bits/stl_algobase.h ****    *  This function swaps the values pointed to by two iterators, not the
 147:/Applications/ARM/arm-none-eabi/include/c++/10.3.1/bits/stl_algobase.h ****    *  iterators themselves.
 148:/Applications/ARM/arm-none-eabi/include/c++/10.3.1/bits/stl_algobase.h ****   */
 149:/Applications/ARM/arm-none-eabi/include/c++/10.3.1/bits/stl_algobase.h ****   template<typename _ForwardIterator1, typename _ForwardIterator2>
 150:/Applications/ARM/arm-none-eabi/include/c++/10.3.1/bits/stl_algobase.h ****     _GLIBCXX20_CONSTEXPR
 151:/Applications/ARM/arm-none-eabi/include/c++/10.3.1/bits/stl_algobase.h ****     inline void
 152:/Applications/ARM/arm-none-eabi/include/c++/10.3.1/bits/stl_algobase.h ****     iter_swap(_ForwardIterator1 __a, _ForwardIterator2 __b)
 153:/Applications/ARM/arm-none-eabi/include/c++/10.3.1/bits/stl_algobase.h ****     {
 154:/Applications/ARM/arm-none-eabi/include/c++/10.3.1/bits/stl_algobase.h ****       // concept requirements
 155:/Applications/ARM/arm-none-eabi/include/c++/10.3.1/bits/stl_algobase.h ****       __glibcxx_function_requires(_Mutable_ForwardIteratorConcept<
 156:/Applications/ARM/arm-none-eabi/include/c++/10.3.1/bits/stl_algobase.h **** 				  _ForwardIterator1>)
 157:/Applications/ARM/arm-none-eabi/include/c++/10.3.1/bits/stl_algobase.h ****       __glibcxx_function_requires(_Mutable_ForwardIteratorConcept<
 158:/Applications/ARM/arm-none-eabi/include/c++/10.3.1/bits/stl_algobase.h **** 				  _ForwardIterator2>)
 159:/Applications/ARM/arm-none-eabi/include/c++/10.3.1/bits/stl_algobase.h **** 
 160:/Applications/ARM/arm-none-eabi/include/c++/10.3.1/bits/stl_algobase.h **** #if __cplusplus < 201103L
 161:/Applications/ARM/arm-none-eabi/include/c++/10.3.1/bits/stl_algobase.h ****       typedef typename iterator_traits<_ForwardIterator1>::value_type
ARM GAS  /var/folders/z2/7_lhr9dn53s9tj4s0rwtyswm0000gn/T//ccooqcSF.s 			page 44


 162:/Applications/ARM/arm-none-eabi/include/c++/10.3.1/bits/stl_algobase.h **** 	_ValueType1;
 163:/Applications/ARM/arm-none-eabi/include/c++/10.3.1/bits/stl_algobase.h ****       typedef typename iterator_traits<_ForwardIterator2>::value_type
 164:/Applications/ARM/arm-none-eabi/include/c++/10.3.1/bits/stl_algobase.h **** 	_ValueType2;
 165:/Applications/ARM/arm-none-eabi/include/c++/10.3.1/bits/stl_algobase.h **** 
 166:/Applications/ARM/arm-none-eabi/include/c++/10.3.1/bits/stl_algobase.h ****       __glibcxx_function_requires(_ConvertibleConcept<_ValueType1,
 167:/Applications/ARM/arm-none-eabi/include/c++/10.3.1/bits/stl_algobase.h **** 				  _ValueType2>)
 168:/Applications/ARM/arm-none-eabi/include/c++/10.3.1/bits/stl_algobase.h ****       __glibcxx_function_requires(_ConvertibleConcept<_ValueType2,
 169:/Applications/ARM/arm-none-eabi/include/c++/10.3.1/bits/stl_algobase.h **** 				  _ValueType1>)
 170:/Applications/ARM/arm-none-eabi/include/c++/10.3.1/bits/stl_algobase.h **** 
 171:/Applications/ARM/arm-none-eabi/include/c++/10.3.1/bits/stl_algobase.h ****       typedef typename iterator_traits<_ForwardIterator1>::reference
 172:/Applications/ARM/arm-none-eabi/include/c++/10.3.1/bits/stl_algobase.h **** 	_ReferenceType1;
 173:/Applications/ARM/arm-none-eabi/include/c++/10.3.1/bits/stl_algobase.h ****       typedef typename iterator_traits<_ForwardIterator2>::reference
 174:/Applications/ARM/arm-none-eabi/include/c++/10.3.1/bits/stl_algobase.h **** 	_ReferenceType2;
 175:/Applications/ARM/arm-none-eabi/include/c++/10.3.1/bits/stl_algobase.h ****       std::__iter_swap<__are_same<_ValueType1, _ValueType2>::__value
 176:/Applications/ARM/arm-none-eabi/include/c++/10.3.1/bits/stl_algobase.h **** 	&& __are_same<_ValueType1&, _ReferenceType1>::__value
 177:/Applications/ARM/arm-none-eabi/include/c++/10.3.1/bits/stl_algobase.h **** 	&& __are_same<_ValueType2&, _ReferenceType2>::__value>::
 178:/Applications/ARM/arm-none-eabi/include/c++/10.3.1/bits/stl_algobase.h **** 	iter_swap(__a, __b);
 179:/Applications/ARM/arm-none-eabi/include/c++/10.3.1/bits/stl_algobase.h **** #else
 180:/Applications/ARM/arm-none-eabi/include/c++/10.3.1/bits/stl_algobase.h ****       // _GLIBCXX_RESOLVE_LIB_DEFECTS
 181:/Applications/ARM/arm-none-eabi/include/c++/10.3.1/bits/stl_algobase.h ****       // 187. iter_swap underspecified
 182:/Applications/ARM/arm-none-eabi/include/c++/10.3.1/bits/stl_algobase.h ****       swap(*__a, *__b);
 183:/Applications/ARM/arm-none-eabi/include/c++/10.3.1/bits/stl_algobase.h **** #endif
 184:/Applications/ARM/arm-none-eabi/include/c++/10.3.1/bits/stl_algobase.h ****     }
 185:/Applications/ARM/arm-none-eabi/include/c++/10.3.1/bits/stl_algobase.h **** 
 186:/Applications/ARM/arm-none-eabi/include/c++/10.3.1/bits/stl_algobase.h ****   /**
 187:/Applications/ARM/arm-none-eabi/include/c++/10.3.1/bits/stl_algobase.h ****    *  @brief Swap the elements of two sequences.
 188:/Applications/ARM/arm-none-eabi/include/c++/10.3.1/bits/stl_algobase.h ****    *  @ingroup mutating_algorithms
 189:/Applications/ARM/arm-none-eabi/include/c++/10.3.1/bits/stl_algobase.h ****    *  @param  __first1  A forward iterator.
 190:/Applications/ARM/arm-none-eabi/include/c++/10.3.1/bits/stl_algobase.h ****    *  @param  __last1   A forward iterator.
 191:/Applications/ARM/arm-none-eabi/include/c++/10.3.1/bits/stl_algobase.h ****    *  @param  __first2  A forward iterator.
 192:/Applications/ARM/arm-none-eabi/include/c++/10.3.1/bits/stl_algobase.h ****    *  @return   An iterator equal to @p first2+(last1-first1).
 193:/Applications/ARM/arm-none-eabi/include/c++/10.3.1/bits/stl_algobase.h ****    *
 194:/Applications/ARM/arm-none-eabi/include/c++/10.3.1/bits/stl_algobase.h ****    *  Swaps each element in the range @p [first1,last1) with the
 195:/Applications/ARM/arm-none-eabi/include/c++/10.3.1/bits/stl_algobase.h ****    *  corresponding element in the range @p [first2,(last1-first1)).
 196:/Applications/ARM/arm-none-eabi/include/c++/10.3.1/bits/stl_algobase.h ****    *  The ranges must not overlap.
 197:/Applications/ARM/arm-none-eabi/include/c++/10.3.1/bits/stl_algobase.h ****   */
 198:/Applications/ARM/arm-none-eabi/include/c++/10.3.1/bits/stl_algobase.h ****   template<typename _ForwardIterator1, typename _ForwardIterator2>
 199:/Applications/ARM/arm-none-eabi/include/c++/10.3.1/bits/stl_algobase.h ****     _GLIBCXX20_CONSTEXPR
 200:/Applications/ARM/arm-none-eabi/include/c++/10.3.1/bits/stl_algobase.h ****     _ForwardIterator2
 201:/Applications/ARM/arm-none-eabi/include/c++/10.3.1/bits/stl_algobase.h ****     swap_ranges(_ForwardIterator1 __first1, _ForwardIterator1 __last1,
 202:/Applications/ARM/arm-none-eabi/include/c++/10.3.1/bits/stl_algobase.h **** 		_ForwardIterator2 __first2)
 203:/Applications/ARM/arm-none-eabi/include/c++/10.3.1/bits/stl_algobase.h ****     {
 204:/Applications/ARM/arm-none-eabi/include/c++/10.3.1/bits/stl_algobase.h ****       // concept requirements
 205:/Applications/ARM/arm-none-eabi/include/c++/10.3.1/bits/stl_algobase.h ****       __glibcxx_function_requires(_Mutable_ForwardIteratorConcept<
 206:/Applications/ARM/arm-none-eabi/include/c++/10.3.1/bits/stl_algobase.h **** 				  _ForwardIterator1>)
 207:/Applications/ARM/arm-none-eabi/include/c++/10.3.1/bits/stl_algobase.h ****       __glibcxx_function_requires(_Mutable_ForwardIteratorConcept<
 208:/Applications/ARM/arm-none-eabi/include/c++/10.3.1/bits/stl_algobase.h **** 				  _ForwardIterator2>)
 209:/Applications/ARM/arm-none-eabi/include/c++/10.3.1/bits/stl_algobase.h ****       __glibcxx_requires_valid_range(__first1, __last1);
 210:/Applications/ARM/arm-none-eabi/include/c++/10.3.1/bits/stl_algobase.h **** 
 211:/Applications/ARM/arm-none-eabi/include/c++/10.3.1/bits/stl_algobase.h ****       for (; __first1 != __last1; ++__first1, (void)++__first2)
 212:/Applications/ARM/arm-none-eabi/include/c++/10.3.1/bits/stl_algobase.h **** 	std::iter_swap(__first1, __first2);
 213:/Applications/ARM/arm-none-eabi/include/c++/10.3.1/bits/stl_algobase.h ****       return __first2;
 214:/Applications/ARM/arm-none-eabi/include/c++/10.3.1/bits/stl_algobase.h ****     }
 215:/Applications/ARM/arm-none-eabi/include/c++/10.3.1/bits/stl_algobase.h **** 
 216:/Applications/ARM/arm-none-eabi/include/c++/10.3.1/bits/stl_algobase.h ****   /**
 217:/Applications/ARM/arm-none-eabi/include/c++/10.3.1/bits/stl_algobase.h ****    *  @brief This does what you think it does.
 218:/Applications/ARM/arm-none-eabi/include/c++/10.3.1/bits/stl_algobase.h ****    *  @ingroup sorting_algorithms
ARM GAS  /var/folders/z2/7_lhr9dn53s9tj4s0rwtyswm0000gn/T//ccooqcSF.s 			page 45


 219:/Applications/ARM/arm-none-eabi/include/c++/10.3.1/bits/stl_algobase.h ****    *  @param  __a  A thing of arbitrary type.
 220:/Applications/ARM/arm-none-eabi/include/c++/10.3.1/bits/stl_algobase.h ****    *  @param  __b  Another thing of arbitrary type.
 221:/Applications/ARM/arm-none-eabi/include/c++/10.3.1/bits/stl_algobase.h ****    *  @return   The lesser of the parameters.
 222:/Applications/ARM/arm-none-eabi/include/c++/10.3.1/bits/stl_algobase.h ****    *
 223:/Applications/ARM/arm-none-eabi/include/c++/10.3.1/bits/stl_algobase.h ****    *  This is the simple classic generic implementation.  It will work on
 224:/Applications/ARM/arm-none-eabi/include/c++/10.3.1/bits/stl_algobase.h ****    *  temporary expressions, since they are only evaluated once, unlike a
 225:/Applications/ARM/arm-none-eabi/include/c++/10.3.1/bits/stl_algobase.h ****    *  preprocessor macro.
 226:/Applications/ARM/arm-none-eabi/include/c++/10.3.1/bits/stl_algobase.h ****   */
 227:/Applications/ARM/arm-none-eabi/include/c++/10.3.1/bits/stl_algobase.h ****   template<typename _Tp>
 228:/Applications/ARM/arm-none-eabi/include/c++/10.3.1/bits/stl_algobase.h ****     _GLIBCXX14_CONSTEXPR
 229:/Applications/ARM/arm-none-eabi/include/c++/10.3.1/bits/stl_algobase.h ****     inline const _Tp&
 230:/Applications/ARM/arm-none-eabi/include/c++/10.3.1/bits/stl_algobase.h ****     min(const _Tp& __a, const _Tp& __b)
 231:/Applications/ARM/arm-none-eabi/include/c++/10.3.1/bits/stl_algobase.h ****     {
 232:/Applications/ARM/arm-none-eabi/include/c++/10.3.1/bits/stl_algobase.h ****       // concept requirements
 233:/Applications/ARM/arm-none-eabi/include/c++/10.3.1/bits/stl_algobase.h ****       __glibcxx_function_requires(_LessThanComparableConcept<_Tp>)
 234:/Applications/ARM/arm-none-eabi/include/c++/10.3.1/bits/stl_algobase.h ****       //return __b < __a ? __b : __a;
 235:/Applications/ARM/arm-none-eabi/include/c++/10.3.1/bits/stl_algobase.h ****       if (__b < __a)
 862              		.loc 16 235 7 is_stmt 0 view .LVU215
 863 00ca 0329     		cmp	r1, #3
 864              	.LBE446:
 865              	.LBE445:
 866              	.LBB449:
 867              	.LBB431:
 868              		.loc 4 79 52 view .LVU216
 869 00cc 4FEA5C1C 		lsr	ip, ip, #5
 870              	.LVL43:
 871              		.loc 4 79 52 view .LVU217
 872              	.LBE431:
 873              	.LBE449:
  60:daisytusen.cpp ****     count = std::max(std::min(count + enc,3),0);
 874              		.loc 14 60 5 is_stmt 1 view .LVU218
 875              	.LBB450:
 876              	.LBI432:
 877              		.loc 4 79 17 view .LVU219
 878              	.LBB436:
 879              		.loc 4 79 35 view .LVU220
 880              		.loc 4 79 52 is_stmt 0 view .LVU221
 881 00d0 4FEA5313 		lsr	r3, r3, #5
 882              	.LVL44:
 883              		.loc 4 79 52 view .LVU222
 884              	.LBE436:
 885              	.LBE450:
 886              		.loc 14 61 5 is_stmt 1 view .LVU223
 887              	.LBB451:
 888              	.LBI445:
 230:/Applications/ARM/arm-none-eabi/include/c++/10.3.1/bits/stl_algobase.h ****     {
 889              		.loc 16 230 5 view .LVU224
 890              	.LBB447:
 891              		.loc 16 235 7 is_stmt 0 view .LVU225
 892 00d4 1FDC     		bgt	.L26
 893              	.LVL45:
 894              		.loc 16 235 7 view .LVU226
 895              	.LBE447:
 896              	.LBE451:
 897              	.LBB452:
 898              	.LBI452:
 236:/Applications/ARM/arm-none-eabi/include/c++/10.3.1/bits/stl_algobase.h **** 	return __b;
ARM GAS  /var/folders/z2/7_lhr9dn53s9tj4s0rwtyswm0000gn/T//ccooqcSF.s 			page 46


 237:/Applications/ARM/arm-none-eabi/include/c++/10.3.1/bits/stl_algobase.h ****       return __a;
 238:/Applications/ARM/arm-none-eabi/include/c++/10.3.1/bits/stl_algobase.h ****     }
 239:/Applications/ARM/arm-none-eabi/include/c++/10.3.1/bits/stl_algobase.h **** 
 240:/Applications/ARM/arm-none-eabi/include/c++/10.3.1/bits/stl_algobase.h ****   /**
 241:/Applications/ARM/arm-none-eabi/include/c++/10.3.1/bits/stl_algobase.h ****    *  @brief This does what you think it does.
 242:/Applications/ARM/arm-none-eabi/include/c++/10.3.1/bits/stl_algobase.h ****    *  @ingroup sorting_algorithms
 243:/Applications/ARM/arm-none-eabi/include/c++/10.3.1/bits/stl_algobase.h ****    *  @param  __a  A thing of arbitrary type.
 244:/Applications/ARM/arm-none-eabi/include/c++/10.3.1/bits/stl_algobase.h ****    *  @param  __b  Another thing of arbitrary type.
 245:/Applications/ARM/arm-none-eabi/include/c++/10.3.1/bits/stl_algobase.h ****    *  @return   The greater of the parameters.
 246:/Applications/ARM/arm-none-eabi/include/c++/10.3.1/bits/stl_algobase.h ****    *
 247:/Applications/ARM/arm-none-eabi/include/c++/10.3.1/bits/stl_algobase.h ****    *  This is the simple classic generic implementation.  It will work on
 248:/Applications/ARM/arm-none-eabi/include/c++/10.3.1/bits/stl_algobase.h ****    *  temporary expressions, since they are only evaluated once, unlike a
 249:/Applications/ARM/arm-none-eabi/include/c++/10.3.1/bits/stl_algobase.h ****    *  preprocessor macro.
 250:/Applications/ARM/arm-none-eabi/include/c++/10.3.1/bits/stl_algobase.h ****   */
 251:/Applications/ARM/arm-none-eabi/include/c++/10.3.1/bits/stl_algobase.h ****   template<typename _Tp>
 252:/Applications/ARM/arm-none-eabi/include/c++/10.3.1/bits/stl_algobase.h ****     _GLIBCXX14_CONSTEXPR
 253:/Applications/ARM/arm-none-eabi/include/c++/10.3.1/bits/stl_algobase.h ****     inline const _Tp&
 254:/Applications/ARM/arm-none-eabi/include/c++/10.3.1/bits/stl_algobase.h ****     max(const _Tp& __a, const _Tp& __b)
 899              		.loc 16 254 5 is_stmt 1 view .LVU227
 900              	.LBB453:
 255:/Applications/ARM/arm-none-eabi/include/c++/10.3.1/bits/stl_algobase.h ****     {
 256:/Applications/ARM/arm-none-eabi/include/c++/10.3.1/bits/stl_algobase.h ****       // concept requirements
 257:/Applications/ARM/arm-none-eabi/include/c++/10.3.1/bits/stl_algobase.h ****       __glibcxx_function_requires(_LessThanComparableConcept<_Tp>)
 258:/Applications/ARM/arm-none-eabi/include/c++/10.3.1/bits/stl_algobase.h ****       //return  __a < __b ? __b : __a;
 259:/Applications/ARM/arm-none-eabi/include/c++/10.3.1/bits/stl_algobase.h ****       if (__a < __b)
 901              		.loc 16 259 7 is_stmt 0 view .LVU228
 902 00d6 0029     		cmp	r1, #0
 903 00d8 1EDA     		bge	.L17
 904              	.LVL46:
 905              		.loc 16 259 7 view .LVU229
 906              	.LBE453:
 907              	.LBE452:
  62:daisytusen.cpp ****     count = std::max(std::min(count + sw1,3),0);
  63:daisytusen.cpp ****     count = std::max(std::min(count - static_cast<int>(sw2),3),0);
 908              		.loc 14 63 5 is_stmt 1 view .LVU230
 909              		.loc 14 63 37 is_stmt 0 view .LVU231
 910 00da A2EB0C02 		sub	r2, r2, ip
 911              	.LVL47:
 912              	.LBB454:
 913              	.LBI454:
 254:/Applications/ARM/arm-none-eabi/include/c++/10.3.1/bits/stl_algobase.h ****     {
 914              		.loc 16 254 5 is_stmt 1 view .LVU232
 915              	.LBB455:
 916              		.loc 16 259 7 is_stmt 0 view .LVU233
 917 00de 511C     		adds	r1, r2, #1
 918 00e0 22D1     		bne	.L30
 919              	.LVL48:
 920              	.L24:
 921              		.loc 16 259 7 view .LVU234
 922              	.LBE455:
 923              	.LBE454:
  64:daisytusen.cpp ****     count = std::max(std::min(count + static_cast<int>(sw3),3),0);
  65:daisytusen.cpp **** 
  66:daisytusen.cpp ****     sine.SetAmp(ctrl2);
  67:daisytusen.cpp ****     saw.SetAmp(ctrl2);
  68:daisytusen.cpp ****     
  69:daisytusen.cpp **** //    hw.led.SetColor(clrs[count]);
ARM GAS  /var/folders/z2/7_lhr9dn53s9tj4s0rwtyswm0000gn/T//ccooqcSF.s 			page 47


  70:daisytusen.cpp ****     hw.led.Set(clrs[count][0], clrs[count][1],clrs[count][2]);
 924              		.loc 14 70 15 view .LVU235
 925 00e2 03EB4301 		add	r1, r3, r3, lsl #1
 926 00e6 194A     		ldr	r2, .L31+24
  64:daisytusen.cpp ****     count = std::max(std::min(count + static_cast<int>(sw3),3),0);
 927              		.loc 14 64 11 view .LVU236
 928 00e8 0360     		str	r3, [r0]
  66:daisytusen.cpp ****     saw.SetAmp(ctrl2);
 929              		.loc 14 66 5 is_stmt 1 view .LVU237
 930              	.LVL49:
 931              	.LBB457:
 932              	.LBI457:
  71:../../DaisySP//Source/Synthesis/oscillator.h ****     }
  72:../../DaisySP//Source/Synthesis/oscillator.h **** 
  73:../../DaisySP//Source/Synthesis/oscillator.h **** 
  74:../../DaisySP//Source/Synthesis/oscillator.h ****     /** Sets the amplitude of the waveform.
  75:../../DaisySP//Source/Synthesis/oscillator.h ****     */
  76:../../DaisySP//Source/Synthesis/oscillator.h ****     inline void SetAmp(const float a) { amp_ = a; }
 933              		.loc 12 76 17 view .LVU238
 934              	.LBB458:
 935              		.loc 12 76 41 view .LVU239
 936              	.LBE458:
 937              	.LBE457:
 938              		.loc 14 70 15 is_stmt 0 view .LVU240
 939 00ea 02EB8102 		add	r2, r2, r1, lsl #2
 940 00ee 1848     		ldr	r0, .L31+28
 941              	.LBB460:
 942              	.LBB459:
 943              		.loc 12 76 46 view .LVU241
 944 00f0 85ED018A 		vstr.32	s16, [r5, #4]
 945              	.LVL50:
 946              		.loc 12 76 46 view .LVU242
 947              	.LBE459:
 948              	.LBE460:
  67:daisytusen.cpp ****     
 949              		.loc 14 67 5 is_stmt 1 view .LVU243
 950              	.LBB461:
 951              	.LBI461:
 952              		.loc 12 76 17 view .LVU244
 953              	.LBB462:
 954              		.loc 12 76 41 view .LVU245
 955              	.LBE462:
 956              	.LBE461:
 957              		.loc 14 70 15 is_stmt 0 view .LVU246
 958 00f4 92ED021A 		vldr.32	s2, [r2, #8]
 959 00f8 D2ED010A 		vldr.32	s1, [r2, #4]
 960 00fc 92ED000A 		vldr.32	s0, [r2]
 961              	.LBB464:
 962              	.LBB463:
 963              		.loc 12 76 46 view .LVU247
 964 0100 86ED018A 		vstr.32	s16, [r6, #4]
 965              	.LVL51:
 966              		.loc 12 76 46 view .LVU248
 967              	.LBE463:
 968              	.LBE464:
 969              		.loc 14 70 5 is_stmt 1 view .LVU249
 970              		.loc 14 70 15 is_stmt 0 view .LVU250
ARM GAS  /var/folders/z2/7_lhr9dn53s9tj4s0rwtyswm0000gn/T//ccooqcSF.s 			page 48


 971 0104 FFF7FEFF 		bl	_ZN5daisy6RgbLed3SetEfff
 972              	.LVL52:
  71:daisytusen.cpp ****     hw.UpdateLeds();
 973              		.loc 14 71 5 is_stmt 1 view .LVU251
 974              		.loc 14 71 18 is_stmt 0 view .LVU252
 975 0108 0A48     		ldr	r0, .L31
  72:daisytusen.cpp **** 
  73:daisytusen.cpp **** }
 976              		.loc 14 73 1 view .LVU253
 977 010a BDEC068B 		vldm	sp!, {d8-d10}
 978              		.cfi_remember_state
 979              		.cfi_restore 84
 980              		.cfi_restore 85
 981              		.cfi_restore 82
 982              		.cfi_restore 83
 983              		.cfi_restore 80
 984              		.cfi_restore 81
 985              		.cfi_def_cfa_offset 24
 986              	.LVL53:
 987              		.loc 14 73 1 view .LVU254
 988 010e BDE8F840 		pop	{r3, r4, r5, r6, r7, lr}
 989              		.cfi_restore 14
 990              		.cfi_restore 7
 991              		.cfi_restore 6
 992              		.cfi_restore 5
 993              		.cfi_restore 4
 994              		.cfi_restore 3
 995              		.cfi_def_cfa_offset 0
  71:daisytusen.cpp ****     hw.UpdateLeds();
 996              		.loc 14 71 18 view .LVU255
 997 0112 FFF7FEBF 		b	_ZN5daisy10Tusenskona10UpdateLedsEv
 998              	.LVL54:
 999              	.L26:
 1000              		.cfi_restore_state
 1001              	.LBB465:
 1002              	.LBB448:
  71:daisytusen.cpp ****     hw.UpdateLeds();
 1003              		.loc 14 71 18 view .LVU256
 1004 0116 0321     		movs	r1, #3
 1005              	.LVL55:
 1006              	.L17:
  71:daisytusen.cpp ****     hw.UpdateLeds();
 1007              		.loc 14 71 18 view .LVU257
 1008              	.LBE448:
 1009              	.LBE465:
  62:daisytusen.cpp ****     count = std::max(std::min(count - static_cast<int>(sw2),3),0);
 1010              		.loc 14 62 5 is_stmt 1 view .LVU258
  62:daisytusen.cpp ****     count = std::max(std::min(count - static_cast<int>(sw2),3),0);
 1011              		.loc 14 62 37 is_stmt 0 view .LVU259
 1012 0118 0A44     		add	r2, r2, r1
 1013              	.LVL56:
 1014              	.LBB466:
 1015              	.LBI466:
 230:/Applications/ARM/arm-none-eabi/include/c++/10.3.1/bits/stl_algobase.h ****     {
 1016              		.loc 16 230 5 is_stmt 1 view .LVU260
 1017              	.LBB467:
 1018 011a 042A     		cmp	r2, #4
ARM GAS  /var/folders/z2/7_lhr9dn53s9tj4s0rwtyswm0000gn/T//ccooqcSF.s 			page 49


 1019 011c 08BF     		it	eq
 1020 011e 0322     		moveq	r2, #3
 1021              	.LVL57:
 230:/Applications/ARM/arm-none-eabi/include/c++/10.3.1/bits/stl_algobase.h ****     {
 1022              		.loc 16 230 5 is_stmt 0 view .LVU261
 1023              	.LBE467:
 1024              	.LBE466:
  63:daisytusen.cpp ****     count = std::max(std::min(count + static_cast<int>(sw3),3),0);
 1025              		.loc 14 63 5 is_stmt 1 view .LVU262
  63:daisytusen.cpp ****     count = std::max(std::min(count + static_cast<int>(sw3),3),0);
 1026              		.loc 14 63 37 is_stmt 0 view .LVU263
 1027 0120 A2EB0C02 		sub	r2, r2, ip
 1028              	.LVL58:
 1029              	.LBB468:
 254:/Applications/ARM/arm-none-eabi/include/c++/10.3.1/bits/stl_algobase.h ****     {
 1030              		.loc 16 254 5 is_stmt 1 view .LVU264
 1031              	.LBB456:
 1032              		.loc 16 259 7 is_stmt 0 view .LVU265
 1033 0124 511C     		adds	r1, r2, #1
 1034 0126 DCD0     		beq	.L24
 1035              	.L30:
 1036              	.LVL59:
 1037              		.loc 16 259 7 view .LVU266
 1038              	.LBE456:
 1039              	.LBE468:
  64:daisytusen.cpp **** 
 1040              		.loc 14 64 5 is_stmt 1 view .LVU267
  64:daisytusen.cpp **** 
 1041              		.loc 14 64 37 is_stmt 0 view .LVU268
 1042 0128 1344     		add	r3, r3, r2
 1043              	.LVL60:
 1044              	.LBB469:
 1045              	.LBI469:
 230:/Applications/ARM/arm-none-eabi/include/c++/10.3.1/bits/stl_algobase.h ****     {
 1046              		.loc 16 230 5 is_stmt 1 view .LVU269
 1047              	.LBB470:
 1048 012a 042B     		cmp	r3, #4
 1049 012c 08BF     		it	eq
 1050 012e 0323     		moveq	r3, #3
 1051 0130 D7E7     		b	.L24
 1052              	.L32:
 1053 0132 00BF     		.align	2
 1054              	.L31:
 1055 0134 00000000 		.word	.LANCHOR2
 1056 0138 00000000 		.word	.LANCHOR0
 1057 013c 00000000 		.word	.LANCHOR3
 1058 0140 00000000 		.word	.LANCHOR1
 1059 0144 00002042 		.word	1109393408
 1060 0148 00000000 		.word	.LANCHOR4
 1061 014c 00000000 		.word	.LANCHOR5
 1062 0150 20010000 		.word	.LANCHOR2+288
 1063              	.LBE470:
 1064              	.LBE469:
 1065              		.cfi_endproc
 1066              	.LFE4748:
 1068              		.section	.text.startup.main,"ax",%progbits
 1069              		.align	1
ARM GAS  /var/folders/z2/7_lhr9dn53s9tj4s0rwtyswm0000gn/T//ccooqcSF.s 			page 50


 1070              		.p2align 2,,3
 1071              		.global	main
 1072              		.syntax unified
 1073              		.thumb
 1074              		.thumb_func
 1076              	main:
 1077              	.LFB4749:
  74:daisytusen.cpp **** 
  75:daisytusen.cpp **** int main(void)
  76:daisytusen.cpp **** {
 1078              		.loc 14 76 1 view -0
 1079              		.cfi_startproc
 1080              		@ Volatile: function does not return.
 1081              		@ args = 0, pretend = 0, frame = 0
 1082              		@ frame_needed = 0, uses_anonymous_args = 0
  77:daisytusen.cpp **** //    clrs[0].Init(0.5f, 0.f, 0.f);
  78:daisytusen.cpp **** //    clrs[1].Init(0.f, 0.5f, 0.f);
  79:daisytusen.cpp **** //    clrs[2].Init(0.f, 0.f, 0.5f);
  80:daisytusen.cpp **** //    clrs[3].Init(0.5f, 0.f, 0.5f);
  81:daisytusen.cpp **** 
  82:daisytusen.cpp ****     hw.Init();
 1083              		.loc 14 82 5 view .LVU271
  76:daisytusen.cpp **** //    clrs[0].Init(0.5f, 0.f, 0.f);
 1084              		.loc 14 76 1 is_stmt 0 view .LVU272
 1085 0000 80B5     		push	{r7, lr}
 1086              		.cfi_def_cfa_offset 8
 1087              		.cfi_offset 7, -8
 1088              		.cfi_offset 14, -4
 1089              		.loc 14 82 12 view .LVU273
 1090 0002 0021     		movs	r1, #0
 1091 0004 2F48     		ldr	r0, .L36
 1092              	.LBB491:
 1093              	.LBB492:
  52:../../DaisySP//Source/Synthesis/oscillator.h ****         sr_recip_  = 1.0f / sample_rate;
 1094              		.loc 12 52 20 view .LVU274
 1095 0006 304D     		ldr	r5, .L36+4
 1096              	.LBE492:
 1097              	.LBE491:
 1098              		.loc 14 82 12 view .LVU275
 1099 0008 FFF7FEFF 		bl	_ZN5daisy10Tusenskona4InitEb
 1100              	.LVL61:
  83:daisytusen.cpp ****     hw.SetAudioBlockSize(48); // number of samples handled per callback
 1101              		.loc 14 83 5 is_stmt 1 view .LVU276
 1102              	.LBB502:
 1103              	.LBB493:
  54:../../DaisySP//Source/Synthesis/oscillator.h ****         amp_       = 0.5f;
 1104              		.loc 12 54 20 is_stmt 0 view .LVU277
 1105 000c 9FED2F8A 		vldr.32	s16, .L36+8
 1106              	.LBE493:
 1107              	.LBE502:
 1108              		.loc 14 83 25 view .LVU278
 1109 0010 3021     		movs	r1, #48
 1110 0012 2C48     		ldr	r0, .L36
 1111              	.LBB503:
 1112              	.LBB494:
  55:../../DaisySP//Source/Synthesis/oscillator.h ****         pw_        = 0.5f;
 1113              		.loc 12 55 20 view .LVU279
ARM GAS  /var/folders/z2/7_lhr9dn53s9tj4s0rwtyswm0000gn/T//ccooqcSF.s 			page 51


 1114 0014 4FF07C57 		mov	r7, #1056964608
 1115              	.LBE494:
 1116              	.LBE503:
 1117              	.LBB504:
 1118              	.LBB505:
  52:../../DaisySP//Source/Synthesis/oscillator.h ****         sr_recip_  = 1.0f / sample_rate;
 1119              		.loc 12 52 20 view .LVU280
 1120 0018 2D4C     		ldr	r4, .L36+12
 1121              	.LBE505:
 1122              	.LBE504:
 1123              		.loc 14 83 25 view .LVU281
 1124 001a FFF7FEFF 		bl	_ZN5daisy10Tusenskona17SetAudioBlockSizeEj
 1125              	.LVL62:
  84:daisytusen.cpp ****     hw.SetAudioSampleRate(SaiHandle::Config::SampleRate::SAI_48KHZ);
 1126              		.loc 14 84 5 is_stmt 1 view .LVU282
 1127              	.LBB513:
 1128              	.LBB495:
  57:../../DaisySP//Source/Synthesis/oscillator.h ****         phase_inc_ = CalcPhaseInc(freq_);
 1129              		.loc 12 57 20 is_stmt 0 view .LVU283
 1130 001e 0026     		movs	r6, #0
 1131              	.LBE495:
 1132              	.LBE513:
 1133              		.loc 14 84 26 view .LVU284
 1134 0020 0321     		movs	r1, #3
 1135              	.LBB514:
 1136              	.LBB496:
  53:../../DaisySP//Source/Synthesis/oscillator.h ****         freq_      = 100.0f;
 1137              		.loc 12 53 20 view .LVU285
 1138 0022 DFF8BC90 		ldr	r9, .L36+28
 1139              	.LBE496:
 1140              	.LBE514:
 1141              	.LBB515:
 1142              	.LBB516:
 1143              		.loc 12 76 46 view .LVU286
 1144 0026 4FF07A58 		mov	r8, #1048576000
 1145              	.LBE516:
 1146              	.LBE515:
 1147              	.LBB519:
 1148              	.LBB497:
  52:../../DaisySP//Source/Synthesis/oscillator.h ****         sr_recip_  = 1.0f / sample_rate;
 1149              		.loc 12 52 20 view .LVU287
 1150 002a DFF8B8A0 		ldr	r10, .L36+32
 1151              	.LBE497:
 1152              	.LBE519:
 1153              		.loc 14 84 26 view .LVU288
 1154 002e 2548     		ldr	r0, .L36
 1155 0030 FFF7FEFF 		bl	_ZN5daisy10Tusenskona18SetAudioSampleRateENS_9SaiHandle6Config10SampleRateE
 1156              	.LVL63:
  85:daisytusen.cpp ****     sine.Init(48000);
 1157              		.loc 14 85 5 is_stmt 1 view .LVU289
 1158              	.LBB520:
 1159              	.LBI491:
  50:../../DaisySP//Source/Synthesis/oscillator.h ****     {
 1160              		.loc 12 50 10 view .LVU290
 1161              	.LBB498:
  52:../../DaisySP//Source/Synthesis/oscillator.h ****         sr_recip_  = 1.0f / sample_rate;
 1162              		.loc 12 52 9 view .LVU291
ARM GAS  /var/folders/z2/7_lhr9dn53s9tj4s0rwtyswm0000gn/T//ccooqcSF.s 			page 52


  58:../../DaisySP//Source/Synthesis/oscillator.h ****         waveform_  = WAVE_SIN;
 1163              		.loc 12 58 34 is_stmt 0 view .LVU292
 1164 0034 2846     		mov	r0, r5
 1165 0036 B0EE480A 		vmov.f32	s0, s16
  53:../../DaisySP//Source/Synthesis/oscillator.h ****         freq_      = 100.0f;
 1166              		.loc 12 53 20 view .LVU293
 1167 003a C5F81490 		str	r9, [r5, #20]	@ float
  55:../../DaisySP//Source/Synthesis/oscillator.h ****         pw_        = 0.5f;
 1168              		.loc 12 55 20 view .LVU294
 1169 003e 6F60     		str	r7, [r5, #4]	@ float
  56:../../DaisySP//Source/Synthesis/oscillator.h ****         phase_     = 0.0f;
 1170              		.loc 12 56 20 view .LVU295
 1171 0040 EF60     		str	r7, [r5, #12]	@ float
  52:../../DaisySP//Source/Synthesis/oscillator.h ****         sr_recip_  = 1.0f / sample_rate;
 1172              		.loc 12 52 20 view .LVU296
 1173 0042 C5F810A0 		str	r10, [r5, #16]	@ float
  53:../../DaisySP//Source/Synthesis/oscillator.h ****         freq_      = 100.0f;
 1174              		.loc 12 53 9 is_stmt 1 view .LVU297
  54:../../DaisySP//Source/Synthesis/oscillator.h ****         amp_       = 0.5f;
 1175              		.loc 12 54 9 view .LVU298
  54:../../DaisySP//Source/Synthesis/oscillator.h ****         amp_       = 0.5f;
 1176              		.loc 12 54 20 is_stmt 0 view .LVU299
 1177 0046 85ED028A 		vstr.32	s16, [r5, #8]
  55:../../DaisySP//Source/Synthesis/oscillator.h ****         pw_        = 0.5f;
 1178              		.loc 12 55 9 is_stmt 1 view .LVU300
  56:../../DaisySP//Source/Synthesis/oscillator.h ****         phase_     = 0.0f;
 1179              		.loc 12 56 9 view .LVU301
  57:../../DaisySP//Source/Synthesis/oscillator.h ****         phase_inc_ = CalcPhaseInc(freq_);
 1180              		.loc 12 57 9 view .LVU302
  57:../../DaisySP//Source/Synthesis/oscillator.h ****         phase_inc_ = CalcPhaseInc(freq_);
 1181              		.loc 12 57 20 is_stmt 0 view .LVU303
 1182 004a AE61     		str	r6, [r5, #24]	@ float
  58:../../DaisySP//Source/Synthesis/oscillator.h ****         waveform_  = WAVE_SIN;
 1183              		.loc 12 58 9 is_stmt 1 view .LVU304
  58:../../DaisySP//Source/Synthesis/oscillator.h ****         waveform_  = WAVE_SIN;
 1184              		.loc 12 58 34 is_stmt 0 view .LVU305
 1185 004c FFF7FEFF 		bl	_ZN7daisysp10Oscillator12CalcPhaseIncEf
 1186              	.LVL64:
 1187              	.LBE498:
 1188              	.LBE520:
 1189              	.LBB521:
 1190              	.LBB506:
  53:../../DaisySP//Source/Synthesis/oscillator.h ****         freq_      = 100.0f;
 1191              		.loc 12 53 20 view .LVU306
 1192 0050 C4F81490 		str	r9, [r4, #20]	@ float
 1193              	.LBE506:
 1194              	.LBE521:
 1195              	.LBB522:
 1196              	.LBB499:
  61:../../DaisySP//Source/Synthesis/oscillator.h ****     }
 1197              		.loc 12 61 20 view .LVU307
 1198 0054 40F20119 		movw	r9, #257
 1199              	.LBE499:
 1200              	.LBE522:
 1201              	.LBB523:
 1202              	.LBB507:
  55:../../DaisySP//Source/Synthesis/oscillator.h ****         pw_        = 0.5f;
ARM GAS  /var/folders/z2/7_lhr9dn53s9tj4s0rwtyswm0000gn/T//ccooqcSF.s 			page 53


 1203              		.loc 12 55 20 view .LVU308
 1204 0058 6760     		str	r7, [r4, #4]	@ float
  58:../../DaisySP//Source/Synthesis/oscillator.h ****         waveform_  = WAVE_SIN;
 1205              		.loc 12 58 34 view .LVU309
 1206 005a 2046     		mov	r0, r4
  56:../../DaisySP//Source/Synthesis/oscillator.h ****         phase_     = 0.0f;
 1207              		.loc 12 56 20 view .LVU310
 1208 005c E760     		str	r7, [r4, #12]	@ float
 1209              	.LBE507:
 1210              	.LBE523:
 1211              	.LBB524:
 1212              	.LBB500:
  59:../../DaisySP//Source/Synthesis/oscillator.h ****         eoc_       = true;
 1213              		.loc 12 59 20 view .LVU311
 1214 005e 0027     		movs	r7, #0
  58:../../DaisySP//Source/Synthesis/oscillator.h ****         waveform_  = WAVE_SIN;
 1215              		.loc 12 58 20 view .LVU312
 1216 0060 85ED070A 		vstr.32	s0, [r5, #28]
  59:../../DaisySP//Source/Synthesis/oscillator.h ****         eoc_       = true;
 1217              		.loc 12 59 9 is_stmt 1 view .LVU313
 1218              	.LBE500:
 1219              	.LBE524:
 1220              	.LBB525:
 1221              	.LBB508:
  58:../../DaisySP//Source/Synthesis/oscillator.h ****         waveform_  = WAVE_SIN;
 1222              		.loc 12 58 34 is_stmt 0 view .LVU314
 1223 0064 B0EE480A 		vmov.f32	s0, s16
  52:../../DaisySP//Source/Synthesis/oscillator.h ****         sr_recip_  = 1.0f / sample_rate;
 1224              		.loc 12 52 20 view .LVU315
 1225 0068 C4F810A0 		str	r10, [r4, #16]	@ float
 1226              	.LBE508:
 1227              	.LBE525:
 1228              	.LBB526:
 1229              	.LBB517:
 1230              		.loc 12 76 46 view .LVU316
 1231 006c C5F80480 		str	r8, [r5, #4]	@ float
 1232              	.LBE517:
 1233              	.LBE526:
 1234              	.LBB527:
 1235              	.LBB528:
  77:../../DaisySP//Source/Synthesis/oscillator.h ****     /** Sets the waveform to be synthesized by the Process() function.
  78:../../DaisySP//Source/Synthesis/oscillator.h ****     */
  79:../../DaisySP//Source/Synthesis/oscillator.h ****     inline void SetWaveform(const uint8_t wf)
  80:../../DaisySP//Source/Synthesis/oscillator.h ****     {
  81:../../DaisySP//Source/Synthesis/oscillator.h ****         waveform_ = wf < WAVE_LAST ? wf : WAVE_SIN;
  82:../../DaisySP//Source/Synthesis/oscillator.h ****     }
  83:../../DaisySP//Source/Synthesis/oscillator.h ****     /** Sets the pulse width for WAVE_SQUARE and WAVE_POLYBLEP_SQUARE (range 0 - 1)
  84:../../DaisySP//Source/Synthesis/oscillator.h ****      */
  85:../../DaisySP//Source/Synthesis/oscillator.h ****     inline void SetPw(const float pw) { pw_ = fclamp(pw, 0.0f, 1.0f); }
  86:../../DaisySP//Source/Synthesis/oscillator.h **** 
  87:../../DaisySP//Source/Synthesis/oscillator.h ****     /** Returns true if cycle is at end of rise. Set during call to Process.
  88:../../DaisySP//Source/Synthesis/oscillator.h ****     */
  89:../../DaisySP//Source/Synthesis/oscillator.h ****     inline bool IsEOR() { return eor_; }
  90:../../DaisySP//Source/Synthesis/oscillator.h **** 
  91:../../DaisySP//Source/Synthesis/oscillator.h ****     /** Returns true if cycle is at end of cycle. Set during call to Process.
  92:../../DaisySP//Source/Synthesis/oscillator.h ****     */
  93:../../DaisySP//Source/Synthesis/oscillator.h ****     inline bool IsEOC() { return eoc_; }
ARM GAS  /var/folders/z2/7_lhr9dn53s9tj4s0rwtyswm0000gn/T//ccooqcSF.s 			page 54


  94:../../DaisySP//Source/Synthesis/oscillator.h **** 
  95:../../DaisySP//Source/Synthesis/oscillator.h ****     /** Returns true if cycle rising.
  96:../../DaisySP//Source/Synthesis/oscillator.h ****     */
  97:../../DaisySP//Source/Synthesis/oscillator.h ****     inline bool IsRising() { return phase_ < 0.5f; }
  98:../../DaisySP//Source/Synthesis/oscillator.h **** 
  99:../../DaisySP//Source/Synthesis/oscillator.h ****     /** Returns true if cycle falling.
 100:../../DaisySP//Source/Synthesis/oscillator.h ****     */
 101:../../DaisySP//Source/Synthesis/oscillator.h ****     inline bool IsFalling() { return phase_ >= 0.5f; }
 102:../../DaisySP//Source/Synthesis/oscillator.h **** 
 103:../../DaisySP//Source/Synthesis/oscillator.h ****     /** Processes the waveform to be generated, returning one sample. This should be called once pe
 104:../../DaisySP//Source/Synthesis/oscillator.h ****     */
 105:../../DaisySP//Source/Synthesis/oscillator.h ****     float Process();
 106:../../DaisySP//Source/Synthesis/oscillator.h **** 
 107:../../DaisySP//Source/Synthesis/oscillator.h **** 
 108:../../DaisySP//Source/Synthesis/oscillator.h ****     /** Adds a value 0.0-1.0 (equivalent to 0.0-TWO_PI) to the current phase. Useful for PM and "FM
 109:../../DaisySP//Source/Synthesis/oscillator.h ****     */
 110:../../DaisySP//Source/Synthesis/oscillator.h ****     void PhaseAdd(float _phase) { phase_ += _phase; }
 111:../../DaisySP//Source/Synthesis/oscillator.h ****     /** Resets the phase to the input argument. If no argumeNt is present, it will reset phase to 0
 112:../../DaisySP//Source/Synthesis/oscillator.h ****     */
 113:../../DaisySP//Source/Synthesis/oscillator.h ****     void Reset(float _phase = 0.0f) { phase_ = _phase; }
 1236              		.loc 12 113 46 view .LVU317
 1237 0070 AE61     		str	r6, [r5, #24]	@ float
 1238              	.LBE528:
 1239              	.LBE527:
 1240              	.LBB530:
 1241              	.LBB509:
  54:../../DaisySP//Source/Synthesis/oscillator.h ****         amp_       = 0.5f;
 1242              		.loc 12 54 20 view .LVU318
 1243 0072 84ED028A 		vstr.32	s16, [r4, #8]
  57:../../DaisySP//Source/Synthesis/oscillator.h ****         phase_inc_ = CalcPhaseInc(freq_);
 1244              		.loc 12 57 20 view .LVU319
 1245 0076 A661     		str	r6, [r4, #24]	@ float
 1246              	.LBE509:
 1247              	.LBE530:
 1248              	.LBB531:
 1249              	.LBB501:
  59:../../DaisySP//Source/Synthesis/oscillator.h ****         eoc_       = true;
 1250              		.loc 12 59 20 view .LVU320
 1251 0078 2F70     		strb	r7, [r5]
  60:../../DaisySP//Source/Synthesis/oscillator.h ****         eor_       = true;
 1252              		.loc 12 60 9 is_stmt 1 view .LVU321
  61:../../DaisySP//Source/Synthesis/oscillator.h ****     }
 1253              		.loc 12 61 9 view .LVU322
  61:../../DaisySP//Source/Synthesis/oscillator.h ****     }
 1254              		.loc 12 61 20 is_stmt 0 view .LVU323
 1255 007a A5F82890 		strh	r9, [r5, #40]	@ movhi
 1256              	.LVL65:
  61:../../DaisySP//Source/Synthesis/oscillator.h ****     }
 1257              		.loc 12 61 20 view .LVU324
 1258              	.LBE501:
 1259              	.LBE531:
  86:daisytusen.cpp ****     sine.SetAmp(0.25f);
 1260              		.loc 14 86 5 is_stmt 1 view .LVU325
 1261              	.LBB532:
 1262              	.LBI515:
  76:../../DaisySP//Source/Synthesis/oscillator.h ****     /** Sets the waveform to be synthesized by the Process() function.
 1263              		.loc 12 76 17 view .LVU326
ARM GAS  /var/folders/z2/7_lhr9dn53s9tj4s0rwtyswm0000gn/T//ccooqcSF.s 			page 55


 1264              	.LBB518:
  76:../../DaisySP//Source/Synthesis/oscillator.h ****     /** Sets the waveform to be synthesized by the Process() function.
 1265              		.loc 12 76 41 view .LVU327
  76:../../DaisySP//Source/Synthesis/oscillator.h ****     /** Sets the waveform to be synthesized by the Process() function.
 1266              		.loc 12 76 41 is_stmt 0 view .LVU328
 1267              	.LBE518:
 1268              	.LBE532:
  87:daisytusen.cpp ****     sine.Reset();
 1269              		.loc 14 87 5 is_stmt 1 view .LVU329
 1270              	.LBB533:
 1271              	.LBI527:
 1272              		.loc 12 113 10 view .LVU330
 1273              	.LBB529:
 1274              		.loc 12 113 39 view .LVU331
 1275              		.loc 12 113 39 is_stmt 0 view .LVU332
 1276              	.LBE529:
 1277              	.LBE533:
  88:daisytusen.cpp ****     saw.Init(48000);
 1278              		.loc 14 88 5 is_stmt 1 view .LVU333
 1279              	.LBB534:
 1280              	.LBI504:
  50:../../DaisySP//Source/Synthesis/oscillator.h ****     {
 1281              		.loc 12 50 10 view .LVU334
 1282              	.LBB510:
  52:../../DaisySP//Source/Synthesis/oscillator.h ****         sr_recip_  = 1.0f / sample_rate;
 1283              		.loc 12 52 9 view .LVU335
  53:../../DaisySP//Source/Synthesis/oscillator.h ****         freq_      = 100.0f;
 1284              		.loc 12 53 9 view .LVU336
  54:../../DaisySP//Source/Synthesis/oscillator.h ****         amp_       = 0.5f;
 1285              		.loc 12 54 9 view .LVU337
  55:../../DaisySP//Source/Synthesis/oscillator.h ****         pw_        = 0.5f;
 1286              		.loc 12 55 9 view .LVU338
  56:../../DaisySP//Source/Synthesis/oscillator.h ****         phase_     = 0.0f;
 1287              		.loc 12 56 9 view .LVU339
  57:../../DaisySP//Source/Synthesis/oscillator.h ****         phase_inc_ = CalcPhaseInc(freq_);
 1288              		.loc 12 57 9 view .LVU340
  58:../../DaisySP//Source/Synthesis/oscillator.h ****         waveform_  = WAVE_SIN;
 1289              		.loc 12 58 9 view .LVU341
  58:../../DaisySP//Source/Synthesis/oscillator.h ****         waveform_  = WAVE_SIN;
 1290              		.loc 12 58 34 is_stmt 0 view .LVU342
 1291 007e FFF7FEFF 		bl	_ZN7daisysp10Oscillator12CalcPhaseIncEf
 1292              	.LVL66:
 1293              	.LBE510:
 1294              	.LBE534:
 1295              	.LBB535:
 1296              	.LBB536:
 1297              	.LBB537:
 1298              	.LBB538:
  42:../../DaisySP//Source/Utility/delayline.h ****         }
 1299              		.loc 13 42 22 view .LVU343
 1300 0082 144B     		ldr	r3, .L36+16
 1301              	.LBE538:
 1302              	.LBE537:
 1303              	.LBE536:
 1304              	.LBE535:
 1305              	.LBB554:
 1306              	.LBB555:
ARM GAS  /var/folders/z2/7_lhr9dn53s9tj4s0rwtyswm0000gn/T//ccooqcSF.s 			page 56


  81:../../DaisySP//Source/Synthesis/oscillator.h ****     }
 1307              		.loc 12 81 19 view .LVU344
 1308 0084 0322     		movs	r2, #3
 1309              	.LBE555:
 1310              	.LBE554:
 1311              	.LBB558:
 1312              	.LBB549:
 1313              	.LBB544:
 1314              	.LBB539:
  42:../../DaisySP//Source/Utility/delayline.h ****         }
 1315              		.loc 13 42 22 view .LVU345
 1316 0086 3946     		mov	r1, r7
 1317              	.LBE539:
 1318              	.LBE544:
 1319              	.LBE549:
 1320              	.LBE558:
 1321              	.LBB559:
 1322              	.LBB511:
  58:../../DaisySP//Source/Synthesis/oscillator.h ****         waveform_  = WAVE_SIN;
 1323              		.loc 12 58 20 view .LVU346
 1324 0088 84ED070A 		vstr.32	s0, [r4, #28]
  59:../../DaisySP//Source/Synthesis/oscillator.h ****         eoc_       = true;
 1325              		.loc 12 59 9 is_stmt 1 view .LVU347
  60:../../DaisySP//Source/Synthesis/oscillator.h ****         eor_       = true;
 1326              		.loc 12 60 9 view .LVU348
  61:../../DaisySP//Source/Synthesis/oscillator.h ****     }
 1327              		.loc 12 61 9 view .LVU349
 1328              	.LVL67:
  61:../../DaisySP//Source/Synthesis/oscillator.h ****     }
 1329              		.loc 12 61 9 is_stmt 0 view .LVU350
 1330              	.LBE511:
 1331              	.LBE559:
  89:daisytusen.cpp ****     saw.SetWaveform(3);
 1332              		.loc 14 89 5 is_stmt 1 view .LVU351
 1333              	.LBB560:
 1334              	.LBI554:
  79:../../DaisySP//Source/Synthesis/oscillator.h ****     {
 1335              		.loc 12 79 17 view .LVU352
 1336              	.LBB556:
  81:../../DaisySP//Source/Synthesis/oscillator.h ****     }
 1337              		.loc 12 81 9 view .LVU353
 1338              	.LBE556:
 1339              	.LBE560:
 1340              	.LBB561:
 1341              	.LBB550:
 1342              	.LBB545:
 1343              	.LBB540:
  42:../../DaisySP//Source/Utility/delayline.h ****         }
 1344              		.loc 13 42 22 is_stmt 0 view .LVU354
 1345 008c 1846     		mov	r0, r3
 1346              	.LBE540:
 1347              	.LBE545:
 1348              	.LBE550:
 1349              	.LBE561:
 1350              	.LBB562:
 1351              	.LBB557:
  81:../../DaisySP//Source/Synthesis/oscillator.h ****     }
ARM GAS  /var/folders/z2/7_lhr9dn53s9tj4s0rwtyswm0000gn/T//ccooqcSF.s 			page 57


 1352              		.loc 12 81 19 view .LVU355
 1353 008e 2270     		strb	r2, [r4]
 1354              	.LVL68:
  81:../../DaisySP//Source/Synthesis/oscillator.h ****     }
 1355              		.loc 12 81 19 view .LVU356
 1356              	.LBE557:
 1357              	.LBE562:
  90:daisytusen.cpp ****     saw.SetAmp(0.25f);
 1358              		.loc 14 90 5 is_stmt 1 view .LVU357
 1359              	.LBB563:
 1360              	.LBI563:
  76:../../DaisySP//Source/Synthesis/oscillator.h ****     /** Sets the waveform to be synthesized by the Process() function.
 1361              		.loc 12 76 17 view .LVU358
 1362              	.LBB564:
  76:../../DaisySP//Source/Synthesis/oscillator.h ****     /** Sets the waveform to be synthesized by the Process() function.
 1363              		.loc 12 76 41 view .LVU359
  76:../../DaisySP//Source/Synthesis/oscillator.h ****     /** Sets the waveform to be synthesized by the Process() function.
 1364              		.loc 12 76 41 is_stmt 0 view .LVU360
 1365              	.LBE564:
 1366              	.LBE563:
  91:daisytusen.cpp ****     saw.Reset();
 1367              		.loc 14 91 5 is_stmt 1 view .LVU361
 1368              	.LBB566:
 1369              	.LBI566:
 1370              		.loc 12 113 10 view .LVU362
 1371              	.LBB567:
 1372              		.loc 12 113 39 view .LVU363
 1373              		.loc 12 113 39 is_stmt 0 view .LVU364
 1374              	.LBE567:
 1375              	.LBE566:
 1376              	.LBB569:
 1377              	.LBB551:
 1378              	.LBB546:
 1379              	.LBB541:
  40:../../DaisySP//Source/Utility/delayline.h ****         {
 1380              		.loc 13 40 29 is_stmt 1 view .LVU365
  42:../../DaisySP//Source/Utility/delayline.h ****         }
 1381              		.loc 13 42 22 is_stmt 0 view .LVU366
 1382 0090 114A     		ldr	r2, .L36+20
 1383              	.LBE541:
 1384              	.LBE546:
 1385              	.LBE551:
 1386              	.LBE569:
 1387              	.LBB570:
 1388              	.LBB512:
  61:../../DaisySP//Source/Synthesis/oscillator.h ****     }
 1389              		.loc 12 61 20 view .LVU367
 1390 0092 A4F82890 		strh	r9, [r4, #40]	@ movhi
 1391              	.LBE512:
 1392              	.LBE570:
 1393              	.LBB571:
 1394              	.LBB565:
  76:../../DaisySP//Source/Synthesis/oscillator.h ****     /** Sets the waveform to be synthesized by the Process() function.
 1395              		.loc 12 76 46 view .LVU368
 1396 0096 C4F80480 		str	r8, [r4, #4]	@ float
 1397              	.LBE565:
 1398              	.LBE571:
ARM GAS  /var/folders/z2/7_lhr9dn53s9tj4s0rwtyswm0000gn/T//ccooqcSF.s 			page 58


 1399              	.LBB572:
 1400              	.LBB568:
 1401              		.loc 12 113 46 view .LVU369
 1402 009a A661     		str	r6, [r4, #24]	@ float
 1403              	.LBE568:
 1404              	.LBE572:
 1405              	.LBB573:
 1406              	.LBB552:
 1407              	.LBB547:
 1408              	.LBB542:
  42:../../DaisySP//Source/Utility/delayline.h ****         }
 1409              		.loc 13 42 22 view .LVU370
 1410 009c FFF7FEFF 		bl	memset
 1411              	.LVL69:
 1412              	.LBE542:
 1413              	.LBE547:
 1414              	.LBE552:
 1415              	.LBE573:
 1416              	.LBB574:
 1417              	.LBB575:
  54:../../DaisySP//Source/Utility/delayline.h ****     }
 1418              		.loc 13 54 16 view .LVU371
 1419 00a0 45F6BF52 		movw	r2, #23999
 1420              	.LBE575:
 1421              	.LBE574:
 1422              	.LBB577:
 1423              	.LBB553:
 1424              	.LBB548:
 1425              	.LBB543:
  42:../../DaisySP//Source/Utility/delayline.h ****         }
 1426              		.loc 13 42 22 view .LVU372
 1427 00a4 0346     		mov	r3, r0
 1428              	.LVL70:
  42:../../DaisySP//Source/Utility/delayline.h ****         }
 1429              		.loc 13 42 22 view .LVU373
 1430              	.LBE543:
 1431              	.LBE548:
 1432              	.LBE553:
 1433              	.LBE577:
  92:daisytusen.cpp ****     
  93:daisytusen.cpp ****     delay.Init();
  94:daisytusen.cpp ****     delay.SetDelay(static_cast<size_t>(24000));
  95:daisytusen.cpp **** 
  96:daisytusen.cpp ****     hw.StartAdc();
 1434              		.loc 14 96 16 view .LVU374
 1435 00a6 0748     		ldr	r0, .L36
 1436              	.LBB578:
 1437              	.LBB576:
  53:../../DaisySP//Source/Utility/delayline.h ****         delay_ = delay < max_size ? delay : max_size - 1;
 1438              		.loc 13 53 16 view .LVU375
 1439 00a8 43F80C6C 		str	r6, [r3, #-12]	@ float
  54:../../DaisySP//Source/Utility/delayline.h ****     }
 1440              		.loc 13 54 16 view .LVU376
 1441 00ac 43E90272 		strd	r7, r2, [r3, #-8]
 1442              	.LBE576:
 1443              	.LBE578:
 1444              		.loc 14 96 5 is_stmt 1 view .LVU377
ARM GAS  /var/folders/z2/7_lhr9dn53s9tj4s0rwtyswm0000gn/T//ccooqcSF.s 			page 59


 1445              		.loc 14 96 16 is_stmt 0 view .LVU378
 1446 00b0 FFF7FEFF 		bl	_ZN5daisy10Tusenskona8StartAdcEv
 1447              	.LVL71:
  97:daisytusen.cpp ****     hw.StartAudio(AudioCallback);
 1448              		.loc 14 97 5 is_stmt 1 view .LVU379
 1449              		.loc 14 97 18 is_stmt 0 view .LVU380
 1450 00b4 0949     		ldr	r1, .L36+24
 1451 00b6 0348     		ldr	r0, .L36
 1452 00b8 FFF7FEFF 		bl	_ZN5daisy10Tusenskona10StartAudioEPFvPKPKfPPfjE
 1453              	.LVL72:
 1454              	.L34:
  98:daisytusen.cpp **** 
  99:daisytusen.cpp ****     while(1) {
 1455              		.loc 14 99 5 is_stmt 1 discriminator 1 view .LVU381
 100:daisytusen.cpp ****         UpdateControls();
 1456              		.loc 14 100 9 discriminator 1 view .LVU382
 1457              		.loc 14 100 23 is_stmt 0 discriminator 1 view .LVU383
 1458 00bc FFF7FEFF 		bl	_Z14UpdateControlsv
 1459              	.LVL73:
  99:daisytusen.cpp ****         UpdateControls();
 1460              		.loc 14 99 5 is_stmt 1 discriminator 1 view .LVU384
 1461 00c0 FCE7     		b	.L34
 1462              	.L37:
 1463 00c2 00BF     		.align	2
 1464              	.L36:
 1465 00c4 00000000 		.word	.LANCHOR2
 1466 00c8 00000000 		.word	.LANCHOR0
 1467 00cc 0000C842 		.word	1120403456
 1468 00d0 00000000 		.word	.LANCHOR1
 1469 00d4 0C000000 		.word	delay+12
 1470 00d8 00770100 		.word	96000
 1471 00dc 00000000 		.word	_Z13AudioCallbackPKPKfPPfj
 1472 00e0 3EC3AE37 		.word	934200126
 1473 00e4 00803B47 		.word	1195081728
 1474              		.cfi_endproc
 1475              	.LFE4749:
 1477              		.section	.text.startup._GLOBAL__sub_I_hw,"ax",%progbits
 1478              		.align	1
 1479              		.p2align 2,,3
 1480              		.syntax unified
 1481              		.thumb
 1482              		.thumb_func
 1484              	_GLOBAL__sub_I_hw:
 1485              	.LFB5325:
 101:daisytusen.cpp ****     }
 102:daisytusen.cpp **** }
 1486              		.loc 14 102 1 view -0
 1487              		.cfi_startproc
 1488              		@ args = 0, pretend = 0, frame = 0
 1489              		@ frame_needed = 0, uses_anonymous_args = 0
 1490              	.LBB632:
 1491              	.LBI632:
 1492              		.loc 14 102 1 view .LVU386
 1493              	.LVL74:
 1494              	.LBB633:
 1495              	.LBB634:
 1496              	.LBI634:
ARM GAS  /var/folders/z2/7_lhr9dn53s9tj4s0rwtyswm0000gn/T//ccooqcSF.s 			page 60


  30:../../tusenskona//src/tusenskona.h ****     ~Tusenskona() {}
 1497              		.loc 1 30 5 view .LVU387
 1498              	.LBB635:
 1499              	.LBB636:
 1500              	.LBI636:
  21:../../libDaisy//src/daisy_seed.h ****     ~DaisySeed() {}
 1501              		.loc 7 21 5 view .LVU388
 1502              	.LBB637:
 1503              	.LBB638:
 1504              	.LBI638:
 1505              		.file 17 "../../libDaisy//src/per/qspi.h"
   1:../../libDaisy//src/per/qspi.h **** #ifndef DSY_QSPI
   2:../../libDaisy//src/per/qspi.h **** #define DSY_QSPI /**< Macro */
   3:../../libDaisy//src/per/qspi.h **** 
   4:../../libDaisy//src/per/qspi.h **** #ifndef UNIT_TEST // for unit tests, a dummy implementation
   5:../../libDaisy//src/per/qspi.h **** 
   6:../../libDaisy//src/per/qspi.h **** #include <cstdint>
   7:../../libDaisy//src/per/qspi.h **** #include "daisy_core.h" // Added for dsy_gpio_pin typedef
   8:../../libDaisy//src/per/qspi.h **** 
   9:../../libDaisy//src/per/qspi.h **** #define DSY_QSPI_TEXT       \
  10:../../libDaisy//src/per/qspi.h ****     __attribute__((section( \
  11:../../libDaisy//src/per/qspi.h ****         ".qspiflash_text"))) /**< used for reading memory in memory_mapped mode. */
  12:../../libDaisy//src/per/qspi.h **** #define DSY_QSPI_DATA       \
  13:../../libDaisy//src/per/qspi.h ****     __attribute__((section( \
  14:../../libDaisy//src/per/qspi.h ****         ".qspiflash_data"))) /**< used for reading memory in memory_mapped mode. */
  15:../../libDaisy//src/per/qspi.h **** #define DSY_QSPI_BSS        \
  16:../../libDaisy//src/per/qspi.h ****     __attribute__((section( \
  17:../../libDaisy//src/per/qspi.h ****         ".qspiflash_bss"))) /**< used for reading memory in memory_mapped mode. */
  18:../../libDaisy//src/per/qspi.h **** 
  19:../../libDaisy//src/per/qspi.h **** namespace daisy
  20:../../libDaisy//src/per/qspi.h **** {
  21:../../libDaisy//src/per/qspi.h **** /** @addtogroup serial
  22:../../libDaisy//src/per/qspi.h **** @{
  23:../../libDaisy//src/per/qspi.h **** */
  24:../../libDaisy//src/per/qspi.h **** 
  25:../../libDaisy//src/per/qspi.h **** /** 
  26:../../libDaisy//src/per/qspi.h ****  Driver for QSPI peripheral to interface with external flash memory. \n 
  27:../../libDaisy//src/per/qspi.h ****     Currently supported QSPI Devices: \n 
  28:../../libDaisy//src/per/qspi.h ****     * IS25LP080D
  29:../../libDaisy//src/per/qspi.h **** */
  30:../../libDaisy//src/per/qspi.h **** class QSPIHandle
  31:../../libDaisy//src/per/qspi.h **** {
  32:../../libDaisy//src/per/qspi.h ****   public:
  33:../../libDaisy//src/per/qspi.h ****     enum Result
  34:../../libDaisy//src/per/qspi.h ****     {
  35:../../libDaisy//src/per/qspi.h ****         OK = 0,
  36:../../libDaisy//src/per/qspi.h ****         ERR
  37:../../libDaisy//src/per/qspi.h ****     };
  38:../../libDaisy//src/per/qspi.h **** 
  39:../../libDaisy//src/per/qspi.h ****     /** Indicates the current status of the module. 
  40:../../libDaisy//src/per/qspi.h ****          *  Warnings are indicated by a leading W.
  41:../../libDaisy//src/per/qspi.h ****          *  Errors are indicated by a leading E and cause an immediate exit.
  42:../../libDaisy//src/per/qspi.h ****          * 
  43:../../libDaisy//src/per/qspi.h ****          *  \param GOOD - No errors have been reported.
  44:../../libDaisy//src/per/qspi.h ****          *  \param E_HAL_ERROR - HAL code did not return HAL_OK.
  45:../../libDaisy//src/per/qspi.h ****          *  \param E_SWITCHING_MODES - An error was encountered while switching QSPI peripheral mod
  46:../../libDaisy//src/per/qspi.h ****          *  \param E_INVALID_MODE - QSPI should not be written to while the program is executing fr
ARM GAS  /var/folders/z2/7_lhr9dn53s9tj4s0rwtyswm0000gn/T//ccooqcSF.s 			page 61


  47:../../libDaisy//src/per/qspi.h ****          */
  48:../../libDaisy//src/per/qspi.h ****     enum Status
  49:../../libDaisy//src/per/qspi.h ****     {
  50:../../libDaisy//src/per/qspi.h ****         GOOD = 0,
  51:../../libDaisy//src/per/qspi.h ****         E_HAL_ERROR,
  52:../../libDaisy//src/per/qspi.h ****         E_SWITCHING_MODES,
  53:../../libDaisy//src/per/qspi.h ****         E_INVALID_MODE,
  54:../../libDaisy//src/per/qspi.h ****     };
  55:../../libDaisy//src/per/qspi.h **** 
  56:../../libDaisy//src/per/qspi.h ****     /** Configuration structure for interfacing with QSPI Driver */
  57:../../libDaisy//src/per/qspi.h ****     struct Config
  58:../../libDaisy//src/per/qspi.h ****     {
  59:../../libDaisy//src/per/qspi.h ****         /** Flash Devices supported. (Both of these are more-or-less the same, just different sizes
  60:../../libDaisy//src/per/qspi.h ****         enum Device
  61:../../libDaisy//src/per/qspi.h ****         {
  62:../../libDaisy//src/per/qspi.h ****             IS25LP080D,  /**< & */
  63:../../libDaisy//src/per/qspi.h ****             IS25LP064A,  /**< & */
  64:../../libDaisy//src/per/qspi.h ****             DEVICE_LAST, /**< & */
  65:../../libDaisy//src/per/qspi.h ****         };
  66:../../libDaisy//src/per/qspi.h **** 
  67:../../libDaisy//src/per/qspi.h ****         /** 
  68:../../libDaisy//src/per/qspi.h ****         Modes of operation.
  69:../../libDaisy//src/per/qspi.h ****         Memory Mapped mode: QSPI configured so that the QSPI can be
  70:../../libDaisy//src/per/qspi.h ****         read from starting address 0x90000000. Writing is not
  71:../../libDaisy//src/per/qspi.h ****         possible in this mode. \n 
  72:../../libDaisy//src/per/qspi.h ****         Indirect Polling mode: Device driver enabled. 
  73:../../libDaisy//src/per/qspi.h ****         */
  74:../../libDaisy//src/per/qspi.h ****         enum Mode
  75:../../libDaisy//src/per/qspi.h ****         {
  76:../../libDaisy//src/per/qspi.h ****             MEMORY_MAPPED,    /**< & */
  77:../../libDaisy//src/per/qspi.h ****             INDIRECT_POLLING, /**< & */
  78:../../libDaisy//src/per/qspi.h ****             MODE_LAST,
  79:../../libDaisy//src/per/qspi.h ****         };
  80:../../libDaisy//src/per/qspi.h **** 
  81:../../libDaisy//src/per/qspi.h ****         //SCK,  CE# (active low)
  82:../../libDaisy//src/per/qspi.h ****         struct
  83:../../libDaisy//src/per/qspi.h ****         {
  84:../../libDaisy//src/per/qspi.h ****             dsy_gpio_pin io0; /**< & */
  85:../../libDaisy//src/per/qspi.h ****             dsy_gpio_pin io1; /**< & */
  86:../../libDaisy//src/per/qspi.h ****             dsy_gpio_pin io2; /**< & */
  87:../../libDaisy//src/per/qspi.h ****             dsy_gpio_pin io3; /**< & */
  88:../../libDaisy//src/per/qspi.h ****             dsy_gpio_pin clk; /**< & */
  89:../../libDaisy//src/per/qspi.h ****             dsy_gpio_pin ncs; /**< & */
  90:../../libDaisy//src/per/qspi.h ****         } pin_config;
  91:../../libDaisy//src/per/qspi.h **** 
  92:../../libDaisy//src/per/qspi.h ****         Device device;
  93:../../libDaisy//src/per/qspi.h ****         Mode   mode;
  94:../../libDaisy//src/per/qspi.h ****     };
  95:../../libDaisy//src/per/qspi.h **** 
  96:../../libDaisy//src/per/qspi.h ****     /** 
  97:../../libDaisy//src/per/qspi.h ****         Initializes QSPI peripheral, and Resets, and prepares memory for access.
  98:../../libDaisy//src/per/qspi.h ****         \param config should be populated with the mode, device and pin_config before calling this 
  99:../../libDaisy//src/per/qspi.h ****         \return Result::OK or Result::ERR
 100:../../libDaisy//src/per/qspi.h ****         */
 101:../../libDaisy//src/per/qspi.h ****     Result Init(const Config& config);
 102:../../libDaisy//src/per/qspi.h **** 
 103:../../libDaisy//src/per/qspi.h ****     /** Returns the current config. */
ARM GAS  /var/folders/z2/7_lhr9dn53s9tj4s0rwtyswm0000gn/T//ccooqcSF.s 			page 62


 104:../../libDaisy//src/per/qspi.h ****     const Config& GetConfig() const;
 105:../../libDaisy//src/per/qspi.h **** 
 106:../../libDaisy//src/per/qspi.h ****     // Couldn't this just be called before anything else in init? That
 107:../../libDaisy//src/per/qspi.h ****     // would make manually calling it unnecessary.
 108:../../libDaisy//src/per/qspi.h ****     /** 
 109:../../libDaisy//src/per/qspi.h ****         Deinitializes the peripheral
 110:../../libDaisy//src/per/qspi.h ****         This should be called before reinitializing QSPI in a different mode.
 111:../../libDaisy//src/per/qspi.h ****         \return Result::OK or Result::ERR
 112:../../libDaisy//src/per/qspi.h ****         */
 113:../../libDaisy//src/per/qspi.h ****     Result DeInit();
 114:../../libDaisy//src/per/qspi.h **** 
 115:../../libDaisy//src/per/qspi.h ****     /** 
 116:../../libDaisy//src/per/qspi.h ****         Writes a single page to to the specified address on the QSPI chip.
 117:../../libDaisy//src/per/qspi.h ****         For IS25LP*, page size is 256 bytes.
 118:../../libDaisy//src/per/qspi.h ****         \param address Address to write to
 119:../../libDaisy//src/per/qspi.h ****         \param size Buffer size
 120:../../libDaisy//src/per/qspi.h ****         \param buffer Buffer to write
 121:../../libDaisy//src/per/qspi.h ****         \return Result::OK or Result::ERR
 122:../../libDaisy//src/per/qspi.h ****         */
 123:../../libDaisy//src/per/qspi.h ****     Result WritePage(uint32_t address, uint32_t size, uint8_t* buffer);
 124:../../libDaisy//src/per/qspi.h **** 
 125:../../libDaisy//src/per/qspi.h ****     /** 
 126:../../libDaisy//src/per/qspi.h ****         Writes data in buffer to to the QSPI. Starting at address to address+size 
 127:../../libDaisy//src/per/qspi.h ****         \param address Address to write to
 128:../../libDaisy//src/per/qspi.h ****         \param size Buffer size
 129:../../libDaisy//src/per/qspi.h ****         \param buffer Buffer to write
 130:../../libDaisy//src/per/qspi.h ****         \return Result::OK or Result::ERR
 131:../../libDaisy//src/per/qspi.h ****         */
 132:../../libDaisy//src/per/qspi.h ****     Result Write(uint32_t address, uint32_t size, uint8_t* buffer);
 133:../../libDaisy//src/per/qspi.h **** 
 134:../../libDaisy//src/per/qspi.h ****     /** 
 135:../../libDaisy//src/per/qspi.h ****         Erases the area specified on the chip.
 136:../../libDaisy//src/per/qspi.h ****         Erasures will happen by 4K, 32K or 64K increments.
 137:../../libDaisy//src/per/qspi.h ****         Smallest erase possible is 4kB at a time. (on IS25LP*)
 138:../../libDaisy//src/per/qspi.h ****         \param start_addr Address to begin erasing from
 139:../../libDaisy//src/per/qspi.h ****         \param end_addr  Address to stop erasing at
 140:../../libDaisy//src/per/qspi.h ****         \return Result::OK or Result::ERR
 141:../../libDaisy//src/per/qspi.h ****         */
 142:../../libDaisy//src/per/qspi.h ****     Result Erase(uint32_t start_addr, uint32_t end_addr);
 143:../../libDaisy//src/per/qspi.h **** 
 144:../../libDaisy//src/per/qspi.h ****     /**  
 145:../../libDaisy//src/per/qspi.h ****          Erases a single sector of the chip.  
 146:../../libDaisy//src/per/qspi.h ****         TODO: Document the size of this function. 
 147:../../libDaisy//src/per/qspi.h ****         \param address Address of sector to erase
 148:../../libDaisy//src/per/qspi.h ****         \return Result::OK or Result::ERR
 149:../../libDaisy//src/per/qspi.h ****         */
 150:../../libDaisy//src/per/qspi.h ****     Result EraseSector(uint32_t address);
 151:../../libDaisy//src/per/qspi.h **** 
 152:../../libDaisy//src/per/qspi.h ****     /** Returns the current class status. Useful for debugging.
 153:../../libDaisy//src/per/qspi.h ****      *  \returns Status
 154:../../libDaisy//src/per/qspi.h ****      */
 155:../../libDaisy//src/per/qspi.h ****     Status GetStatus();
 156:../../libDaisy//src/per/qspi.h **** 
 157:../../libDaisy//src/per/qspi.h ****     /** Returns a pointer to the actual memory used 
 158:../../libDaisy//src/per/qspi.h ****      *  The memory at this address is read-only
 159:../../libDaisy//src/per/qspi.h ****      *  to write to it use the Write function.
 160:../../libDaisy//src/per/qspi.h ****      * 
ARM GAS  /var/folders/z2/7_lhr9dn53s9tj4s0rwtyswm0000gn/T//ccooqcSF.s 			page 63


 161:../../libDaisy//src/per/qspi.h ****      *  \param offset returns the pointer starting this 
 162:../../libDaisy//src/per/qspi.h ****      *                many bytes into the memory
 163:../../libDaisy//src/per/qspi.h ****     */
 164:../../libDaisy//src/per/qspi.h ****     void* GetData(uint32_t offset = 0);
 165:../../libDaisy//src/per/qspi.h **** 
 166:../../libDaisy//src/per/qspi.h ****     QSPIHandle() : pimpl_(nullptr) {}
 1506              		.loc 17 166 5 view .LVU389
 1507              	.LBE638:
 1508              	.LBE637:
 1509              	.LBE636:
 1510              	.LBE635:
 1511              	.LBE634:
 1512              	.LBE633:
 1513              	.LBE632:
 1514              		.loc 14 102 1 is_stmt 0 view .LVU390
 1515 0000 08B5     		push	{r3, lr}
 1516              		.cfi_def_cfa_offset 8
 1517              		.cfi_offset 3, -8
 1518              		.cfi_offset 14, -4
 1519              	.LBB684:
 1520              	.LBB682:
 1521              	.LBB677:
 1522              	.LBB675:
 1523              	.LBB659:
 1524              	.LBB657:
 1525              	.LBB643:
 1526              	.LBB639:
 1527              	.LBB640:
 1528              		.loc 17 166 34 view .LVU391
 1529 0002 0D48     		ldr	r0, .L40
 1530 0004 0023     		movs	r3, #0
 1531              	.LBE640:
 1532              	.LBE639:
 1533              	.LBE643:
 1534              	.LBE657:
 1535              	.LBE659:
 1536              	.LBE675:
 1537              	.LBE677:
   8:daisytusen.cpp **** 
 1538              		.loc 14 8 12 view .LVU392
 1539 0006 0D4A     		ldr	r2, .L40+4
 1540              	.LBB678:
 1541              	.LBB676:
 1542              	.LBB660:
 1543              	.LBB658:
 1544              	.LBB644:
 1545              	.LBB642:
 1546              	.LBB641:
 1547              		.loc 17 166 34 view .LVU393
 1548 0008 0360     		str	r3, [r0]
 1549              	.LVL75:
 1550              		.loc 17 166 34 view .LVU394
 1551              	.LBE641:
 1552              	.LBE642:
 1553              	.LBE644:
 1554              	.LBB645:
 1555              	.LBI645:
ARM GAS  /var/folders/z2/7_lhr9dn53s9tj4s0rwtyswm0000gn/T//ccooqcSF.s 			page 64


  87:../../libDaisy//src/hid/audio.h ****     ~AudioHandle() {}
 1556              		.loc 11 87 5 is_stmt 1 view .LVU395
 1557              	.LBB646:
 1558              	.LBB647:
  87:../../libDaisy//src/hid/audio.h ****     ~AudioHandle() {}
 1559              		.loc 11 87 35 is_stmt 0 view .LVU396
 1560 000a 4361     		str	r3, [r0, #20]
 1561              	.LVL76:
  87:../../libDaisy//src/hid/audio.h ****     ~AudioHandle() {}
 1562              		.loc 11 87 35 view .LVU397
 1563              	.LBE647:
 1564              	.LBE646:
 1565              	.LBE645:
 1566              	.LBB648:
 1567              	.LBI648:
 109:../../libDaisy//src/per/adc.h ****     ~AdcHandle() {}
 1568              		.loc 10 109 5 is_stmt 1 view .LVU398
 109:../../libDaisy//src/per/adc.h ****     ~AdcHandle() {}
 1569              		.loc 10 109 5 is_stmt 0 view .LVU399
 1570              	.LBE648:
 1571              	.LBB649:
 1572              	.LBI649:
 1573              		.file 18 "../../libDaisy//src/per/dac.h"
   1:../../libDaisy//src/per/dac.h **** #pragma once
   2:../../libDaisy//src/per/dac.h **** #ifndef DSY_DAC_H
   3:../../libDaisy//src/per/dac.h **** #define DSY_DAC_H
   4:../../libDaisy//src/per/dac.h **** 
   5:../../libDaisy//src/per/dac.h **** #include "daisy_core.h"
   6:../../libDaisy//src/per/dac.h **** 
   7:../../libDaisy//src/per/dac.h **** namespace daisy
   8:../../libDaisy//src/per/dac.h **** {
   9:../../libDaisy//src/per/dac.h **** /** @brief DAC handle for Built-in DAC Peripheral 
  10:../../libDaisy//src/per/dac.h ****  *  @ingroup per_analog
  11:../../libDaisy//src/per/dac.h ****  ** 
  12:../../libDaisy//src/per/dac.h ****  ** For now only Normal Mode is supported,
  13:../../libDaisy//src/per/dac.h ****  ** Sample and hold mode provides reduced power consumption, but requires a bit more setup.
  14:../../libDaisy//src/per/dac.h ****  **
  15:../../libDaisy//src/per/dac.h ****  ** For now connecting the DAC through other internal peripherals is also not supported.
  16:../../libDaisy//src/per/dac.h ****  **
  17:../../libDaisy//src/per/dac.h ****  ** Since the DAC channels have dedicated pins we don't need to pass in a pin config like with
  18:../../libDaisy//src/per/dac.h ****  ** other modules. However, it is still important to not try to use the DAC pins for anything else.
  19:../../libDaisy//src/per/dac.h ****  ** DAC Channel 1 is on PA4, and DAC Channel 2 is on PA5
  20:../../libDaisy//src/per/dac.h ****  ***/
  21:../../libDaisy//src/per/dac.h **** class DacHandle
  22:../../libDaisy//src/per/dac.h **** {
  23:../../libDaisy//src/per/dac.h ****   public:
  24:../../libDaisy//src/per/dac.h ****     /** Return Values for the DacHandle class */
  25:../../libDaisy//src/per/dac.h ****     enum class Result
  26:../../libDaisy//src/per/dac.h ****     {
  27:../../libDaisy//src/per/dac.h ****         OK,
  28:../../libDaisy//src/per/dac.h ****         ERR,
  29:../../libDaisy//src/per/dac.h ****     };
  30:../../libDaisy//src/per/dac.h **** 
  31:../../libDaisy//src/per/dac.h ****     /** Selects which channel(s) will be configured for use. */
  32:../../libDaisy//src/per/dac.h ****     enum class Channel
  33:../../libDaisy//src/per/dac.h ****     {
  34:../../libDaisy//src/per/dac.h ****         ONE,
ARM GAS  /var/folders/z2/7_lhr9dn53s9tj4s0rwtyswm0000gn/T//ccooqcSF.s 			page 65


  35:../../libDaisy//src/per/dac.h ****         TWO,
  36:../../libDaisy//src/per/dac.h ****         BOTH,
  37:../../libDaisy//src/per/dac.h ****     };
  38:../../libDaisy//src/per/dac.h **** 
  39:../../libDaisy//src/per/dac.h ****     /** Sets the Mode for the DAC channels.
  40:../../libDaisy//src/per/dac.h ****      **
  41:../../libDaisy//src/per/dac.h ****      ** Polling mode uses the blocking mode to transmit a single value at a time.
  42:../../libDaisy//src/per/dac.h ****      **
  43:../../libDaisy//src/per/dac.h ****      ** DMA mode uses a buffer, and periodically transmits it triggering a 
  44:../../libDaisy//src/per/dac.h ****      ** callback to fill the buffer when it is ready for more samples.
  45:../../libDaisy//src/per/dac.h ****      ***/
  46:../../libDaisy//src/per/dac.h ****     enum class Mode
  47:../../libDaisy//src/per/dac.h ****     {
  48:../../libDaisy//src/per/dac.h ****         POLLING,
  49:../../libDaisy//src/per/dac.h ****         DMA,
  50:../../libDaisy//src/per/dac.h ****     };
  51:../../libDaisy//src/per/dac.h **** 
  52:../../libDaisy//src/per/dac.h ****     /** Sets the number of bits per sample transmitted out of the DAC.
  53:../../libDaisy//src/per/dac.h ****      ** The output range will be: 0V - VDDA
  54:../../libDaisy//src/per/dac.h ****      ** The resolution will be roughly: bitdepth / (VDDA - 0V) 
  55:../../libDaisy//src/per/dac.h ****      ***/
  56:../../libDaisy//src/per/dac.h ****     enum class BitDepth
  57:../../libDaisy//src/per/dac.h ****     {
  58:../../libDaisy//src/per/dac.h ****         BITS_8,
  59:../../libDaisy//src/per/dac.h ****         BITS_12
  60:../../libDaisy//src/per/dac.h ****     };
  61:../../libDaisy//src/per/dac.h **** 
  62:../../libDaisy//src/per/dac.h ****     /** Sets whether the DAC output is buffered for higher drive ability. */
  63:../../libDaisy//src/per/dac.h ****     enum class BufferState
  64:../../libDaisy//src/per/dac.h ****     {
  65:../../libDaisy//src/per/dac.h ****         ENABLED,
  66:../../libDaisy//src/per/dac.h ****         DISABLED,
  67:../../libDaisy//src/per/dac.h ****     };
  68:../../libDaisy//src/per/dac.h **** 
  69:../../libDaisy//src/per/dac.h ****     /** Configuration structure for initializing the DAC structure. */
  70:../../libDaisy//src/per/dac.h ****     struct Config
  71:../../libDaisy//src/per/dac.h ****     {
  72:../../libDaisy//src/per/dac.h ****         /** Target Samplerate in Hz used to configure the internal 
  73:../../libDaisy//src/per/dac.h ****          ** timebase for DMA mode. Does nothing in POLLING mode.
  74:../../libDaisy//src/per/dac.h ****          ** If the value is 0 at Init time this will default to 48000Hz 
  75:../../libDaisy//src/per/dac.h ****          ** otherwise the driver will attempt meet the target.*/
  76:../../libDaisy//src/per/dac.h ****         uint32_t target_samplerate;
  77:../../libDaisy//src/per/dac.h **** 
  78:../../libDaisy//src/per/dac.h ****         Channel     chn;
  79:../../libDaisy//src/per/dac.h ****         Mode        mode;
  80:../../libDaisy//src/per/dac.h ****         BitDepth    bitdepth;
  81:../../libDaisy//src/per/dac.h ****         BufferState buff_state;
  82:../../libDaisy//src/per/dac.h ****     };
  83:../../libDaisy//src/per/dac.h **** 
  84:../../libDaisy//src/per/dac.h ****     DacHandle() : pimpl_(nullptr) {}
 1574              		.loc 18 84 5 is_stmt 1 view .LVU400
 1575              	.LBB650:
 1576              	.LBB651:
 1577              		.loc 18 84 33 is_stmt 0 view .LVU401
 1578 000c 0362     		str	r3, [r0, #32]
 1579              	.LVL77:
 1580              		.loc 18 84 33 view .LVU402
ARM GAS  /var/folders/z2/7_lhr9dn53s9tj4s0rwtyswm0000gn/T//ccooqcSF.s 			page 66


 1581              	.LBE651:
 1582              	.LBE650:
 1583              	.LBE649:
 1584              	.LBB652:
 1585              	.LBI652:
  40:../../libDaisy//src/hid/usb.h **** 
 1586              		.loc 9 40 5 is_stmt 1 view .LVU403
  40:../../libDaisy//src/hid/usb.h **** 
 1587              		.loc 9 40 5 is_stmt 0 view .LVU404
 1588              	.LBE652:
 1589              	.LBB653:
 1590              	.LBI653:
  96:../../libDaisy//src/sys/system.h ****     ~System() {}
 1591              		.loc 8 96 5 is_stmt 1 view .LVU405
  96:../../libDaisy//src/sys/system.h ****     ~System() {}
 1592              		.loc 8 96 5 is_stmt 0 view .LVU406
 1593              	.LBE653:
 1594              	.LBB654:
 1595              	.LBI654:
 1596              		.file 19 "../../libDaisy//src/per/sai.h"
   1:../../libDaisy//src/per/sai.h **** #pragma once
   2:../../libDaisy//src/per/sai.h **** #ifndef DSY_SAI_H
   3:../../libDaisy//src/per/sai.h **** #define DSY_SAI_H
   4:../../libDaisy//src/per/sai.h **** 
   5:../../libDaisy//src/per/sai.h **** #include "daisy_core.h"
   6:../../libDaisy//src/per/sai.h **** 
   7:../../libDaisy//src/per/sai.h **** namespace daisy
   8:../../libDaisy//src/per/sai.h **** {
   9:../../libDaisy//src/per/sai.h **** /** 
  10:../../libDaisy//src/per/sai.h ****  * Support for I2S Audio Protocol with different bit-depth, samplerate options
  11:../../libDaisy//src/per/sai.h ****  * Allows for master or slave, as well as freedom of selecting direction, 
  12:../../libDaisy//src/per/sai.h ****  * and other behavior for each peripheral, and block.
  13:../../libDaisy//src/per/sai.h ****  * 
  14:../../libDaisy//src/per/sai.h ****  * DMA Transfer commands must use buffers located within non-cached memory or use cache maintenance
  15:../../libDaisy//src/per/sai.h ****  * To declare an unitialized global element in the DMA memory section:
  16:../../libDaisy//src/per/sai.h ****  *    int32_t DSY_DMA_BUFFER_SECTOR my_buffer[96];
  17:../../libDaisy//src/per/sai.h ****  *
  18:../../libDaisy//src/per/sai.h ****  * Callback functions will be called once per half of the buffer. In the above example, 
  19:../../libDaisy//src/per/sai.h ****  * the callback function would be called once for every 48 samples.
  20:../../libDaisy//src/per/sai.h ****  * 
  21:../../libDaisy//src/per/sai.h ****  * Use SAI Handle like this:
  22:../../libDaisy//src/per/sai.h ****  * 
  23:../../libDaisy//src/per/sai.h ****  *  SaiHandle::Config sai_config;
  24:../../libDaisy//src/per/sai.h ****  *  sai_config.periph          = SaiHandle::Config::Peripheral::SAI_1;
  25:../../libDaisy//src/per/sai.h ****  *  sai_config.sr              = SaiHandle::Config::SampleRate::SAI_48KHZ;
  26:../../libDaisy//src/per/sai.h ****  *  sai_config.bit_depth       = SaiHandle::Config::BitDepth::SAI_24BIT;
  27:../../libDaisy//src/per/sai.h ****  *  sai_config.a_sync          = SaiHandle::Config::Sync::MASTER;
  28:../../libDaisy//src/per/sai.h ****  *  sai_config.b_sync          = SaiHandle::Config::Sync::SLAVE;
  29:../../libDaisy//src/per/sai.h ****  *  sai_config.a_dir           = SaiHandle::Config::Direction::RECEIVE;
  30:../../libDaisy//src/per/sai.h ****  *  sai_config.b_dir           = SaiHandle::Config::Direction::TRANSMIT;
  31:../../libDaisy//src/per/sai.h ****  *  sai_config.pin_config.fs   = {DSY_GPIOE, 4};
  32:../../libDaisy//src/per/sai.h ****  *  sai_config.pin_config.mclk = {DSY_GPIOE, 2};
  33:../../libDaisy//src/per/sai.h ****  *  sai_config.pin_config.sck  = {DSY_GPIOE, 5};
  34:../../libDaisy//src/per/sai.h ****  *  sai_config.pin_config.sa   = {DSY_GPIOE, 6};
  35:../../libDaisy//src/per/sai.h ****  *  sai_config.pin_config.sb   = {DSY_GPIOE, 3};
  36:../../libDaisy//src/per/sai.h ****  *  // Then Initialize
  37:../../libDaisy//src/per/sai.h ****  *  SaiHandle sai;
ARM GAS  /var/folders/z2/7_lhr9dn53s9tj4s0rwtyswm0000gn/T//ccooqcSF.s 			page 67


  38:../../libDaisy//src/per/sai.h ****  *  sai.Init(sai_config);
  39:../../libDaisy//src/per/sai.h ****  *  // Now you can use it:
  40:../../libDaisy//src/per/sai.h ****  *  sai.StartDma(. . .);
  41:../../libDaisy//src/per/sai.h ****  */
  42:../../libDaisy//src/per/sai.h **** class SaiHandle
  43:../../libDaisy//src/per/sai.h **** {
  44:../../libDaisy//src/per/sai.h ****   public:
  45:../../libDaisy//src/per/sai.h ****     /** Contains settings for initialising an SAI Interface */
  46:../../libDaisy//src/per/sai.h ****     struct Config
  47:../../libDaisy//src/per/sai.h ****     {
  48:../../libDaisy//src/per/sai.h ****         /** Specifies the internal peripheral to use (mapped to different hardware pins) */
  49:../../libDaisy//src/per/sai.h ****         enum class Peripheral
  50:../../libDaisy//src/per/sai.h ****         {
  51:../../libDaisy//src/per/sai.h ****             SAI_1,
  52:../../libDaisy//src/per/sai.h ****             SAI_2,
  53:../../libDaisy//src/per/sai.h ****         };
  54:../../libDaisy//src/per/sai.h **** 
  55:../../libDaisy//src/per/sai.h ****         /** Rate at which samples will be streaming to/from the device. */
  56:../../libDaisy//src/per/sai.h ****         enum class SampleRate
  57:../../libDaisy//src/per/sai.h ****         {
  58:../../libDaisy//src/per/sai.h ****             SAI_8KHZ,
  59:../../libDaisy//src/per/sai.h ****             SAI_16KHZ,
  60:../../libDaisy//src/per/sai.h ****             SAI_32KHZ,
  61:../../libDaisy//src/per/sai.h ****             SAI_48KHZ,
  62:../../libDaisy//src/per/sai.h ****             SAI_96KHZ,
  63:../../libDaisy//src/per/sai.h ****         };
  64:../../libDaisy//src/per/sai.h **** 
  65:../../libDaisy//src/per/sai.h ****         /** Bit Depth that the hardware expects to be transferred to/from the device. */
  66:../../libDaisy//src/per/sai.h ****         enum class BitDepth
  67:../../libDaisy//src/per/sai.h ****         {
  68:../../libDaisy//src/per/sai.h ****             SAI_16BIT,
  69:../../libDaisy//src/per/sai.h ****             SAI_24BIT,
  70:../../libDaisy//src/per/sai.h ****             SAI_32BIT,
  71:../../libDaisy//src/per/sai.h ****         };
  72:../../libDaisy//src/per/sai.h **** 
  73:../../libDaisy//src/per/sai.h ****         /** Specifies whether a particular block is the master or the slave 
  74:../../libDaisy//src/per/sai.h ****          ** If both are set to slave, no MCLK signal will be used, and it is
  75:../../libDaisy//src/per/sai.h ****          ** expected that the codec will have its own xtal.
  76:../../libDaisy//src/per/sai.h ****          */
  77:../../libDaisy//src/per/sai.h ****         enum class Sync
  78:../../libDaisy//src/per/sai.h ****         {
  79:../../libDaisy//src/per/sai.h ****             MASTER,
  80:../../libDaisy//src/per/sai.h ****             SLAVE,
  81:../../libDaisy//src/per/sai.h ****         };
  82:../../libDaisy//src/per/sai.h **** 
  83:../../libDaisy//src/per/sai.h ****         /** Specifies the direction for each peripheral block. */
  84:../../libDaisy//src/per/sai.h ****         enum class Direction
  85:../../libDaisy//src/per/sai.h ****         {
  86:../../libDaisy//src/per/sai.h ****             TRANSMIT,
  87:../../libDaisy//src/per/sai.h ****             RECEIVE,
  88:../../libDaisy//src/per/sai.h ****         };
  89:../../libDaisy//src/per/sai.h **** 
  90:../../libDaisy//src/per/sai.h ****         Peripheral periph;
  91:../../libDaisy//src/per/sai.h ****         struct
  92:../../libDaisy//src/per/sai.h ****         {
  93:../../libDaisy//src/per/sai.h ****             dsy_gpio_pin mclk, fs, sck, sa, sb;
  94:../../libDaisy//src/per/sai.h ****         } pin_config;
ARM GAS  /var/folders/z2/7_lhr9dn53s9tj4s0rwtyswm0000gn/T//ccooqcSF.s 			page 68


  95:../../libDaisy//src/per/sai.h ****         SampleRate sr;
  96:../../libDaisy//src/per/sai.h ****         BitDepth   bit_depth;
  97:../../libDaisy//src/per/sai.h ****         Sync       a_sync, b_sync;
  98:../../libDaisy//src/per/sai.h ****         Direction  a_dir, b_dir;
  99:../../libDaisy//src/per/sai.h ****     };
 100:../../libDaisy//src/per/sai.h **** 
 101:../../libDaisy//src/per/sai.h ****     /** Return values for SAI functions */
 102:../../libDaisy//src/per/sai.h ****     enum class Result
 103:../../libDaisy//src/per/sai.h ****     {
 104:../../libDaisy//src/per/sai.h ****         OK,
 105:../../libDaisy//src/per/sai.h ****         ERR,
 106:../../libDaisy//src/per/sai.h ****     };
 107:../../libDaisy//src/per/sai.h **** 
 108:../../libDaisy//src/per/sai.h ****     SaiHandle() : pimpl_(nullptr) {}
 1597              		.loc 19 108 5 is_stmt 1 view .LVU407
 1598              	.LBB655:
 1599              	.LBB656:
 1600              		.loc 19 108 33 is_stmt 0 view .LVU408
 1601 000e C363     		str	r3, [r0, #60]
 1602              	.LVL78:
 1603              		.loc 19 108 33 view .LVU409
 1604              	.LBE656:
 1605              	.LBE655:
 1606              	.LBE654:
 1607              	.LBE658:
 1608              	.LBE660:
 1609              	.LBB661:
 1610              	.LBI661:
  20:../../libDaisy//src/hid/encoder.h ****     ~Encoder() {}
 1611              		.loc 6 20 5 is_stmt 1 view .LVU410
 1612              	.LBB662:
 1613              	.LBB663:
 1614              	.LBI663:
  41:../../libDaisy//src/hid/switch.h ****     ~Switch() {}
 1615              		.loc 4 41 5 view .LVU411
  41:../../libDaisy//src/hid/switch.h ****     ~Switch() {}
 1616              		.loc 4 41 5 is_stmt 0 view .LVU412
 1617              	.LBE663:
 1618              	.LBE662:
 1619              	.LBE661:
