ARM GAS  /var/folders/z2/7_lhr9dn53s9tj4s0rwtyswm0000gn/T//ccJ9q3ms.s 			page 1


   1              		.cpu cortex-m7
   2              		.arch armv7e-m
   3              		.fpu fpv5-d16
   4              		.eabi_attribute 28, 1
   5              		.eabi_attribute 20, 1
   6              		.eabi_attribute 21, 1
   7              		.eabi_attribute 23, 3
   8              		.eabi_attribute 24, 1
   9              		.eabi_attribute 25, 1
  10              		.eabi_attribute 26, 1
  11              		.eabi_attribute 30, 2
  12              		.eabi_attribute 34, 1
  13              		.eabi_attribute 18, 4
  14              		.file	"chebyshev.cpp"
  15              		.text
  16              	.Ltext0:
  17              		.cfi_sections	.debug_frame
  18              		.section	.text._ZN5daisy10TusenskonaD2Ev,"axG",%progbits,_ZN5daisy10TusenskonaD5Ev,comdat
  19              		.align	1
  20              		.p2align 2,,3
  21              		.weak	_ZN5daisy10TusenskonaD2Ev
  22              		.syntax unified
  23              		.thumb
  24              		.thumb_func
  26              	_ZN5daisy10TusenskonaD2Ev:
  27              	.LVL0:
  28              	.LFB2580:
  29              		.file 1 "../../tusenskona/src/tusenskona.h"
   1:../../tusenskona/src/tusenskona.h **** #ifndef TUSENSKONA_H
   2:../../tusenskona/src/tusenskona.h **** #define TUSENSKONA_H
   3:../../tusenskona/src/tusenskona.h **** 
   4:../../tusenskona/src/tusenskona.h **** #include "daisy_seed.h"
   5:../../tusenskona/src/tusenskona.h **** 
   6:../../tusenskona/src/tusenskona.h **** namespace daisy
   7:../../tusenskona/src/tusenskona.h **** {
   8:../../tusenskona/src/tusenskona.h **** 
   9:../../tusenskona/src/tusenskona.h **** class Tusenskona
  10:../../tusenskona/src/tusenskona.h **** {
  11:../../tusenskona/src/tusenskona.h ****   public:
  12:../../tusenskona/src/tusenskona.h ****     /** Switches */
  13:../../tusenskona/src/tusenskona.h ****     enum Sw
  14:../../tusenskona/src/tusenskona.h ****     {
  15:../../tusenskona/src/tusenskona.h ****         BUTTON_1,    /** & */
  16:../../tusenskona/src/tusenskona.h ****         BUTTON_2,    /** & */
  17:../../tusenskona/src/tusenskona.h ****         BUTTON_LAST, /** &  */
  18:../../tusenskona/src/tusenskona.h ****     };
  19:../../tusenskona/src/tusenskona.h **** 
  20:../../tusenskona/src/tusenskona.h ****     /** Knobs */
  21:../../tusenskona/src/tusenskona.h ****     enum Knob
  22:../../tusenskona/src/tusenskona.h ****     {
  23:../../tusenskona/src/tusenskona.h ****         KNOB_1,    /** &  */
  24:../../tusenskona/src/tusenskona.h ****         KNOB_2,    /** & */
  25:../../tusenskona/src/tusenskona.h ****         KNOB_3,    /** & */
  26:../../tusenskona/src/tusenskona.h ****         KNOB_4,    /** & */
  27:../../tusenskona/src/tusenskona.h ****         KNOB_LAST, /** & */
  28:../../tusenskona/src/tusenskona.h ****     };
  29:../../tusenskona/src/tusenskona.h **** 
ARM GAS  /var/folders/z2/7_lhr9dn53s9tj4s0rwtyswm0000gn/T//ccJ9q3ms.s 			page 2


  30:../../tusenskona/src/tusenskona.h ****     Tusenskona() {}
  31:../../tusenskona/src/tusenskona.h ****     ~Tusenskona() {}
  30              		.loc 1 31 5 view -0
  31              		.cfi_startproc
  32              		@ args = 0, pretend = 0, frame = 0
  33              		@ frame_needed = 0, uses_anonymous_args = 0
  34              		@ link register save eliminated.
  35              	.LBB476:
  36              	.LBI476:
  37              		.file 2 "../../libDaisy//src/hid/rgb_led.h"
   1:../../libDaisy//src/hid/rgb_led.h **** #pragma once
   2:../../libDaisy//src/hid/rgb_led.h **** #ifndef DSY_RGB_LED_H
   3:../../libDaisy//src/hid/rgb_led.h **** #define DSY_RGB_LED_H
   4:../../libDaisy//src/hid/rgb_led.h **** #include "hid/led.h"
   5:../../libDaisy//src/hid/rgb_led.h **** #include "util/color.h"
   6:../../libDaisy//src/hid/rgb_led.h **** 
   7:../../libDaisy//src/hid/rgb_led.h **** namespace daisy
   8:../../libDaisy//src/hid/rgb_led.h **** {
   9:../../libDaisy//src/hid/rgb_led.h **** /** @addtogroup feedback
  10:../../libDaisy//src/hid/rgb_led.h ****     @{
  11:../../libDaisy//src/hid/rgb_led.h **** */
  12:../../libDaisy//src/hid/rgb_led.h **** 
  13:../../libDaisy//src/hid/rgb_led.h **** /** 3x LEDs configured as an RGB for ease of use. */
  14:../../libDaisy//src/hid/rgb_led.h **** class RgbLed
  15:../../libDaisy//src/hid/rgb_led.h **** {
  16:../../libDaisy//src/hid/rgb_led.h ****   public:
  17:../../libDaisy//src/hid/rgb_led.h ****     RgbLed() {}
  18:../../libDaisy//src/hid/rgb_led.h ****     ~RgbLed() {}
  38              		.loc 2 18 5 view .LVU1
  39              	.LBB477:
  40              	.LBI477:
  41              		.file 3 "../../libDaisy//src/hid/led.h"
   1:../../libDaisy//src/hid/led.h **** 
   2:../../libDaisy//src/hid/led.h **** #pragma once
   3:../../libDaisy//src/hid/led.h **** #ifndef DSY_LED_H
   4:../../libDaisy//src/hid/led.h **** #define DSY_LED_H
   5:../../libDaisy//src/hid/led.h **** #include "daisy_core.h"
   6:../../libDaisy//src/hid/led.h **** #include "per/gpio.h"
   7:../../libDaisy//src/hid/led.h **** 
   8:../../libDaisy//src/hid/led.h **** /* TODO - Get this set up to work with the dev_leddriver stuff as well
   9:../../libDaisy//src/hid/led.h **** - Setup Hardware PWM for pins that have it
  10:../../libDaisy//src/hid/led.h **** */
  11:../../libDaisy//src/hid/led.h **** 
  12:../../libDaisy//src/hid/led.h **** namespace daisy
  13:../../libDaisy//src/hid/led.h **** {
  14:../../libDaisy//src/hid/led.h **** /**
  15:../../libDaisy//src/hid/led.h ****     @brief LED Class providing simple Software PWM ability, etc \n 
  16:../../libDaisy//src/hid/led.h ****     Eventually this will work with hardware PWM, and external LED Driver devices as well.
  17:../../libDaisy//src/hid/led.h ****     @author shensley
  18:../../libDaisy//src/hid/led.h ****     @date March 2020
  19:../../libDaisy//src/hid/led.h ****     @ingroup feedback
  20:../../libDaisy//src/hid/led.h **** */
  21:../../libDaisy//src/hid/led.h **** class Led
  22:../../libDaisy//src/hid/led.h **** {
  23:../../libDaisy//src/hid/led.h ****   public:
  24:../../libDaisy//src/hid/led.h ****     Led() {}
  25:../../libDaisy//src/hid/led.h ****     ~Led() {}
ARM GAS  /var/folders/z2/7_lhr9dn53s9tj4s0rwtyswm0000gn/T//ccJ9q3ms.s 			page 3


  42              		.loc 3 25 5 view .LVU2
  43              		.loc 3 25 5 is_stmt 0 view .LVU3
  44              	.LBE477:
  45              	.LBB478:
  46              	.LBI478:
  47              		.loc 3 25 5 is_stmt 1 view .LVU4
  48              		.loc 3 25 5 is_stmt 0 view .LVU5
  49              	.LBE478:
  50              	.LBB479:
  51              	.LBI479:
  52              		.loc 3 25 5 is_stmt 1 view .LVU6
  53              		.loc 3 25 5 is_stmt 0 view .LVU7
  54              	.LBE479:
  55              	.LBE476:
  56              	.LBB480:
  57              	.LBI480:
  58              		.file 4 "../../libDaisy//src/hid/switch.h"
   1:../../libDaisy//src/hid/switch.h **** #pragma once
   2:../../libDaisy//src/hid/switch.h **** #ifndef DSY_SWITCH_H
   3:../../libDaisy//src/hid/switch.h **** #define DSY_SWITCH_H
   4:../../libDaisy//src/hid/switch.h **** #include "daisy_core.h"
   5:../../libDaisy//src/hid/switch.h **** #include "per/gpio.h"
   6:../../libDaisy//src/hid/switch.h **** #include "sys/system.h"
   7:../../libDaisy//src/hid/switch.h **** 
   8:../../libDaisy//src/hid/switch.h **** namespace daisy
   9:../../libDaisy//src/hid/switch.h **** {
  10:../../libDaisy//src/hid/switch.h **** /** 
  11:../../libDaisy//src/hid/switch.h ****     Generic Class for handling momentary/latching switches \n 
  12:../../libDaisy//src/hid/switch.h ****     Inspired/influenced by Mutable Instruments (pichenettes) Switch classes
  13:../../libDaisy//src/hid/switch.h ****     @author Stephen Hensley
  14:../../libDaisy//src/hid/switch.h ****     @date December 2019
  15:../../libDaisy//src/hid/switch.h ****     @ingroup controls
  16:../../libDaisy//src/hid/switch.h **** */
  17:../../libDaisy//src/hid/switch.h **** class Switch
  18:../../libDaisy//src/hid/switch.h **** {
  19:../../libDaisy//src/hid/switch.h ****   public:
  20:../../libDaisy//src/hid/switch.h ****     /** Specifies the expected behavior of the switch */
  21:../../libDaisy//src/hid/switch.h ****     enum Type
  22:../../libDaisy//src/hid/switch.h ****     {
  23:../../libDaisy//src/hid/switch.h ****         TYPE_TOGGLE,    /**< & */
  24:../../libDaisy//src/hid/switch.h ****         TYPE_MOMENTARY, /**< & */
  25:../../libDaisy//src/hid/switch.h ****     };
  26:../../libDaisy//src/hid/switch.h ****     /** Specifies whether the pressed is HIGH or LOW. */
  27:../../libDaisy//src/hid/switch.h ****     enum Polarity
  28:../../libDaisy//src/hid/switch.h ****     {
  29:../../libDaisy//src/hid/switch.h ****         POLARITY_NORMAL,   /**< & */
  30:../../libDaisy//src/hid/switch.h ****         POLARITY_INVERTED, /**< & */
  31:../../libDaisy//src/hid/switch.h ****     };
  32:../../libDaisy//src/hid/switch.h **** 
  33:../../libDaisy//src/hid/switch.h ****     /** Specifies whether to use built-in Pull Up/Down resistors to hold button at a given state wh
  34:../../libDaisy//src/hid/switch.h ****     enum Pull
  35:../../libDaisy//src/hid/switch.h ****     {
  36:../../libDaisy//src/hid/switch.h ****         PULL_UP,   /**< & */
  37:../../libDaisy//src/hid/switch.h ****         PULL_DOWN, /**< & */
  38:../../libDaisy//src/hid/switch.h ****         PULL_NONE, /**< & */
  39:../../libDaisy//src/hid/switch.h ****     };
  40:../../libDaisy//src/hid/switch.h **** 
ARM GAS  /var/folders/z2/7_lhr9dn53s9tj4s0rwtyswm0000gn/T//ccJ9q3ms.s 			page 4


  41:../../libDaisy//src/hid/switch.h ****     Switch() {}
  42:../../libDaisy//src/hid/switch.h ****     ~Switch() {}
  59              		.loc 4 42 5 is_stmt 1 view .LVU8
  60              		.loc 4 42 5 is_stmt 0 view .LVU9
  61              	.LBE480:
  62              	.LBB481:
  63              	.LBI481:
  64              		.loc 4 42 5 is_stmt 1 view .LVU10
  65              		.loc 4 42 5 is_stmt 0 view .LVU11
  66              	.LBE481:
  67              	.LBB482:
  68              	.LBI482:
  69              		.file 5 "../../libDaisy//src/hid/ctrl.h"
   1:../../libDaisy//src/hid/ctrl.h **** #pragma once
   2:../../libDaisy//src/hid/ctrl.h **** #ifndef DSY_KNOB_H
   3:../../libDaisy//src/hid/ctrl.h **** #define DSY_KNOB_H /**< & */
   4:../../libDaisy//src/hid/ctrl.h **** #include <stdint.h>
   5:../../libDaisy//src/hid/ctrl.h **** 
   6:../../libDaisy//src/hid/ctrl.h **** #ifdef __cplusplus
   7:../../libDaisy//src/hid/ctrl.h **** namespace daisy
   8:../../libDaisy//src/hid/ctrl.h **** {
   9:../../libDaisy//src/hid/ctrl.h **** /**
  10:../../libDaisy//src/hid/ctrl.h ****     @brief Hardware Interface for control inputs \n 
  11:../../libDaisy//src/hid/ctrl.h ****     Primarily designed for ADC input controls such as \n 
  12:../../libDaisy//src/hid/ctrl.h ****     potentiometers, and control voltage. \n 
  13:../../libDaisy//src/hid/ctrl.h ****     @author Stephen Hensley
  14:../../libDaisy//src/hid/ctrl.h ****     @date November 2019
  15:../../libDaisy//src/hid/ctrl.h ****     @ingroup controls
  16:../../libDaisy//src/hid/ctrl.h **** */
  17:../../libDaisy//src/hid/ctrl.h **** class AnalogControl
  18:../../libDaisy//src/hid/ctrl.h **** {
  19:../../libDaisy//src/hid/ctrl.h ****   public:
  20:../../libDaisy//src/hid/ctrl.h ****     /** Constructor */
  21:../../libDaisy//src/hid/ctrl.h ****     AnalogControl() {}
  22:../../libDaisy//src/hid/ctrl.h ****     /** destructor */
  23:../../libDaisy//src/hid/ctrl.h ****     ~AnalogControl() {}
  70              		.loc 5 23 5 is_stmt 1 view .LVU12
  71              		.loc 5 23 5 is_stmt 0 view .LVU13
  72              	.LBE482:
  73              	.LBB483:
  74              	.LBI483:
  75              		.loc 5 23 5 is_stmt 1 view .LVU14
  76              		.loc 5 23 5 is_stmt 0 view .LVU15
  77              	.LBE483:
  78              	.LBB484:
  79              	.LBI484:
  80              		.loc 5 23 5 is_stmt 1 view .LVU16
  81              		.loc 5 23 5 is_stmt 0 view .LVU17
  82              	.LBE484:
  83              	.LBB485:
  84              	.LBI485:
  85              		.loc 5 23 5 is_stmt 1 view .LVU18
  86              		.loc 5 23 5 is_stmt 0 view .LVU19
  87              	.LBE485:
  88              	.LBB486:
  89              	.LBI486:
  90              		.file 6 "../../libDaisy//src/hid/encoder.h"
ARM GAS  /var/folders/z2/7_lhr9dn53s9tj4s0rwtyswm0000gn/T//ccJ9q3ms.s 			page 5


   1:../../libDaisy//src/hid/encoder.h **** #pragma once
   2:../../libDaisy//src/hid/encoder.h **** #ifndef DSY_ENCODER_H
   3:../../libDaisy//src/hid/encoder.h **** #define DSY_ENCODER_H
   4:../../libDaisy//src/hid/encoder.h **** #include "daisy_core.h"
   5:../../libDaisy//src/hid/encoder.h **** #include "per/gpio.h"
   6:../../libDaisy//src/hid/encoder.h **** #include "hid/switch.h"
   7:../../libDaisy//src/hid/encoder.h **** 
   8:../../libDaisy//src/hid/encoder.h **** namespace daisy
   9:../../libDaisy//src/hid/encoder.h **** {
  10:../../libDaisy//src/hid/encoder.h **** /** 
  11:../../libDaisy//src/hid/encoder.h ****     @brief Generic Class for handling Quadrature Encoders \n 
  12:../../libDaisy//src/hid/encoder.h ****     Inspired/influenced by Mutable Instruments (pichenettes) Encoder classes
  13:../../libDaisy//src/hid/encoder.h ****     @author Stephen Hensley
  14:../../libDaisy//src/hid/encoder.h ****     @date December 2019
  15:../../libDaisy//src/hid/encoder.h ****     @ingroup controls
  16:../../libDaisy//src/hid/encoder.h **** */
  17:../../libDaisy//src/hid/encoder.h **** class Encoder
  18:../../libDaisy//src/hid/encoder.h **** {
  19:../../libDaisy//src/hid/encoder.h ****   public:
  20:../../libDaisy//src/hid/encoder.h ****     Encoder() {}
  21:../../libDaisy//src/hid/encoder.h ****     ~Encoder() {}
  91              		.loc 6 21 5 is_stmt 1 view .LVU20
  92              	.LBB487:
  93              	.LBI487:
  94              		.loc 4 42 5 view .LVU21
  95              		.loc 4 42 5 is_stmt 0 view .LVU22
  96              	.LBE487:
  97              	.LBE486:
  98              	.LBB488:
  99              	.LBI488:
 100              		.file 7 "../../libDaisy//src/daisy_seed.h"
   1:../../libDaisy//src/daisy_seed.h **** #pragma once
   2:../../libDaisy//src/daisy_seed.h **** #ifndef DSY_SEED_H
   3:../../libDaisy//src/daisy_seed.h **** #define DSY_SEED_H
   4:../../libDaisy//src/daisy_seed.h **** 
   5:../../libDaisy//src/daisy_seed.h **** #include "daisy.h"
   6:../../libDaisy//src/daisy_seed.h **** 
   7:../../libDaisy//src/daisy_seed.h **** //Uncomment this out if you're still using the rev2 hardware
   8:../../libDaisy//src/daisy_seed.h **** //#define SEED_REV2
   9:../../libDaisy//src/daisy_seed.h **** 
  10:../../libDaisy//src/daisy_seed.h **** namespace daisy
  11:../../libDaisy//src/daisy_seed.h **** {
  12:../../libDaisy//src/daisy_seed.h **** /**
  13:../../libDaisy//src/daisy_seed.h ****    @brief This is the higher-level interface for the Daisy board. \n 
  14:../../libDaisy//src/daisy_seed.h ****     All basic peripheral configuration/initialization is setup here. \n
  15:../../libDaisy//src/daisy_seed.h **** 
  16:../../libDaisy//src/daisy_seed.h ****    @ingroup boards
  17:../../libDaisy//src/daisy_seed.h **** */
  18:../../libDaisy//src/daisy_seed.h **** class DaisySeed
  19:../../libDaisy//src/daisy_seed.h **** {
  20:../../libDaisy//src/daisy_seed.h ****   public:
  21:../../libDaisy//src/daisy_seed.h ****     DaisySeed() {}
  22:../../libDaisy//src/daisy_seed.h ****     ~DaisySeed() {}
 101              		.loc 7 22 5 is_stmt 1 view .LVU23
 102              	.LBB489:
 103              	.LBI489:
 104              		.file 8 "../../libDaisy//src/sys/system.h"
ARM GAS  /var/folders/z2/7_lhr9dn53s9tj4s0rwtyswm0000gn/T//ccJ9q3ms.s 			page 6


   1:../../libDaisy//src/sys/system.h **** #ifndef DSY_SYSTEM_H
   2:../../libDaisy//src/sys/system.h **** #define DSY_SYSTEM_H
   3:../../libDaisy//src/sys/system.h **** 
   4:../../libDaisy//src/sys/system.h **** #ifndef UNIT_TEST // for unit tests, a dummy implementation is provided below
   5:../../libDaisy//src/sys/system.h **** 
   6:../../libDaisy//src/sys/system.h **** #include <cstdint>
   7:../../libDaisy//src/sys/system.h **** #include "per/tim.h"
   8:../../libDaisy//src/sys/system.h **** 
   9:../../libDaisy//src/sys/system.h **** namespace daisy
  10:../../libDaisy//src/sys/system.h **** {
  11:../../libDaisy//src/sys/system.h **** /** A handle for interacting with the Core System.
  12:../../libDaisy//src/sys/system.h ****  ** This includes the Clock tree, MPU, global DMA initialization,
  13:../../libDaisy//src/sys/system.h ****  ** cache handling, and any other necessary global initiailzation
  14:../../libDaisy//src/sys/system.h ****  **
  15:../../libDaisy//src/sys/system.h ****  ** @author shensley
  16:../../libDaisy//src/sys/system.h ****  ** @ingroup system
  17:../../libDaisy//src/sys/system.h ****  */
  18:../../libDaisy//src/sys/system.h **** class System
  19:../../libDaisy//src/sys/system.h **** {
  20:../../libDaisy//src/sys/system.h ****   public:
  21:../../libDaisy//src/sys/system.h ****     /** Contains settings for initializing the System */
  22:../../libDaisy//src/sys/system.h ****     struct Config
  23:../../libDaisy//src/sys/system.h ****     {
  24:../../libDaisy//src/sys/system.h ****         /** Specifies the system clock frequency that feeds APB/AHB clocks, etc. */
  25:../../libDaisy//src/sys/system.h ****         enum class SysClkFreq
  26:../../libDaisy//src/sys/system.h ****         {
  27:../../libDaisy//src/sys/system.h ****             FREQ_400MHZ,
  28:../../libDaisy//src/sys/system.h ****             FREQ_480MHZ,
  29:../../libDaisy//src/sys/system.h ****         };
  30:../../libDaisy//src/sys/system.h **** 
  31:../../libDaisy//src/sys/system.h ****         /** Method to call on the struct to set to defaults
  32:../../libDaisy//src/sys/system.h ****          ** CPU Freq set to 400MHz
  33:../../libDaisy//src/sys/system.h ****          ** Cache Enabled
  34:../../libDaisy//src/sys/system.h ****          ** */
  35:../../libDaisy//src/sys/system.h ****         void Defaults()
  36:../../libDaisy//src/sys/system.h ****         {
  37:../../libDaisy//src/sys/system.h ****             cpu_freq    = SysClkFreq::FREQ_400MHZ;
  38:../../libDaisy//src/sys/system.h ****             use_dcache  = true;
  39:../../libDaisy//src/sys/system.h ****             use_icache  = true;
  40:../../libDaisy//src/sys/system.h ****             skip_clocks = false;
  41:../../libDaisy//src/sys/system.h ****         }
  42:../../libDaisy//src/sys/system.h **** 
  43:../../libDaisy//src/sys/system.h ****         /** Method to call on the struct to set to boost mode:
  44:../../libDaisy//src/sys/system.h ****          ** CPU Freq set to 480MHz
  45:../../libDaisy//src/sys/system.h ****          ** Cache Enabled
  46:../../libDaisy//src/sys/system.h ****          ** */
  47:../../libDaisy//src/sys/system.h ****         void Boost()
  48:../../libDaisy//src/sys/system.h ****         {
  49:../../libDaisy//src/sys/system.h ****             cpu_freq    = SysClkFreq::FREQ_480MHZ;
  50:../../libDaisy//src/sys/system.h ****             use_dcache  = true;
  51:../../libDaisy//src/sys/system.h ****             use_icache  = true;
  52:../../libDaisy//src/sys/system.h ****             skip_clocks = false;
  53:../../libDaisy//src/sys/system.h ****         }
  54:../../libDaisy//src/sys/system.h **** 
  55:../../libDaisy//src/sys/system.h ****         SysClkFreq cpu_freq;
  56:../../libDaisy//src/sys/system.h ****         bool       use_dcache;
  57:../../libDaisy//src/sys/system.h ****         bool       use_icache;
ARM GAS  /var/folders/z2/7_lhr9dn53s9tj4s0rwtyswm0000gn/T//ccJ9q3ms.s 			page 7


  58:../../libDaisy//src/sys/system.h ****         bool       skip_clocks;
  59:../../libDaisy//src/sys/system.h ****     };
  60:../../libDaisy//src/sys/system.h **** 
  61:../../libDaisy//src/sys/system.h ****     /** Describes the different regions of memory available to the Daisy */
  62:../../libDaisy//src/sys/system.h ****     enum MemoryRegion
  63:../../libDaisy//src/sys/system.h ****     {
  64:../../libDaisy//src/sys/system.h ****         INTERNAL_FLASH = 0,
  65:../../libDaisy//src/sys/system.h ****         ITCMRAM,
  66:../../libDaisy//src/sys/system.h ****         DTCMRAM,
  67:../../libDaisy//src/sys/system.h ****         SRAM_D1,
  68:../../libDaisy//src/sys/system.h ****         SRAM_D2,
  69:../../libDaisy//src/sys/system.h ****         SRAM_D3,
  70:../../libDaisy//src/sys/system.h ****         SDRAM,
  71:../../libDaisy//src/sys/system.h ****         QSPI,
  72:../../libDaisy//src/sys/system.h ****         INVALID_ADDRESS,
  73:../../libDaisy//src/sys/system.h ****     };
  74:../../libDaisy//src/sys/system.h **** 
  75:../../libDaisy//src/sys/system.h ****     /** Bootloader struct for controlling bootloading parameters */
  76:../../libDaisy//src/sys/system.h ****     struct BootInfo
  77:../../libDaisy//src/sys/system.h ****     {
  78:../../libDaisy//src/sys/system.h ****         enum class Type : uint32_t
  79:../../libDaisy//src/sys/system.h ****         {
  80:../../libDaisy//src/sys/system.h ****             INVALID      = 0x00000000,
  81:../../libDaisy//src/sys/system.h ****             JUMP         = 0xDEADBEEF,
  82:../../libDaisy//src/sys/system.h ****             SKIP_TIMEOUT = 0x5AFEB007,
  83:../../libDaisy//src/sys/system.h ****             INF_TIMEOUT  = 0xB0074EFA,
  84:../../libDaisy//src/sys/system.h ****         } status;
  85:../../libDaisy//src/sys/system.h ****         uint32_t data;
  86:../../libDaisy//src/sys/system.h ****         enum class Version : uint32_t
  87:../../libDaisy//src/sys/system.h ****         {
  88:../../libDaisy//src/sys/system.h ****             LT_v6_0 = 0, // Less than v6.0
  89:../../libDaisy//src/sys/system.h ****             NONE,        // No bootloader present
  90:../../libDaisy//src/sys/system.h ****             v6_0,        // v6.0
  91:../../libDaisy//src/sys/system.h ****             v6_1,        // v6.1 or greater
  92:../../libDaisy//src/sys/system.h ****             LAST
  93:../../libDaisy//src/sys/system.h ****         } version;
  94:../../libDaisy//src/sys/system.h ****     };
  95:../../libDaisy//src/sys/system.h **** 
  96:../../libDaisy//src/sys/system.h ****     System() {}
  97:../../libDaisy//src/sys/system.h ****     ~System() {}
 105              		.loc 8 97 5 view .LVU24
 106              		.loc 8 97 5 is_stmt 0 view .LVU25
 107              	.LBE489:
 108              	.LBB490:
 109              	.LBI490:
 110              		.file 9 "../../libDaisy//src/hid/usb.h"
   1:../../libDaisy//src/hid/usb.h **** #pragma once
   2:../../libDaisy//src/hid/usb.h **** #ifndef DSY_HID_USB_H
   3:../../libDaisy//src/hid/usb.h **** #define DSY_HID_USB_H
   4:../../libDaisy//src/hid/usb.h **** #include <stdint.h>
   5:../../libDaisy//src/hid/usb.h **** #include <stdlib.h>
   6:../../libDaisy//src/hid/usb.h **** 
   7:../../libDaisy//src/hid/usb.h **** namespace daisy
   8:../../libDaisy//src/hid/usb.h **** /** @addtogroup human_interface
   9:../../libDaisy//src/hid/usb.h ****     @{
  10:../../libDaisy//src/hid/usb.h **** */
  11:../../libDaisy//src/hid/usb.h **** 
ARM GAS  /var/folders/z2/7_lhr9dn53s9tj4s0rwtyswm0000gn/T//ccJ9q3ms.s 			page 8


  12:../../libDaisy//src/hid/usb.h **** {
  13:../../libDaisy//src/hid/usb.h **** /** 
  14:../../libDaisy//src/hid/usb.h ****     @brief Interface for initializing and using the USB Peripherals on the daisy
  15:../../libDaisy//src/hid/usb.h ****     @author Stephen Hensley
  16:../../libDaisy//src/hid/usb.h ****     @date December 2019
  17:../../libDaisy//src/hid/usb.h **** */
  18:../../libDaisy//src/hid/usb.h **** class UsbHandle
  19:../../libDaisy//src/hid/usb.h **** {
  20:../../libDaisy//src/hid/usb.h ****   public:
  21:../../libDaisy//src/hid/usb.h ****     /** Return values for USBHandle Functions */
  22:../../libDaisy//src/hid/usb.h ****     enum class Result
  23:../../libDaisy//src/hid/usb.h ****     {
  24:../../libDaisy//src/hid/usb.h ****         OK,
  25:../../libDaisy//src/hid/usb.h ****         ERR,
  26:../../libDaisy//src/hid/usb.h ****     };
  27:../../libDaisy//src/hid/usb.h **** 
  28:../../libDaisy//src/hid/usb.h ****     /** Specified which of the two USB Peripherals to initialize. */
  29:../../libDaisy//src/hid/usb.h ****     enum UsbPeriph
  30:../../libDaisy//src/hid/usb.h ****     {
  31:../../libDaisy//src/hid/usb.h ****         FS_INTERNAL, /**< Internal pin */
  32:../../libDaisy//src/hid/usb.h ****         FS_EXTERNAL, /**< FS External D+ pin is Pin 38 (GPIO32). FS External D- pin is Pin 37 (GPIO
  33:../../libDaisy//src/hid/usb.h ****         FS_BOTH,     /**< Both */
  34:../../libDaisy//src/hid/usb.h ****     };
  35:../../libDaisy//src/hid/usb.h **** 
  36:../../libDaisy//src/hid/usb.h **** 
  37:../../libDaisy//src/hid/usb.h ****     /** Function called upon reception of a buffer */
  38:../../libDaisy//src/hid/usb.h ****     typedef void (*ReceiveCallback)(uint8_t* buff, uint32_t* len);
  39:../../libDaisy//src/hid/usb.h **** 
  40:../../libDaisy//src/hid/usb.h ****     UsbHandle() {}
  41:../../libDaisy//src/hid/usb.h **** 
  42:../../libDaisy//src/hid/usb.h ****     ~UsbHandle() {}
 111              		.loc 9 42 5 is_stmt 1 view .LVU26
 112              		.loc 9 42 5 is_stmt 0 view .LVU27
 113              	.LBE490:
 114              	.LBB491:
 115              	.LBI491:
 116              		.file 10 "../../libDaisy//src/per/adc.h"
   1:../../libDaisy//src/per/adc.h **** #pragma once
   2:../../libDaisy//src/per/adc.h **** #ifndef DSY_ADC_H
   3:../../libDaisy//src/per/adc.h **** #define DSY_ADC_H /**< Macro */
   4:../../libDaisy//src/per/adc.h **** #include <stdint.h>
   5:../../libDaisy//src/per/adc.h **** #include <stdlib.h>
   6:../../libDaisy//src/per/adc.h **** #include "daisy_core.h"
   7:../../libDaisy//src/per/adc.h **** #include "per/gpio.h"
   8:../../libDaisy//src/per/adc.h **** 
   9:../../libDaisy//src/per/adc.h **** #define DSY_ADC_MAX_CHANNELS 16 /**< Maximum number of ADC channels */
  10:../../libDaisy//src/per/adc.h **** 
  11:../../libDaisy//src/per/adc.h **** namespace daisy
  12:../../libDaisy//src/per/adc.h **** {
  13:../../libDaisy//src/per/adc.h **** /** @addtogroup per_analog
  14:../../libDaisy//src/per/adc.h ****     @{
  15:../../libDaisy//src/per/adc.h **** */
  16:../../libDaisy//src/per/adc.h **** 
  17:../../libDaisy//src/per/adc.h **** /* While there may not be many configuration options here,
  18:../../libDaisy//src/per/adc.h **** using a struct like this allows us to add more configuration
  19:../../libDaisy//src/per/adc.h **** later without breaking existing functionality.
  20:../../libDaisy//src/per/adc.h **** */
ARM GAS  /var/folders/z2/7_lhr9dn53s9tj4s0rwtyswm0000gn/T//ccJ9q3ms.s 			page 9


  21:../../libDaisy//src/per/adc.h **** 
  22:../../libDaisy//src/per/adc.h **** /** @brief   Configuration Structure for an ADC Channel 
  23:../../libDaisy//src/per/adc.h ****  *  @details This can be used to configure a a single input, 
  24:../../libDaisy//src/per/adc.h ****  *           or a multiplexed input, allowing up to 8 inputs on 
  25:../../libDaisy//src/per/adc.h ****  *           one channel.
  26:../../libDaisy//src/per/adc.h ****  *  @note    Sharing data lines to multiple muxes _is_ possible, but
  27:../../libDaisy//src/per/adc.h ****  *           each channel sharing data lines must be set to the maximum
  28:../../libDaisy//src/per/adc.h ****  *           number of channels, even if some multiplexers have fewer
  29:../../libDaisy//src/per/adc.h ****  *           inputs connected.
  30:../../libDaisy//src/per/adc.h **** */
  31:../../libDaisy//src/per/adc.h **** struct AdcChannelConfig
  32:../../libDaisy//src/per/adc.h **** {
  33:../../libDaisy//src/per/adc.h ****     /** Which pin to use for multiplexing */
  34:../../libDaisy//src/per/adc.h ****     enum MuxPin
  35:../../libDaisy//src/per/adc.h ****     {
  36:../../libDaisy//src/per/adc.h ****         MUX_SEL_0,    /**< & */
  37:../../libDaisy//src/per/adc.h ****         MUX_SEL_1,    /**< & */
  38:../../libDaisy//src/per/adc.h ****         MUX_SEL_2,    /**< & */
  39:../../libDaisy//src/per/adc.h ****         MUX_SEL_LAST, /**< & */
  40:../../libDaisy//src/per/adc.h ****     };
  41:../../libDaisy//src/per/adc.h **** 
  42:../../libDaisy//src/per/adc.h ****     /** \brief per channel conversion speed added to fixed time based on bitdepth, etc. */
  43:../../libDaisy//src/per/adc.h ****     enum ConversionSpeed
  44:../../libDaisy//src/per/adc.h ****     {
  45:../../libDaisy//src/per/adc.h ****         SPEED_1CYCLES_5,
  46:../../libDaisy//src/per/adc.h ****         SPEED_2CYCLES_5,
  47:../../libDaisy//src/per/adc.h ****         SPEED_8CYCLES_5,
  48:../../libDaisy//src/per/adc.h ****         SPEED_16CYCLES_5,
  49:../../libDaisy//src/per/adc.h ****         SPEED_32CYCLES_5,
  50:../../libDaisy//src/per/adc.h ****         SPEED_64CYCLES_5,
  51:../../libDaisy//src/per/adc.h ****         SPEED_387CYCLES_5,
  52:../../libDaisy//src/per/adc.h ****         SPEED_810CYCLES_5,
  53:../../libDaisy//src/per/adc.h ****     };
  54:../../libDaisy//src/per/adc.h **** 
  55:../../libDaisy//src/per/adc.h ****     /** Initializes a single ADC pin as an ADC. 
  56:../../libDaisy//src/per/adc.h ****     \param pin Pin to init.
  57:../../libDaisy//src/per/adc.h ****     \param speed conversion speed for this pin defaults to 8.5 cycles
  58:../../libDaisy//src/per/adc.h ****      */
  59:../../libDaisy//src/per/adc.h ****     void InitSingle(dsy_gpio_pin pin, ConversionSpeed speed = SPEED_8CYCLES_5);
  60:../../libDaisy//src/per/adc.h **** 
  61:../../libDaisy//src/per/adc.h ****     /** 
  62:../../libDaisy//src/per/adc.h ****     Initializes a single ADC pin as a Multiplexed ADC.
  63:../../libDaisy//src/per/adc.h ****     Requires a CD405X Multiplexer connected to the pin.
  64:../../libDaisy//src/per/adc.h ****     You only need to supply the mux pins that are required,
  65:../../libDaisy//src/per/adc.h ****     e.g. a 4052 mux would only require mux_0 and mux_1.
  66:../../libDaisy//src/per/adc.h ****     Internal Callbacks handle the pin addressing.
  67:../../libDaisy//src/per/adc.h ****     \param adc_pin &
  68:../../libDaisy//src/per/adc.h ****     \param mux_channels must be 1-8
  69:../../libDaisy//src/per/adc.h ****     \param mux_0 First mux pin
  70:../../libDaisy//src/per/adc.h ****     \param mux_1 Second mux pin
  71:../../libDaisy//src/per/adc.h ****     \param mux_2 Third mux pin
  72:../../libDaisy//src/per/adc.h ****     \param speed conversion speed for this pin defaults to 8.5 cycles
  73:../../libDaisy//src/per/adc.h ****     */
  74:../../libDaisy//src/per/adc.h ****     void InitMux(dsy_gpio_pin    adc_pin,
  75:../../libDaisy//src/per/adc.h ****                  size_t          mux_channels,
  76:../../libDaisy//src/per/adc.h ****                  dsy_gpio_pin    mux_0,
  77:../../libDaisy//src/per/adc.h ****                  dsy_gpio_pin    mux_1 = {DSY_GPIOX, 0},
ARM GAS  /var/folders/z2/7_lhr9dn53s9tj4s0rwtyswm0000gn/T//ccJ9q3ms.s 			page 10


  78:../../libDaisy//src/per/adc.h ****                  dsy_gpio_pin    mux_2 = {DSY_GPIOX, 0},
  79:../../libDaisy//src/per/adc.h ****                  ConversionSpeed speed = SPEED_8CYCLES_5);
  80:../../libDaisy//src/per/adc.h **** 
  81:../../libDaisy//src/per/adc.h ****     dsy_gpio        pin_;                   /**< & */
  82:../../libDaisy//src/per/adc.h ****     dsy_gpio        mux_pin_[MUX_SEL_LAST]; /**< & */
  83:../../libDaisy//src/per/adc.h ****     uint8_t         mux_channels_;          /**< & */
  84:../../libDaisy//src/per/adc.h ****     ConversionSpeed speed_;
  85:../../libDaisy//src/per/adc.h **** };
  86:../../libDaisy//src/per/adc.h **** 
  87:../../libDaisy//src/per/adc.h **** /**
  88:../../libDaisy//src/per/adc.h ****    @brief Handler for analog to digital conversion
  89:../../libDaisy//src/per/adc.h **** */
  90:../../libDaisy//src/per/adc.h **** class AdcHandle
  91:../../libDaisy//src/per/adc.h **** {
  92:../../libDaisy//src/per/adc.h ****   public:
  93:../../libDaisy//src/per/adc.h ****     /** Supported oversampling amounts */
  94:../../libDaisy//src/per/adc.h ****     enum OverSampling
  95:../../libDaisy//src/per/adc.h ****     {
  96:../../libDaisy//src/per/adc.h ****         OVS_NONE, /**< & */
  97:../../libDaisy//src/per/adc.h ****         OVS_4,    /**< & */
  98:../../libDaisy//src/per/adc.h ****         OVS_8,    /**< & */
  99:../../libDaisy//src/per/adc.h ****         OVS_16,   /**< & */
 100:../../libDaisy//src/per/adc.h ****         OVS_32,   /**< & */
 101:../../libDaisy//src/per/adc.h ****         OVS_64,   /**< & */
 102:../../libDaisy//src/per/adc.h ****         OVS_128,  /**< & */
 103:../../libDaisy//src/per/adc.h ****         OVS_256,  /**< & */
 104:../../libDaisy//src/per/adc.h ****         OVS_512,  /**< & */
 105:../../libDaisy//src/per/adc.h ****         OVS_1024, /**< & */
 106:../../libDaisy//src/per/adc.h ****         OVS_LAST, /**< & */
 107:../../libDaisy//src/per/adc.h ****     };
 108:../../libDaisy//src/per/adc.h **** 
 109:../../libDaisy//src/per/adc.h ****     AdcHandle() {}
 110:../../libDaisy//src/per/adc.h ****     ~AdcHandle() {}
 117              		.loc 10 110 5 is_stmt 1 view .LVU28
 118              		.loc 10 110 5 is_stmt 0 view .LVU29
 119              	.LBE491:
 120              	.LBB492:
 121              	.LBI492:
 122              		.file 11 "../../libDaisy//src/hid/audio.h"
   1:../../libDaisy//src/hid/audio.h **** #ifndef DSY_AUDIO_H
   2:../../libDaisy//src/hid/audio.h **** #define DSY_AUDIO_H /**< & */
   3:../../libDaisy//src/hid/audio.h **** 
   4:../../libDaisy//src/hid/audio.h **** #include "per/sai.h"
   5:../../libDaisy//src/hid/audio.h **** 
   6:../../libDaisy//src/hid/audio.h **** namespace daisy
   7:../../libDaisy//src/hid/audio.h **** {
   8:../../libDaisy//src/hid/audio.h **** /** @brief Audio Engine Handle
   9:../../libDaisy//src/hid/audio.h ****  *  @ingroup audio 
  10:../../libDaisy//src/hid/audio.h ****  *  @details This class allows for higher level access to an audio engine.
  11:../../libDaisy//src/hid/audio.h ****  *           If you're using a SOM like the DaisySeed or DaisyPatchSM (or any 
  12:../../libDaisy//src/hid/audio.h ****  *            board that includes one of those objects) then the intialization
  13:../../libDaisy//src/hid/audio.h ****  *            is already taken  care of.
  14:../../libDaisy//src/hid/audio.h ****  *           If you're setting up your own custom hardware, or need to make changes
  15:../../libDaisy//src/hid/audio.h ****  *           you will have to take the following steps:
  16:../../libDaisy//src/hid/audio.h ****  *             1. Create and Initialize an SaiHandle or two depending on your requirements
  17:../../libDaisy//src/hid/audio.h ****  *             2. Initialize the Audio Handle with the desired settings and the Initialized SaiHand
  18:../../libDaisy//src/hid/audio.h ****  *             3. If the connected codec requires special configuration or initialization, do so
ARM GAS  /var/folders/z2/7_lhr9dn53s9tj4s0rwtyswm0000gn/T//ccJ9q3ms.s 			page 11


  19:../../libDaisy//src/hid/audio.h ****  *             4. Write a callback method using either the AudioCallback or the InterleavingAudioCa
  20:../../libDaisy//src/hid/audio.h ****  *             5. Start the Audio using one of the StartAudio function
  21:../../libDaisy//src/hid/audio.h ****  */
  22:../../libDaisy//src/hid/audio.h **** class AudioHandle
  23:../../libDaisy//src/hid/audio.h **** {
  24:../../libDaisy//src/hid/audio.h ****   public:
  25:../../libDaisy//src/hid/audio.h ****     /** Manually configurable details about the Audio Engine */
  26:../../libDaisy//src/hid/audio.h ****     /** TODO: Figure out how to get samplerate in here. */
  27:../../libDaisy//src/hid/audio.h ****     struct Config
  28:../../libDaisy//src/hid/audio.h ****     {
  29:../../libDaisy//src/hid/audio.h ****         /** number of samples to process per callback */
  30:../../libDaisy//src/hid/audio.h ****         size_t blocksize = 48;
  31:../../libDaisy//src/hid/audio.h **** 
  32:../../libDaisy//src/hid/audio.h ****         /**< Sample rate of audio */
  33:../../libDaisy//src/hid/audio.h ****         SaiHandle::Config::SampleRate samplerate
  34:../../libDaisy//src/hid/audio.h ****             = SaiHandle::Config::SampleRate::SAI_48KHZ;
  35:../../libDaisy//src/hid/audio.h **** 
  36:../../libDaisy//src/hid/audio.h ****         /** factor for adjustment before and after callback for hardware that may have extra headro
  37:../../libDaisy//src/hid/audio.h ****         float postgain = 1.f;
  38:../../libDaisy//src/hid/audio.h **** 
  39:../../libDaisy//src/hid/audio.h ****         /** factor for additional one-sided compensation to audio path for hardware that may
  40:../../libDaisy//src/hid/audio.h ****          *  have unequal input/output ranges
  41:../../libDaisy//src/hid/audio.h ****          */
  42:../../libDaisy//src/hid/audio.h ****         float output_compensation = 1.f;
  43:../../libDaisy//src/hid/audio.h ****     };
  44:../../libDaisy//src/hid/audio.h **** 
  45:../../libDaisy//src/hid/audio.h ****     enum class Result
  46:../../libDaisy//src/hid/audio.h ****     {
  47:../../libDaisy//src/hid/audio.h ****         OK,
  48:../../libDaisy//src/hid/audio.h ****         ERR,
  49:../../libDaisy//src/hid/audio.h ****     };
  50:../../libDaisy//src/hid/audio.h **** 
  51:../../libDaisy//src/hid/audio.h ****     /** Non-Interleaving input buffer
  52:../../libDaisy//src/hid/audio.h ****      * Buffer arranged by float[chn][sample] 
  53:../../libDaisy//src/hid/audio.h ****      * const so that the user can't modify the input
  54:../../libDaisy//src/hid/audio.h ****      */
  55:../../libDaisy//src/hid/audio.h ****     typedef const float* const* InputBuffer;
  56:../../libDaisy//src/hid/audio.h **** 
  57:../../libDaisy//src/hid/audio.h ****     /** Non-Interleaving output buffer
  58:../../libDaisy//src/hid/audio.h ****      * Arranged by float[chn][sample] 
  59:../../libDaisy//src/hid/audio.h ****      */
  60:../../libDaisy//src/hid/audio.h ****     typedef float** OutputBuffer;
  61:../../libDaisy//src/hid/audio.h **** 
  62:../../libDaisy//src/hid/audio.h ****     /** Type for a Non-Interleaving audio callback 
  63:../../libDaisy//src/hid/audio.h ****      * Non-Interleaving audio callbacks in daisy will be of this type
  64:../../libDaisy//src/hid/audio.h ****      */
  65:../../libDaisy//src/hid/audio.h ****     typedef void (*AudioCallback)(InputBuffer  in,
  66:../../libDaisy//src/hid/audio.h ****                                   OutputBuffer out,
  67:../../libDaisy//src/hid/audio.h ****                                   size_t       size);
  68:../../libDaisy//src/hid/audio.h **** 
  69:../../libDaisy//src/hid/audio.h ****     /** Interleaving Input buffer
  70:../../libDaisy//src/hid/audio.h ****      ** audio is prepared as { L0, R0, L1, R1, . . . LN, RN }]
  71:../../libDaisy//src/hid/audio.h ****      ** this is const, as the user shouldn't modify it
  72:../../libDaisy//src/hid/audio.h ****     */
  73:../../libDaisy//src/hid/audio.h ****     typedef const float* InterleavingInputBuffer;
  74:../../libDaisy//src/hid/audio.h **** 
  75:../../libDaisy//src/hid/audio.h ****     /** Interleaving Output buffer 
ARM GAS  /var/folders/z2/7_lhr9dn53s9tj4s0rwtyswm0000gn/T//ccJ9q3ms.s 			page 12


  76:../../libDaisy//src/hid/audio.h ****      ** audio is prepared as { L0, R0, L1, R1, . . . LN, RN }
  77:../../libDaisy//src/hid/audio.h ****     */
  78:../../libDaisy//src/hid/audio.h ****     typedef float* InterleavingOutputBuffer;
  79:../../libDaisy//src/hid/audio.h **** 
  80:../../libDaisy//src/hid/audio.h ****     /** Interleaving Audio Callback 
  81:../../libDaisy//src/hid/audio.h ****      * Interleaving audio callbacks in daisy must be of this type
  82:../../libDaisy//src/hid/audio.h ****      */
  83:../../libDaisy//src/hid/audio.h ****     typedef void (*InterleavingAudioCallback)(InterleavingInputBuffer  in,
  84:../../libDaisy//src/hid/audio.h ****                                               InterleavingOutputBuffer out,
  85:../../libDaisy//src/hid/audio.h ****                                               size_t                   size);
  86:../../libDaisy//src/hid/audio.h **** 
  87:../../libDaisy//src/hid/audio.h ****     AudioHandle() : pimpl_(nullptr) {}
  88:../../libDaisy//src/hid/audio.h ****     ~AudioHandle() {}
 123              		.loc 11 88 5 is_stmt 1 view .LVU30
 124              		.loc 11 88 5 is_stmt 0 view .LVU31
 125              	.LBE492:
 126              	.LBE488:
 127              		.loc 1 31 20 view .LVU32
 128 0000 7047     		bx	lr
 129              		.cfi_endproc
 130              	.LFE2580:
 132              		.weak	_ZN5daisy10TusenskonaD1Ev
 133              		.thumb_set _ZN5daisy10TusenskonaD1Ev,_ZN5daisy10TusenskonaD2Ev
 134 0002 00BF     		.section	.text._ZN7daisysp10OscillatorD2Ev,"axG",%progbits,_ZN7daisysp10OscillatorD5Ev,comdat
 135              		.align	1
 136              		.p2align 2,,3
 137              		.weak	_ZN7daisysp10OscillatorD2Ev
 138              		.syntax unified
 139              		.thumb
 140              		.thumb_func
 142              	_ZN7daisysp10OscillatorD2Ev:
 143              	.LVL1:
 144              	.LFB4263:
 145              		.file 12 "../..//DaisySP//Source/Synthesis/oscillator.h"
   1:../..//DaisySP//Source/Synthesis/oscillator.h **** /*
   2:../..//DaisySP//Source/Synthesis/oscillator.h **** Copyright (c) 2020 Electrosmith, Corp
   3:../..//DaisySP//Source/Synthesis/oscillator.h **** 
   4:../..//DaisySP//Source/Synthesis/oscillator.h **** Use of this source code is governed by an MIT-style
   5:../..//DaisySP//Source/Synthesis/oscillator.h **** license that can be found in the LICENSE file or at
   6:../..//DaisySP//Source/Synthesis/oscillator.h **** https://opensource.org/licenses/MIT.
   7:../..//DaisySP//Source/Synthesis/oscillator.h **** */
   8:../..//DaisySP//Source/Synthesis/oscillator.h **** 
   9:../..//DaisySP//Source/Synthesis/oscillator.h **** #pragma once
  10:../..//DaisySP//Source/Synthesis/oscillator.h **** #ifndef DSY_OSCILLATOR_H
  11:../..//DaisySP//Source/Synthesis/oscillator.h **** #define DSY_OSCILLATOR_H
  12:../..//DaisySP//Source/Synthesis/oscillator.h **** #include <stdint.h>
  13:../..//DaisySP//Source/Synthesis/oscillator.h **** #include "Utility/dsp.h"
  14:../..//DaisySP//Source/Synthesis/oscillator.h **** #ifdef __cplusplus
  15:../..//DaisySP//Source/Synthesis/oscillator.h **** 
  16:../..//DaisySP//Source/Synthesis/oscillator.h **** namespace daisysp
  17:../..//DaisySP//Source/Synthesis/oscillator.h **** {
  18:../..//DaisySP//Source/Synthesis/oscillator.h **** /** Synthesis of several waveforms, including polyBLEP bandlimited waveforms.
  19:../..//DaisySP//Source/Synthesis/oscillator.h **** */
  20:../..//DaisySP//Source/Synthesis/oscillator.h **** class Oscillator
  21:../..//DaisySP//Source/Synthesis/oscillator.h **** {
  22:../..//DaisySP//Source/Synthesis/oscillator.h ****   public:
  23:../..//DaisySP//Source/Synthesis/oscillator.h ****     Oscillator() {}
ARM GAS  /var/folders/z2/7_lhr9dn53s9tj4s0rwtyswm0000gn/T//ccJ9q3ms.s 			page 13


  24:../..//DaisySP//Source/Synthesis/oscillator.h ****     ~Oscillator() {}
 146              		.loc 12 24 5 is_stmt 1 view -0
 147              		.cfi_startproc
 148              		@ args = 0, pretend = 0, frame = 0
 149              		@ frame_needed = 0, uses_anonymous_args = 0
 150              		@ link register save eliminated.
 151              		.loc 12 24 20 is_stmt 0 view .LVU34
 152 0000 7047     		bx	lr
 153              		.cfi_endproc
 154              	.LFE4263:
 156              		.weak	_ZN7daisysp10OscillatorD1Ev
 157              		.thumb_set _ZN7daisysp10OscillatorD1Ev,_ZN7daisysp10OscillatorD2Ev
 158 0002 00BF     		.section	.text._Z14UpdateControlsv,"ax",%progbits
 159              		.align	1
 160              		.p2align 2,,3
 161              		.global	_Z14UpdateControlsv
 162              		.syntax unified
 163              		.thumb
 164              		.thumb_func
 166              	_Z14UpdateControlsv:
 167              	.LFB4782:
 168              		.file 13 "chebyshev.cpp"
   1:chebyshev.cpp **** #include "../../tusenskona/src/tusenskona.h"
   2:chebyshev.cpp **** #include "daisysp.h"
   3:chebyshev.cpp **** #include "shaper.h"
   4:chebyshev.cpp **** 
   5:chebyshev.cpp **** #include <array>
   6:chebyshev.cpp **** using namespace daisy;
   7:chebyshev.cpp **** using namespace daisysp;
   8:chebyshev.cpp **** 
   9:chebyshev.cpp **** 
  10:chebyshev.cpp **** void UpdateControls();
  11:chebyshev.cpp **** 
  12:chebyshev.cpp **** Tusenskona hw;
  13:chebyshev.cpp **** 
  14:chebyshev.cpp **** float freq = 440.f;
  15:chebyshev.cpp **** 
  16:chebyshev.cpp **** Shaper<512> shaper;
  17:chebyshev.cpp **** Shaper<512> shaper2;
  18:chebyshev.cpp **** 
  19:chebyshev.cpp **** Oscillator sine;
  20:chebyshev.cpp **** 
  21:chebyshev.cpp **** namespace mcon {
  22:chebyshev.cpp ****     constexpr float pi = 3.14159265358979323846f; 
  23:chebyshev.cpp ****     constexpr float twopi = 2.f*pi; 
  24:chebyshev.cpp ****     constexpr float e = 2.71828182845904523536f;
  25:chebyshev.cpp **** }
  26:chebyshev.cpp **** 
  27:chebyshev.cpp **** float waver[512];
  28:chebyshev.cpp **** float x = 0,y = 0;
  29:chebyshev.cpp **** float ph = 0.f;
  30:chebyshev.cpp **** float ph2 = 0.f;
  31:chebyshev.cpp **** float inc = 0.00001f;
  32:chebyshev.cpp **** float inc2 = 0.0001f;
  33:chebyshev.cpp **** float z = 0.f;
  34:chebyshev.cpp **** 
  35:chebyshev.cpp **** void AudioCallback(AudioHandle::InputBuffer in, AudioHandle::OutputBuffer out, size_t size)
ARM GAS  /var/folders/z2/7_lhr9dn53s9tj4s0rwtyswm0000gn/T//ccJ9q3ms.s 			page 14


  36:chebyshev.cpp **** {
  37:chebyshev.cpp ****     UpdateControls();
  38:chebyshev.cpp ****     for (size_t i = 0; i < size; i++)
  39:chebyshev.cpp ****     {
  40:chebyshev.cpp ****         out[0][i] = 0.f;
  41:chebyshev.cpp ****         out[1][i] = 0.f;
  42:chebyshev.cpp ****         out[2][i] = 0.f;
  43:chebyshev.cpp ****         out[3][i] = 0.f;
  44:chebyshev.cpp ****         float s = sine.Process();
  45:chebyshev.cpp ****         float y = shaper2.process(shaper.process(s))*0.5 + s*0.5;
  46:chebyshev.cpp ****         out[0][i] = y;
  47:chebyshev.cpp ****         out[1][i] = y; 
  48:chebyshev.cpp ****         out[0][i] *= z;
  49:chebyshev.cpp ****         out[1][i] *= z;
  50:chebyshev.cpp ****         float * ws = shaper.getWeights();
  51:chebyshev.cpp ****         for (uint_fast8_t i = 0; i < 10; ++i) {
  52:chebyshev.cpp ****              ws[i] = waver[(52*i + static_cast<int>(ph*512))%512]; 
  53:chebyshev.cpp ****         }
  54:chebyshev.cpp ****         ws = shaper2.getWeights();
  55:chebyshev.cpp ****         for (uint_fast8_t i = 0; i < 10; ++i) {
  56:chebyshev.cpp ****              ws[i] = waver[(52*i + static_cast<int>(ph2*512))%512]; 
  57:chebyshev.cpp ****        }
  58:chebyshev.cpp ****         ph = fmod(ph + inc, 1.f);
  59:chebyshev.cpp ****         ph2 = fmod(ph2 + inc2, 1.f);
  60:chebyshev.cpp ****     }
  61:chebyshev.cpp **** }
  62:chebyshev.cpp **** 
  63:chebyshev.cpp **** void UpdateControls()
  64:chebyshev.cpp **** {
 169              		.loc 13 64 1 is_stmt 1 view -0
 170              		.cfi_startproc
 171              		@ args = 0, pretend = 0, frame = 0
 172              		@ frame_needed = 0, uses_anonymous_args = 0
  65:chebyshev.cpp ****     hw.ProcessAllControls();
 173              		.loc 13 65 5 view .LVU36
 174              	.LVL2:
 175              	.LBB493:
 176              	.LBI493:
  32:../../tusenskona/src/tusenskona.h **** 
  33:../../tusenskona/src/tusenskona.h ****     /** Init related stuff. */
  34:../../tusenskona/src/tusenskona.h ****     void Init(bool boost = false);
  35:../../tusenskona/src/tusenskona.h **** 
  36:../../tusenskona/src/tusenskona.h ****     /** Wait for a bit
  37:../../tusenskona/src/tusenskona.h ****     \param del Time to wait in ms.
  38:../../tusenskona/src/tusenskona.h ****     */
  39:../../tusenskona/src/tusenskona.h ****     void DelayMs(size_t del);
  40:../../tusenskona/src/tusenskona.h **** 
  41:../../tusenskona/src/tusenskona.h ****     /** Starts the callback
  42:../../tusenskona/src/tusenskona.h ****     \param cb Interleaved callback function
  43:../../tusenskona/src/tusenskona.h ****     */
  44:../../tusenskona/src/tusenskona.h ****     void StartAudio(AudioHandle::InterleavingAudioCallback cb);
  45:../../tusenskona/src/tusenskona.h **** 
  46:../../tusenskona/src/tusenskona.h ****     /** Starts the callback
  47:../../tusenskona/src/tusenskona.h ****     \param cb multichannel callback function
  48:../../tusenskona/src/tusenskona.h ****     */
  49:../../tusenskona/src/tusenskona.h ****     void StartAudio(AudioHandle::AudioCallback cb);
  50:../../tusenskona/src/tusenskona.h **** 
ARM GAS  /var/folders/z2/7_lhr9dn53s9tj4s0rwtyswm0000gn/T//ccJ9q3ms.s 			page 15


  51:../../tusenskona/src/tusenskona.h ****     /**
  52:../../tusenskona/src/tusenskona.h ****        Switch callback functions
  53:../../tusenskona/src/tusenskona.h ****        \param cb New interleaved callback function.
  54:../../tusenskona/src/tusenskona.h ****     */
  55:../../tusenskona/src/tusenskona.h ****     void ChangeAudioCallback(AudioHandle::InterleavingAudioCallback cb);
  56:../../tusenskona/src/tusenskona.h **** 
  57:../../tusenskona/src/tusenskona.h ****     /**
  58:../../tusenskona/src/tusenskona.h ****        Switch callback functions
  59:../../tusenskona/src/tusenskona.h ****        \param cb New multichannel callback function.
  60:../../tusenskona/src/tusenskona.h ****     */
  61:../../tusenskona/src/tusenskona.h ****     void ChangeAudioCallback(AudioHandle::AudioCallback cb);
  62:../../tusenskona/src/tusenskona.h **** 
  63:../../tusenskona/src/tusenskona.h ****     /** Stops the audio if it is running. */
  64:../../tusenskona/src/tusenskona.h ****     void StopAudio();
  65:../../tusenskona/src/tusenskona.h **** 
  66:../../tusenskona/src/tusenskona.h ****     /** Updates the Audio Sample Rate, and reinitializes.
  67:../../tusenskona/src/tusenskona.h ****      ** Audio must be stopped for this to work.
  68:../../tusenskona/src/tusenskona.h ****      */
  69:../../tusenskona/src/tusenskona.h ****     void SetAudioSampleRate(SaiHandle::Config::SampleRate samplerate);
  70:../../tusenskona/src/tusenskona.h **** 
  71:../../tusenskona/src/tusenskona.h ****     /** Returns the audio sample rate in Hz as a floating point number.
  72:../../tusenskona/src/tusenskona.h ****      */
  73:../../tusenskona/src/tusenskona.h ****     float AudioSampleRate();
  74:../../tusenskona/src/tusenskona.h **** 
  75:../../tusenskona/src/tusenskona.h ****     /** Sets the number of samples processed per channel by the audio callback.
  76:../../tusenskona/src/tusenskona.h ****      */
  77:../../tusenskona/src/tusenskona.h ****     void SetAudioBlockSize(size_t blocksize);
  78:../../tusenskona/src/tusenskona.h **** 
  79:../../tusenskona/src/tusenskona.h ****     /** Returns the number of samples per channel in a block of audio. */
  80:../../tusenskona/src/tusenskona.h ****     size_t AudioBlockSize();
  81:../../tusenskona/src/tusenskona.h **** 
  82:../../tusenskona/src/tusenskona.h ****     /** Returns the rate in Hz that the Audio callback is called */
  83:../../tusenskona/src/tusenskona.h ****     float AudioCallbackRate();
  84:../../tusenskona/src/tusenskona.h **** 
  85:../../tusenskona/src/tusenskona.h ****     /**
  86:../../tusenskona/src/tusenskona.h ****        Start analog to digital conversion.
  87:../../tusenskona/src/tusenskona.h ****      */
  88:../../tusenskona/src/tusenskona.h ****     void StartAdc();
  89:../../tusenskona/src/tusenskona.h **** 
  90:../../tusenskona/src/tusenskona.h ****     /** Stops Transfering data from the ADC */
  91:../../tusenskona/src/tusenskona.h ****     void StopAdc();
  92:../../tusenskona/src/tusenskona.h **** 
  93:../../tusenskona/src/tusenskona.h ****     /** Call at same rate as analog reads for smooth reading.*/
  94:../../tusenskona/src/tusenskona.h ****     void ProcessAnalogControls();
  95:../../tusenskona/src/tusenskona.h **** 
  96:../../tusenskona/src/tusenskona.h ****     /** Process Analog and Digital Controls */
  97:../../tusenskona/src/tusenskona.h ****     inline void ProcessAllControls()
 177              		.loc 1 97 17 view .LVU37
 178              	.LBB494:
  98:../../tusenskona/src/tusenskona.h ****     {
  99:../../tusenskona/src/tusenskona.h ****         ProcessAnalogControls();
 179              		.loc 1 99 9 view .LVU38
 180              	.LBE494:
 181              	.LBE493:
  64:chebyshev.cpp ****     hw.ProcessAllControls();
 182              		.loc 13 64 1 is_stmt 0 view .LVU39
 183 0000 38B5     		push	{r3, r4, r5, lr}
ARM GAS  /var/folders/z2/7_lhr9dn53s9tj4s0rwtyswm0000gn/T//ccJ9q3ms.s 			page 16


 184              		.cfi_def_cfa_offset 16
 185              		.cfi_offset 3, -16
 186              		.cfi_offset 4, -12
 187              		.cfi_offset 5, -8
 188              		.cfi_offset 14, -4
 189              	.LBB498:
 190              	.LBB495:
 191              		.loc 1 99 30 view .LVU40
 192 0002 224C     		ldr	r4, .L6
 193              	.LBE495:
 194              	.LBE498:
 195              	.LBB499:
 196              	.LBB500:
  25:../..//DaisySP//Source/Synthesis/oscillator.h ****     /** Choices for output waveforms, POLYBLEP are appropriately labeled. Others are naive forms.
  26:../..//DaisySP//Source/Synthesis/oscillator.h ****     */
  27:../..//DaisySP//Source/Synthesis/oscillator.h ****     enum
  28:../..//DaisySP//Source/Synthesis/oscillator.h ****     {
  29:../..//DaisySP//Source/Synthesis/oscillator.h ****         WAVE_SIN,
  30:../..//DaisySP//Source/Synthesis/oscillator.h ****         WAVE_TRI,
  31:../..//DaisySP//Source/Synthesis/oscillator.h ****         WAVE_SAW,
  32:../..//DaisySP//Source/Synthesis/oscillator.h ****         WAVE_RAMP,
  33:../..//DaisySP//Source/Synthesis/oscillator.h ****         WAVE_SQUARE,
  34:../..//DaisySP//Source/Synthesis/oscillator.h ****         WAVE_POLYBLEP_TRI,
  35:../..//DaisySP//Source/Synthesis/oscillator.h ****         WAVE_POLYBLEP_SAW,
  36:../..//DaisySP//Source/Synthesis/oscillator.h ****         WAVE_POLYBLEP_SQUARE,
  37:../..//DaisySP//Source/Synthesis/oscillator.h ****         WAVE_LAST,
  38:../..//DaisySP//Source/Synthesis/oscillator.h ****     };
  39:../..//DaisySP//Source/Synthesis/oscillator.h **** 
  40:../..//DaisySP//Source/Synthesis/oscillator.h **** 
  41:../..//DaisySP//Source/Synthesis/oscillator.h ****     /** Initializes the Oscillator
  42:../..//DaisySP//Source/Synthesis/oscillator.h **** 
  43:../..//DaisySP//Source/Synthesis/oscillator.h ****         \param sample_rate - sample rate of the audio engine being run, and the frequency that the 
  44:../..//DaisySP//Source/Synthesis/oscillator.h **** 
  45:../..//DaisySP//Source/Synthesis/oscillator.h ****         Defaults:
  46:../..//DaisySP//Source/Synthesis/oscillator.h ****         - freq_ = 100 Hz
  47:../..//DaisySP//Source/Synthesis/oscillator.h ****         - amp_ = 0.5
  48:../..//DaisySP//Source/Synthesis/oscillator.h ****         - waveform_ = sine wave.
  49:../..//DaisySP//Source/Synthesis/oscillator.h ****     */
  50:../..//DaisySP//Source/Synthesis/oscillator.h ****     void Init(float sample_rate)
  51:../..//DaisySP//Source/Synthesis/oscillator.h ****     {
  52:../..//DaisySP//Source/Synthesis/oscillator.h ****         sr_        = sample_rate;
  53:../..//DaisySP//Source/Synthesis/oscillator.h ****         sr_recip_  = 1.0f / sample_rate;
  54:../..//DaisySP//Source/Synthesis/oscillator.h ****         freq_      = 100.0f;
  55:../..//DaisySP//Source/Synthesis/oscillator.h ****         amp_       = 0.5f;
  56:../..//DaisySP//Source/Synthesis/oscillator.h ****         pw_        = 0.5f;
  57:../..//DaisySP//Source/Synthesis/oscillator.h ****         phase_     = 0.0f;
  58:../..//DaisySP//Source/Synthesis/oscillator.h ****         phase_inc_ = CalcPhaseInc(freq_);
  59:../..//DaisySP//Source/Synthesis/oscillator.h ****         waveform_  = WAVE_SIN;
  60:../..//DaisySP//Source/Synthesis/oscillator.h ****         eoc_       = true;
  61:../..//DaisySP//Source/Synthesis/oscillator.h ****         eor_       = true;
  62:../..//DaisySP//Source/Synthesis/oscillator.h ****     }
  63:../..//DaisySP//Source/Synthesis/oscillator.h **** 
  64:../..//DaisySP//Source/Synthesis/oscillator.h **** 
  65:../..//DaisySP//Source/Synthesis/oscillator.h ****     /** Changes the frequency of the Oscillator, and recalculates phase increment.
  66:../..//DaisySP//Source/Synthesis/oscillator.h ****     */
  67:../..//DaisySP//Source/Synthesis/oscillator.h ****     inline void SetFreq(const float f)
  68:../..//DaisySP//Source/Synthesis/oscillator.h ****     {
ARM GAS  /var/folders/z2/7_lhr9dn53s9tj4s0rwtyswm0000gn/T//ccJ9q3ms.s 			page 17


  69:../..//DaisySP//Source/Synthesis/oscillator.h ****         freq_      = f;
 197              		.loc 12 69 20 view .LVU41
 198 0004 224D     		ldr	r5, .L6+4
 199              	.LBE500:
 200              	.LBE499:
 201              	.LBB504:
 202              	.LBB496:
 203              		.loc 1 99 30 view .LVU42
 204 0006 2046     		mov	r0, r4
 205              	.LBE496:
 206              	.LBE504:
  64:chebyshev.cpp ****     hw.ProcessAllControls();
 207              		.loc 13 64 1 view .LVU43
 208 0008 2DED028B 		vpush.64	{d8}
 209              		.cfi_def_cfa_offset 24
 210              		.cfi_offset 80, -24
 211              		.cfi_offset 81, -20
 212              	.LBB505:
 213              	.LBB497:
 214              		.loc 1 99 30 view .LVU44
 215 000c FFF7FEFF 		bl	_ZN5daisy10Tusenskona21ProcessAnalogControlsEv
 216              	.LVL3:
 100:../../tusenskona/src/tusenskona.h ****         ProcessDigitalControls();
 217              		.loc 1 100 9 is_stmt 1 view .LVU45
 218              		.loc 1 100 31 is_stmt 0 view .LVU46
 219 0010 2046     		mov	r0, r4
 220 0012 FFF7FEFF 		bl	_ZN5daisy10Tusenskona22ProcessDigitalControlsEv
 221              	.LVL4:
 222              		.loc 1 100 31 view .LVU47
 223              	.LBE497:
 224              	.LBE505:
  66:chebyshev.cpp **** 
  67:chebyshev.cpp ****     float ctrl = hw.GetKnobValue((Tusenskona::Knob)0);
 225              		.loc 13 67 5 is_stmt 1 view .LVU48
 226              		.loc 13 67 33 is_stmt 0 view .LVU49
 227 0016 0021     		movs	r1, #0
 228 0018 2046     		mov	r0, r4
  68:chebyshev.cpp ****         
  69:chebyshev.cpp ****     freq = powf(2.f,6.0f*ctrl) * 30.f; 
  70:chebyshev.cpp ****     sine.SetFreq(freq);
  71:chebyshev.cpp ****     inc = hw.GetKnobValue((Tusenskona::Knob)1)/1000;
 229              		.loc 13 71 47 view .LVU50
 230 001a 9FED1E8A 		vldr.32	s16, .L6+8
  67:chebyshev.cpp ****         
 231              		.loc 13 67 33 view .LVU51
 232 001e FFF7FEFF 		bl	_ZN5daisy10Tusenskona12GetKnobValueENS0_4KnobE
 233              	.LVL5:
  69:chebyshev.cpp ****     sine.SetFreq(freq);
 234              		.loc 13 69 16 view .LVU52
 235 0022 F1EE087A 		vmov.f32	s15, #6.0e+0
  67:chebyshev.cpp ****         
 236              		.loc 13 67 33 view .LVU53
 237 0026 F0EE400A 		vmov.f32	s1, s0
 238              	.LVL6:
  69:chebyshev.cpp ****     sine.SetFreq(freq);
 239              		.loc 13 69 5 is_stmt 1 view .LVU54
  69:chebyshev.cpp ****     sine.SetFreq(freq);
ARM GAS  /var/folders/z2/7_lhr9dn53s9tj4s0rwtyswm0000gn/T//ccJ9q3ms.s 			page 18


 240              		.loc 13 69 16 is_stmt 0 view .LVU55
 241 002a B0EE000A 		vmov.f32	s0, #2.0e+0
 242              	.LVL7:
  69:chebyshev.cpp ****     sine.SetFreq(freq);
 243              		.loc 13 69 16 view .LVU56
 244 002e 60EEA70A 		vmul.f32	s1, s1, s15
 245              	.LVL8:
  69:chebyshev.cpp ****     sine.SetFreq(freq);
 246              		.loc 13 69 16 view .LVU57
 247 0032 FFF7FEFF 		bl	powf
 248              	.LVL9:
  69:chebyshev.cpp ****     sine.SetFreq(freq);
 249              		.loc 13 69 32 view .LVU58
 250 0036 F3EE0E7A 		vmov.f32	s15, #3.0e+1
  69:chebyshev.cpp ****     sine.SetFreq(freq);
 251              		.loc 13 69 10 view .LVU59
 252 003a 174B     		ldr	r3, .L6+12
 253              	.LBB506:
 254              	.LBB501:
  70:../..//DaisySP//Source/Synthesis/oscillator.h ****         phase_inc_ = CalcPhaseInc(f);
 255              		.loc 12 70 34 view .LVU60
 256 003c 2846     		mov	r0, r5
 257              	.LBE501:
 258              	.LBE506:
  69:chebyshev.cpp ****     sine.SetFreq(freq);
 259              		.loc 13 69 32 view .LVU61
 260 003e 20EE270A 		vmul.f32	s0, s0, s15
  69:chebyshev.cpp ****     sine.SetFreq(freq);
 261              		.loc 13 69 10 view .LVU62
 262 0042 83ED000A 		vstr.32	s0, [r3]
  70:chebyshev.cpp ****     inc = hw.GetKnobValue((Tusenskona::Knob)1)/1000;
 263              		.loc 13 70 5 is_stmt 1 view .LVU63
 264              	.LVL10:
 265              	.LBB507:
 266              	.LBI499:
  67:../..//DaisySP//Source/Synthesis/oscillator.h ****     {
 267              		.loc 12 67 17 view .LVU64
 268              	.LBB502:
  69:../..//DaisySP//Source/Synthesis/oscillator.h ****         phase_inc_ = CalcPhaseInc(f);
 269              		.loc 12 69 9 view .LVU65
  69:../..//DaisySP//Source/Synthesis/oscillator.h ****         phase_inc_ = CalcPhaseInc(f);
 270              		.loc 12 69 20 is_stmt 0 view .LVU66
 271 0046 85ED020A 		vstr.32	s0, [r5, #8]
 272              		.loc 12 70 9 is_stmt 1 view .LVU67
 273              		.loc 12 70 34 is_stmt 0 view .LVU68
 274 004a FFF7FEFF 		bl	_ZN7daisysp10Oscillator12CalcPhaseIncEf
 275              	.LVL11:
 276              		.loc 12 70 34 view .LVU69
 277              	.LBE502:
 278              	.LBE507:
 279              		.loc 13 71 26 view .LVU70
 280 004e 0121     		movs	r1, #1
 281 0050 2046     		mov	r0, r4
 282              	.LBB508:
 283              	.LBB503:
 284              		.loc 12 70 20 view .LVU71
 285 0052 85ED070A 		vstr.32	s0, [r5, #28]
ARM GAS  /var/folders/z2/7_lhr9dn53s9tj4s0rwtyswm0000gn/T//ccJ9q3ms.s 			page 19


 286              	.LVL12:
 287              		.loc 12 70 20 view .LVU72
 288              	.LBE503:
 289              	.LBE508:
 290              		.loc 13 71 5 is_stmt 1 view .LVU73
 291              		.loc 13 71 26 is_stmt 0 view .LVU74
 292 0056 FFF7FEFF 		bl	_ZN5daisy10Tusenskona12GetKnobValueENS0_4KnobE
 293              	.LVL13:
 294              		.loc 13 71 47 view .LVU75
 295 005a C0EE087A 		vdiv.f32	s15, s0, s16
 296              		.loc 13 71 9 view .LVU76
 297 005e 0F4B     		ldr	r3, .L6+16
  72:chebyshev.cpp ****     inc2 = hw.GetKnobValue((Tusenskona::Knob)2)/1000;
 298              		.loc 13 72 27 view .LVU77
 299 0060 0221     		movs	r1, #2
 300 0062 2046     		mov	r0, r4
  71:chebyshev.cpp ****     inc2 = hw.GetKnobValue((Tusenskona::Knob)2)/1000;
 301              		.loc 13 71 9 view .LVU78
 302 0064 C3ED007A 		vstr.32	s15, [r3]
 303              		.loc 13 72 5 is_stmt 1 view .LVU79
 304              		.loc 13 72 27 is_stmt 0 view .LVU80
 305 0068 FFF7FEFF 		bl	_ZN5daisy10Tusenskona12GetKnobValueENS0_4KnobE
 306              	.LVL14:
 307              		.loc 13 72 48 view .LVU81
 308 006c C0EE087A 		vdiv.f32	s15, s0, s16
 309              		.loc 13 72 10 view .LVU82
 310 0070 0B4B     		ldr	r3, .L6+20
  73:chebyshev.cpp ****     z = hw.GetKnobValue((Tusenskona::Knob)3);
 311              		.loc 13 73 24 view .LVU83
 312 0072 0321     		movs	r1, #3
 313 0074 2046     		mov	r0, r4
  72:chebyshev.cpp ****     inc2 = hw.GetKnobValue((Tusenskona::Knob)2)/1000;
 314              		.loc 13 72 10 view .LVU84
 315 0076 C3ED007A 		vstr.32	s15, [r3]
 316              		.loc 13 73 5 is_stmt 1 view .LVU85
 317              		.loc 13 73 24 is_stmt 0 view .LVU86
 318 007a FFF7FEFF 		bl	_ZN5daisy10Tusenskona12GetKnobValueENS0_4KnobE
 319              	.LVL15:
 320              		.loc 13 73 7 view .LVU87
 321 007e 094B     		ldr	r3, .L6+24
  74:chebyshev.cpp ****     
  75:chebyshev.cpp **** }
 322              		.loc 13 75 1 view .LVU88
 323 0080 BDEC028B 		vldm	sp!, {d8}
 324              		.cfi_restore 80
 325              		.cfi_restore 81
 326              		.cfi_def_cfa_offset 16
  73:chebyshev.cpp ****     z = hw.GetKnobValue((Tusenskona::Knob)3);
 327              		.loc 13 73 7 view .LVU89
 328 0084 83ED000A 		vstr.32	s0, [r3]
 329              		.loc 13 75 1 view .LVU90
 330 0088 38BD     		pop	{r3, r4, r5, pc}
 331              	.L7:
 332 008a 00BF     		.align	2
 333              	.L6:
 334 008c 00000000 		.word	.LANCHOR0
 335 0090 00000000 		.word	.LANCHOR2
ARM GAS  /var/folders/z2/7_lhr9dn53s9tj4s0rwtyswm0000gn/T//ccJ9q3ms.s 			page 20


 336 0094 00007A44 		.word	1148846080
 337 0098 00000000 		.word	.LANCHOR1
 338 009c 00000000 		.word	.LANCHOR3
 339 00a0 00000000 		.word	.LANCHOR4
 340 00a4 00000000 		.word	.LANCHOR5
 341              		.cfi_endproc
 342              	.LFE4782:
 344              		.section	.text._Z9UpdateLedv,"ax",%progbits
 345              		.align	1
 346              		.p2align 2,,3
 347              		.global	_Z9UpdateLedv
 348              		.syntax unified
 349              		.thumb
 350              		.thumb_func
 352              	_Z9UpdateLedv:
 353              	.LFB4783:
  76:chebyshev.cpp **** 
  77:chebyshev.cpp **** void UpdateLed() {
 354              		.loc 13 77 18 is_stmt 1 view -0
 355              		.cfi_startproc
 356              		@ args = 0, pretend = 0, frame = 0
 357              		@ frame_needed = 0, uses_anonymous_args = 0
  78:chebyshev.cpp ****     hw.led.Set(sinf(ph*mcon::twopi), 0, 1-sinf(ph2*mcon::twopi));
 358              		.loc 13 78 5 view .LVU92
 359              		.loc 13 78 15 is_stmt 0 view .LVU93
 360 0000 154B     		ldr	r3, .L10
  77:chebyshev.cpp ****     hw.led.Set(sinf(ph*mcon::twopi), 0, 1-sinf(ph2*mcon::twopi));
 361              		.loc 13 77 18 view .LVU94
 362 0002 10B5     		push	{r4, lr}
 363              		.cfi_def_cfa_offset 8
 364              		.cfi_offset 4, -8
 365              		.cfi_offset 14, -4
 366              		.loc 13 78 15 view .LVU95
 367 0004 93ED000A 		vldr.32	s0, [r3]
 368 0008 144C     		ldr	r4, .L10+4
  77:chebyshev.cpp ****     hw.led.Set(sinf(ph*mcon::twopi), 0, 1-sinf(ph2*mcon::twopi));
 369              		.loc 13 77 18 view .LVU96
 370 000a 2DED028B 		vpush.64	{d8}
 371              		.cfi_def_cfa_offset 16
 372              		.cfi_offset 80, -16
 373              		.cfi_offset 81, -12
 374              		.loc 13 78 15 view .LVU97
 375 000e DFED148A 		vldr.32	s17, .L10+8
 376 0012 20EE280A 		vmul.f32	s0, s0, s17
 377 0016 FFF7FEFF 		bl	sinf
 378              	.LVL16:
 379              		.loc 13 78 47 view .LVU98
 380 001a 124B     		ldr	r3, .L10+12
 381              		.loc 13 78 15 view .LVU99
 382 001c B0EE408A 		vmov.f32	s16, s0
 383              		.loc 13 78 47 view .LVU100
 384 0020 93ED000A 		vldr.32	s0, [r3]
 385 0024 20EE280A 		vmul.f32	s0, s0, s17
 386 0028 FFF7FEFF 		bl	sinf
 387              	.LVL17:
 388              		.loc 13 78 15 view .LVU101
 389 002c F7EE007A 		vmov.f32	s15, #1.0e+0
ARM GAS  /var/folders/z2/7_lhr9dn53s9tj4s0rwtyswm0000gn/T//ccJ9q3ms.s 			page 21


 390              		.loc 13 78 47 view .LVU102
 391 0030 B0EE401A 		vmov.f32	s2, s0
 392              		.loc 13 78 15 view .LVU103
 393 0034 04F59070 		add	r0, r4, #288
 394 0038 B0EE480A 		vmov.f32	s0, s16
 395 003c DFED0A0A 		vldr.32	s1, .L10+16
 396 0040 37EEC11A 		vsub.f32	s2, s15, s2
 397 0044 FFF7FEFF 		bl	_ZN5daisy6RgbLed3SetEfff
 398              	.LVL18:
  79:chebyshev.cpp ****     hw.UpdateLeds();
 399              		.loc 13 79 5 is_stmt 1 view .LVU104
 400              		.loc 13 79 18 is_stmt 0 view .LVU105
 401 0048 2046     		mov	r0, r4
  80:chebyshev.cpp **** }
 402              		.loc 13 80 1 view .LVU106
 403 004a BDEC028B 		vldm	sp!, {d8}
 404              		.cfi_restore 80
 405              		.cfi_restore 81
 406              		.cfi_def_cfa_offset 8
 407 004e BDE81040 		pop	{r4, lr}
 408              		.cfi_restore 14
 409              		.cfi_restore 4
 410              		.cfi_def_cfa_offset 0
  79:chebyshev.cpp ****     hw.UpdateLeds();
 411              		.loc 13 79 18 view .LVU107
 412 0052 FFF7FEBF 		b	_ZN5daisy10Tusenskona10UpdateLedsEv
 413              	.LVL19:
 414              	.L11:
 415 0056 00BF     		.align	2
 416              	.L10:
 417 0058 00000000 		.word	.LANCHOR6
 418 005c 00000000 		.word	.LANCHOR0
 419 0060 DB0FC940 		.word	1086918619
 420 0064 00000000 		.word	.LANCHOR7
 421 0068 00000000 		.word	0
 422              		.cfi_endproc
 423              	.LFE4783:
 425              		.section	.text._ZN7daisysp6ShaperILj512EE7processEf,"axG",%progbits,_ZN7daisysp6ShaperILj512EE7pro
 426              		.align	1
 427              		.p2align 2,,3
 428              		.weak	_ZN7daisysp6ShaperILj512EE7processEf
 429              		.syntax unified
 430              		.thumb
 431              		.thumb_func
 433              	_ZN7daisysp6ShaperILj512EE7processEf:
 434              	.LVL20:
 435              	.LFB5093:
 436              		.file 14 "shaper.h"
   1:shaper.h      **** #pragma once
   2:shaper.h      **** #include "daisy.h"
   3:shaper.h      **** #include "daisysp.h"
   4:shaper.h      **** 
   5:shaper.h      **** #include <array>
   6:shaper.h      **** #include <algorithm>
   7:shaper.h      **** 
   8:shaper.h      **** namespace daisysp {
   9:shaper.h      **** 
ARM GAS  /var/folders/z2/7_lhr9dn53s9tj4s0rwtyswm0000gn/T//ccJ9q3ms.s 			page 22


  10:shaper.h      ****     template<std::size_t Length, typename Generator, std::size_t... Indexes>
  11:shaper.h      ****     constexpr auto lut_impl(Generator&& f, std::index_sequence<Indexes...>) {
  12:shaper.h      ****         using content_type = decltype(f(std::size_t{0}));
  13:shaper.h      ****         return std::array<content_type, Length> {{ f(Indexes)... }};
  14:shaper.h      ****     }
  15:shaper.h      **** 
  16:shaper.h      ****     template<std::size_t Length, typename Generator>
  17:shaper.h      ****     constexpr auto lut(Generator&& f){
  18:shaper.h      ****         return lut_impl<Length>(std::forward<Generator>(f), std::make_index_sequence<Length>{});
  19:shaper.h      ****     }
  20:shaper.h      **** 
  21:shaper.h      ****     template <size_t n>
  22:shaper.h      ****     constexpr double cheb(double x) { return 2*x*cheb<n-1>(x) - cheb<n-2>(x); }
  23:shaper.h      ****     template <>
  24:shaper.h      ****     constexpr double cheb<0>(double x) { return 1;}
  25:shaper.h      ****     template <>
  26:shaper.h      ****     constexpr double cheb<1>(double x) { return x;}
  27:shaper.h      **** 
  28:shaper.h      ****     template <size_t Length, size_t k>
  29:shaper.h      ****     constexpr float cheby(size_t n) {
  30:shaper.h      ****         double x = 2.f*(static_cast<double>(n)/static_cast<double>(Length-1)) -1.f;
  31:shaper.h      ****         return static_cast<double>(cheb<k>(x)); 
  32:shaper.h      ****     }
  33:shaper.h      **** 
  34:shaper.h      ****     template<std::size_t Length, size_t k>
  35:shaper.h      ****     constexpr auto chebyshev_lut = lut<Length>(cheby<Length, k>);
  36:shaper.h      **** 
  37:shaper.h      ****     constexpr int NN = 512;
  38:shaper.h      ****     constexpr auto c1 = chebyshev_lut<NN,1>;
  39:shaper.h      ****     constexpr auto c2 = chebyshev_lut<NN,2>;
  40:shaper.h      ****     constexpr auto c3 = chebyshev_lut<NN,3>;
  41:shaper.h      ****     constexpr auto c4 = chebyshev_lut<NN,4>;
  42:shaper.h      ****     constexpr auto c5 = chebyshev_lut<NN,5>;
  43:shaper.h      ****     constexpr auto c6 = chebyshev_lut<NN,6>;
  44:shaper.h      ****     constexpr auto c7 = chebyshev_lut<NN,7>;
  45:shaper.h      ****     constexpr auto c8 = chebyshev_lut<NN,8>;
  46:shaper.h      ****     constexpr auto c9 = chebyshev_lut<NN,9>;
  47:shaper.h      ****     constexpr auto c10 = chebyshev_lut<NN,10>;
  48:shaper.h      ****     
  49:shaper.h      ****     template <size_t N>
  50:shaper.h      ****     class Shaper {
  51:shaper.h      ****        
  52:shaper.h      ****         public:
  53:shaper.h      ****             Shaper(); 
  54:shaper.h      ****             void init();
  55:shaper.h      ****             float process(float in);
  56:shaper.h      **** #ifdef ARM_MATH
  57:shaper.h      ****             float process_fast(float in);
  58:shaper.h      **** #endif
  59:shaper.h      ****             void setWeight(const int n, const float w);
  60:shaper.h      ****             const float * getWeights() const;
  61:shaper.h      ****             float * getWeights();
  62:shaper.h      ****         private:
  63:shaper.h      ****         
  64:shaper.h      ****             std::array<float,10> weights;
  65:shaper.h      ****             float m_inv_sum;
  66:shaper.h      ****     };
ARM GAS  /var/folders/z2/7_lhr9dn53s9tj4s0rwtyswm0000gn/T//ccJ9q3ms.s 			page 23


  67:shaper.h      **** 
  68:shaper.h      **** 
  69:shaper.h      ****     template <size_t N>
  70:shaper.h      ****     Shaper<N>::Shaper() {
  71:shaper.h      ****         static_assert(not (N & (N - 1)), "N not power of 2");
  72:shaper.h      ****     }
  73:shaper.h      **** 
  74:shaper.h      ****     template <size_t N>
  75:shaper.h      ****     void Shaper<N>::init() {
  76:shaper.h      ****         std::fill(weights.begin(), weights.end(), 1.f); 
  77:shaper.h      ****         m_inv_sum = std::accumulate(weights.begin(), weights.end(), 0.f);
  78:shaper.h      ****     }
  79:shaper.h      **** 
  80:shaper.h      ****     template <size_t N>
  81:shaper.h      ****     const float * Shaper<N>::getWeights() const {
  82:shaper.h      ****             return weights.data(); 
  83:shaper.h      ****     }
  84:shaper.h      **** 
  85:shaper.h      ****     template <size_t N>
  86:shaper.h      ****     float * Shaper<N>::getWeights() {
  87:shaper.h      ****             return weights.data(); 
  88:shaper.h      ****     }
  89:shaper.h      **** 
  90:shaper.h      **** // TODO: Add better interpolation
  91:shaper.h      ****     template <size_t N>
  92:shaper.h      ****     float Shaper<N>::process(float in) {
 437              		.loc 14 92 11 is_stmt 1 view -0
 438              		.cfi_startproc
 439              		@ args = 0, pretend = 0, frame = 0
 440              		@ frame_needed = 0, uses_anonymous_args = 0
 441              	.LBB509:
 442              	.LBB510:
 443              		.file 15 "../..//DaisySP//Source/Utility/dsp.h"
   1:../..//DaisySP//Source/Utility/dsp.h **** /*
   2:../..//DaisySP//Source/Utility/dsp.h **** Copyright (c) 2020 Electrosmith, Corp, Emilie Gillet
   3:../..//DaisySP//Source/Utility/dsp.h **** 
   4:../..//DaisySP//Source/Utility/dsp.h **** Use of this source code is governed by an MIT-style
   5:../..//DaisySP//Source/Utility/dsp.h **** license that can be found in the LICENSE file or at
   6:../..//DaisySP//Source/Utility/dsp.h **** https://opensource.org/licenses/MIT.
   7:../..//DaisySP//Source/Utility/dsp.h **** */
   8:../..//DaisySP//Source/Utility/dsp.h **** 
   9:../..//DaisySP//Source/Utility/dsp.h **** /** Helpful defines, functions, and other utilities for use in/with daisysp modules.
  10:../..//DaisySP//Source/Utility/dsp.h **** */
  11:../..//DaisySP//Source/Utility/dsp.h **** #pragma once
  12:../..//DaisySP//Source/Utility/dsp.h **** #ifndef DSY_CORE_DSP
  13:../..//DaisySP//Source/Utility/dsp.h **** #define DSY_CORE_DSP
  14:../..//DaisySP//Source/Utility/dsp.h **** #include <cassert>
  15:../..//DaisySP//Source/Utility/dsp.h **** #include <cstdint>
  16:../..//DaisySP//Source/Utility/dsp.h **** #include <random>
  17:../..//DaisySP//Source/Utility/dsp.h **** #include <cmath>
  18:../..//DaisySP//Source/Utility/dsp.h **** 
  19:../..//DaisySP//Source/Utility/dsp.h **** /** PIs
  20:../..//DaisySP//Source/Utility/dsp.h **** */
  21:../..//DaisySP//Source/Utility/dsp.h **** #define PI_F 3.1415927410125732421875f
  22:../..//DaisySP//Source/Utility/dsp.h **** #define TWOPI_F (2.0f * PI_F)
  23:../..//DaisySP//Source/Utility/dsp.h **** #define HALFPI_F (PI_F * 0.5f)
  24:../..//DaisySP//Source/Utility/dsp.h **** #define DSY_MIN(in, mn) (in < mn ? in : mn)
ARM GAS  /var/folders/z2/7_lhr9dn53s9tj4s0rwtyswm0000gn/T//ccJ9q3ms.s 			page 24


  25:../..//DaisySP//Source/Utility/dsp.h **** #define DSY_MAX(in, mx) (in > mx ? in : mx)
  26:../..//DaisySP//Source/Utility/dsp.h **** #define DSY_CLAMP(in, mn, mx) (DSY_MIN(DSY_MAX(in, mn), mx))
  27:../..//DaisySP//Source/Utility/dsp.h **** #define DSY_COUNTOF(_arr) (sizeof(_arr) / sizeof(_arr[0]))
  28:../..//DaisySP//Source/Utility/dsp.h **** 
  29:../..//DaisySP//Source/Utility/dsp.h **** namespace daisysp
  30:../..//DaisySP//Source/Utility/dsp.h **** {
  31:../..//DaisySP//Source/Utility/dsp.h **** //Avoids division for random floats. e.g. rand() * kRandFrac
  32:../..//DaisySP//Source/Utility/dsp.h **** static constexpr float kRandFrac = 1.f / (float)RAND_MAX;
  33:../..//DaisySP//Source/Utility/dsp.h **** 
  34:../..//DaisySP//Source/Utility/dsp.h **** //Convert from semitones to other units. e.g. 2 ^ (kOneTwelfth * x)
  35:../..//DaisySP//Source/Utility/dsp.h **** static constexpr float kOneTwelfth = 1.f / 12.f;
  36:../..//DaisySP//Source/Utility/dsp.h **** 
  37:../..//DaisySP//Source/Utility/dsp.h **** /** efficient floating point min/max
  38:../..//DaisySP//Source/Utility/dsp.h **** c/o stephen mccaul
  39:../..//DaisySP//Source/Utility/dsp.h **** */
  40:../..//DaisySP//Source/Utility/dsp.h **** inline float fmax(float a, float b)
  41:../..//DaisySP//Source/Utility/dsp.h **** {
  42:../..//DaisySP//Source/Utility/dsp.h ****     float r;
  43:../..//DaisySP//Source/Utility/dsp.h **** #ifdef __arm__
  44:../..//DaisySP//Source/Utility/dsp.h ****     asm("vmaxnm.f32 %[d], %[n], %[m]" : [d] "=t"(r) : [n] "t"(a), [m] "t"(b) :);
  45:../..//DaisySP//Source/Utility/dsp.h **** #else
  46:../..//DaisySP//Source/Utility/dsp.h ****     r = (a > b) ? a : b;
  47:../..//DaisySP//Source/Utility/dsp.h **** #endif // __arm__
  48:../..//DaisySP//Source/Utility/dsp.h ****     return r;
  49:../..//DaisySP//Source/Utility/dsp.h **** }
  50:../..//DaisySP//Source/Utility/dsp.h **** 
  51:../..//DaisySP//Source/Utility/dsp.h **** inline float fmin(float a, float b)
  52:../..//DaisySP//Source/Utility/dsp.h **** {
  53:../..//DaisySP//Source/Utility/dsp.h ****     float r;
  54:../..//DaisySP//Source/Utility/dsp.h **** #ifdef __arm__
  55:../..//DaisySP//Source/Utility/dsp.h ****     asm("vminnm.f32 %[d], %[n], %[m]" : [d] "=t"(r) : [n] "t"(a), [m] "t"(b) :);
 444              		.loc 15 55 5 is_stmt 0 view .LVU109
 445 0000 F7EE006A 		vmov.f32	s13, #1.0e+0
 446              	.LVL21:
 447              		.loc 15 55 5 view .LVU110
 448              	.LBE510:
 449              	.LBE509:
 450              	.LBB512:
 451              	.LBI512:
  40:../..//DaisySP//Source/Utility/dsp.h **** {
 452              		.loc 15 40 14 is_stmt 1 view .LVU111
 453              	.LBB513:
  42:../..//DaisySP//Source/Utility/dsp.h **** #ifdef __arm__
 454              		.loc 15 42 5 view .LVU112
  44:../..//DaisySP//Source/Utility/dsp.h **** #else
 455              		.loc 15 44 5 view .LVU113
 456              	.LBE513:
 457              	.LBE512:
  93:shaper.h      ****         in = fmin(fmax(-1.f, in), 1.f);
  94:shaper.h      ****         const float ind = static_cast<float>(N) *  (in + 1.f)/2.f;
 458              		.loc 14 94 49 is_stmt 0 view .LVU114
 459 0004 9FED766A 		vldr.32	s12, .L19
 460              	.LBB516:
 461              	.LBB514:
  44:../..//DaisySP//Source/Utility/dsp.h **** #else
 462              		.loc 15 44 5 view .LVU115
 463 0008 BFEE007A 		vmov.f32	s14, #-1.0e+0
ARM GAS  /var/folders/z2/7_lhr9dn53s9tj4s0rwtyswm0000gn/T//ccJ9q3ms.s 			page 25


 464              	.LBE514:
 465              	.LBE516:
 466              	.LBB517:
 467              	.LBB518:
 468              	.LBB519:
 469              		.file 16 "/Applications/ARM/arm-none-eabi/include/c++/10.3.1/array"
   1:/Applications/ARM/arm-none-eabi/include/c++/10.3.1/array **** // <array> -*- C++ -*-
   2:/Applications/ARM/arm-none-eabi/include/c++/10.3.1/array **** 
   3:/Applications/ARM/arm-none-eabi/include/c++/10.3.1/array **** // Copyright (C) 2007-2020 Free Software Foundation, Inc.
   4:/Applications/ARM/arm-none-eabi/include/c++/10.3.1/array **** //
   5:/Applications/ARM/arm-none-eabi/include/c++/10.3.1/array **** // This file is part of the GNU ISO C++ Library.  This library is free
   6:/Applications/ARM/arm-none-eabi/include/c++/10.3.1/array **** // software; you can redistribute it and/or modify it under the
   7:/Applications/ARM/arm-none-eabi/include/c++/10.3.1/array **** // terms of the GNU General Public License as published by the
   8:/Applications/ARM/arm-none-eabi/include/c++/10.3.1/array **** // Free Software Foundation; either version 3, or (at your option)
   9:/Applications/ARM/arm-none-eabi/include/c++/10.3.1/array **** // any later version.
  10:/Applications/ARM/arm-none-eabi/include/c++/10.3.1/array **** 
  11:/Applications/ARM/arm-none-eabi/include/c++/10.3.1/array **** // This library is distributed in the hope that it will be useful,
  12:/Applications/ARM/arm-none-eabi/include/c++/10.3.1/array **** // but WITHOUT ANY WARRANTY; without even the implied warranty of
  13:/Applications/ARM/arm-none-eabi/include/c++/10.3.1/array **** // MERCHANTABILITY or FITNESS FOR A PARTICULAR PURPOSE.  See the
  14:/Applications/ARM/arm-none-eabi/include/c++/10.3.1/array **** // GNU General Public License for more details.
  15:/Applications/ARM/arm-none-eabi/include/c++/10.3.1/array **** 
  16:/Applications/ARM/arm-none-eabi/include/c++/10.3.1/array **** // Under Section 7 of GPL version 3, you are granted additional
  17:/Applications/ARM/arm-none-eabi/include/c++/10.3.1/array **** // permissions described in the GCC Runtime Library Exception, version
  18:/Applications/ARM/arm-none-eabi/include/c++/10.3.1/array **** // 3.1, as published by the Free Software Foundation.
  19:/Applications/ARM/arm-none-eabi/include/c++/10.3.1/array **** 
  20:/Applications/ARM/arm-none-eabi/include/c++/10.3.1/array **** // You should have received a copy of the GNU General Public License and
  21:/Applications/ARM/arm-none-eabi/include/c++/10.3.1/array **** // a copy of the GCC Runtime Library Exception along with this program;
  22:/Applications/ARM/arm-none-eabi/include/c++/10.3.1/array **** // see the files COPYING3 and COPYING.RUNTIME respectively.  If not, see
  23:/Applications/ARM/arm-none-eabi/include/c++/10.3.1/array **** // <http://www.gnu.org/licenses/>.
  24:/Applications/ARM/arm-none-eabi/include/c++/10.3.1/array **** 
  25:/Applications/ARM/arm-none-eabi/include/c++/10.3.1/array **** /** @file include/array
  26:/Applications/ARM/arm-none-eabi/include/c++/10.3.1/array ****  *  This is a Standard C++ Library header.
  27:/Applications/ARM/arm-none-eabi/include/c++/10.3.1/array ****  */
  28:/Applications/ARM/arm-none-eabi/include/c++/10.3.1/array **** 
  29:/Applications/ARM/arm-none-eabi/include/c++/10.3.1/array **** #ifndef _GLIBCXX_ARRAY
  30:/Applications/ARM/arm-none-eabi/include/c++/10.3.1/array **** #define _GLIBCXX_ARRAY 1
  31:/Applications/ARM/arm-none-eabi/include/c++/10.3.1/array **** 
  32:/Applications/ARM/arm-none-eabi/include/c++/10.3.1/array **** #pragma GCC system_header
  33:/Applications/ARM/arm-none-eabi/include/c++/10.3.1/array **** 
  34:/Applications/ARM/arm-none-eabi/include/c++/10.3.1/array **** #if __cplusplus < 201103L
  35:/Applications/ARM/arm-none-eabi/include/c++/10.3.1/array **** # include <bits/c++0x_warning.h>
  36:/Applications/ARM/arm-none-eabi/include/c++/10.3.1/array **** #else
  37:/Applications/ARM/arm-none-eabi/include/c++/10.3.1/array **** 
  38:/Applications/ARM/arm-none-eabi/include/c++/10.3.1/array **** #include <utility>
  39:/Applications/ARM/arm-none-eabi/include/c++/10.3.1/array **** #include <bits/functexcept.h>
  40:/Applications/ARM/arm-none-eabi/include/c++/10.3.1/array **** #include <bits/stl_algobase.h>
  41:/Applications/ARM/arm-none-eabi/include/c++/10.3.1/array **** #include <bits/range_access.h>
  42:/Applications/ARM/arm-none-eabi/include/c++/10.3.1/array **** 
  43:/Applications/ARM/arm-none-eabi/include/c++/10.3.1/array **** namespace std _GLIBCXX_VISIBILITY(default)
  44:/Applications/ARM/arm-none-eabi/include/c++/10.3.1/array **** {
  45:/Applications/ARM/arm-none-eabi/include/c++/10.3.1/array **** _GLIBCXX_BEGIN_NAMESPACE_CONTAINER
  46:/Applications/ARM/arm-none-eabi/include/c++/10.3.1/array **** 
  47:/Applications/ARM/arm-none-eabi/include/c++/10.3.1/array ****   template<typename _Tp, std::size_t _Nm>
  48:/Applications/ARM/arm-none-eabi/include/c++/10.3.1/array ****     struct __array_traits
  49:/Applications/ARM/arm-none-eabi/include/c++/10.3.1/array ****     {
  50:/Applications/ARM/arm-none-eabi/include/c++/10.3.1/array ****       typedef _Tp _Type[_Nm];
  51:/Applications/ARM/arm-none-eabi/include/c++/10.3.1/array ****       typedef __is_swappable<_Tp> _Is_swappable;
ARM GAS  /var/folders/z2/7_lhr9dn53s9tj4s0rwtyswm0000gn/T//ccJ9q3ms.s 			page 26


  52:/Applications/ARM/arm-none-eabi/include/c++/10.3.1/array ****       typedef __is_nothrow_swappable<_Tp> _Is_nothrow_swappable;
  53:/Applications/ARM/arm-none-eabi/include/c++/10.3.1/array **** 
  54:/Applications/ARM/arm-none-eabi/include/c++/10.3.1/array ****       static constexpr _Tp&
  55:/Applications/ARM/arm-none-eabi/include/c++/10.3.1/array ****       _S_ref(const _Type& __t, std::size_t __n) noexcept
  56:/Applications/ARM/arm-none-eabi/include/c++/10.3.1/array ****       { return const_cast<_Tp&>(__t[__n]); }
  57:/Applications/ARM/arm-none-eabi/include/c++/10.3.1/array **** 
  58:/Applications/ARM/arm-none-eabi/include/c++/10.3.1/array ****       static constexpr _Tp*
  59:/Applications/ARM/arm-none-eabi/include/c++/10.3.1/array ****       _S_ptr(const _Type& __t) noexcept
  60:/Applications/ARM/arm-none-eabi/include/c++/10.3.1/array ****       { return const_cast<_Tp*>(__t); }
  61:/Applications/ARM/arm-none-eabi/include/c++/10.3.1/array ****     };
  62:/Applications/ARM/arm-none-eabi/include/c++/10.3.1/array **** 
  63:/Applications/ARM/arm-none-eabi/include/c++/10.3.1/array ****  template<typename _Tp>
  64:/Applications/ARM/arm-none-eabi/include/c++/10.3.1/array ****    struct __array_traits<_Tp, 0>
  65:/Applications/ARM/arm-none-eabi/include/c++/10.3.1/array ****    {
  66:/Applications/ARM/arm-none-eabi/include/c++/10.3.1/array ****      struct _Type { };
  67:/Applications/ARM/arm-none-eabi/include/c++/10.3.1/array ****      typedef true_type _Is_swappable;
  68:/Applications/ARM/arm-none-eabi/include/c++/10.3.1/array ****      typedef true_type _Is_nothrow_swappable;
  69:/Applications/ARM/arm-none-eabi/include/c++/10.3.1/array **** 
  70:/Applications/ARM/arm-none-eabi/include/c++/10.3.1/array ****      static constexpr _Tp&
  71:/Applications/ARM/arm-none-eabi/include/c++/10.3.1/array ****      _S_ref(const _Type&, std::size_t) noexcept
  72:/Applications/ARM/arm-none-eabi/include/c++/10.3.1/array ****      { return *static_cast<_Tp*>(nullptr); }
  73:/Applications/ARM/arm-none-eabi/include/c++/10.3.1/array **** 
  74:/Applications/ARM/arm-none-eabi/include/c++/10.3.1/array ****      static constexpr _Tp*
  75:/Applications/ARM/arm-none-eabi/include/c++/10.3.1/array ****      _S_ptr(const _Type&) noexcept
  76:/Applications/ARM/arm-none-eabi/include/c++/10.3.1/array ****      { return nullptr; }
  77:/Applications/ARM/arm-none-eabi/include/c++/10.3.1/array ****    };
  78:/Applications/ARM/arm-none-eabi/include/c++/10.3.1/array **** 
  79:/Applications/ARM/arm-none-eabi/include/c++/10.3.1/array ****   /**
  80:/Applications/ARM/arm-none-eabi/include/c++/10.3.1/array ****    *  @brief A standard container for storing a fixed size sequence of elements.
  81:/Applications/ARM/arm-none-eabi/include/c++/10.3.1/array ****    *
  82:/Applications/ARM/arm-none-eabi/include/c++/10.3.1/array ****    *  @ingroup sequences
  83:/Applications/ARM/arm-none-eabi/include/c++/10.3.1/array ****    *
  84:/Applications/ARM/arm-none-eabi/include/c++/10.3.1/array ****    *  Meets the requirements of a <a href="tables.html#65">container</a>, a
  85:/Applications/ARM/arm-none-eabi/include/c++/10.3.1/array ****    *  <a href="tables.html#66">reversible container</a>, and a
  86:/Applications/ARM/arm-none-eabi/include/c++/10.3.1/array ****    *  <a href="tables.html#67">sequence</a>.
  87:/Applications/ARM/arm-none-eabi/include/c++/10.3.1/array ****    *
  88:/Applications/ARM/arm-none-eabi/include/c++/10.3.1/array ****    *  Sets support random access iterators.
  89:/Applications/ARM/arm-none-eabi/include/c++/10.3.1/array ****    *
  90:/Applications/ARM/arm-none-eabi/include/c++/10.3.1/array ****    *  @tparam  Tp  Type of element. Required to be a complete type.
  91:/Applications/ARM/arm-none-eabi/include/c++/10.3.1/array ****    *  @tparam  Nm  Number of elements.
  92:/Applications/ARM/arm-none-eabi/include/c++/10.3.1/array ****   */
  93:/Applications/ARM/arm-none-eabi/include/c++/10.3.1/array ****   template<typename _Tp, std::size_t _Nm>
  94:/Applications/ARM/arm-none-eabi/include/c++/10.3.1/array ****     struct array
  95:/Applications/ARM/arm-none-eabi/include/c++/10.3.1/array ****     {
  96:/Applications/ARM/arm-none-eabi/include/c++/10.3.1/array ****       typedef _Tp 	    			      value_type;
  97:/Applications/ARM/arm-none-eabi/include/c++/10.3.1/array ****       typedef value_type*			      pointer;
  98:/Applications/ARM/arm-none-eabi/include/c++/10.3.1/array ****       typedef const value_type*                       const_pointer;
  99:/Applications/ARM/arm-none-eabi/include/c++/10.3.1/array ****       typedef value_type&                   	      reference;
 100:/Applications/ARM/arm-none-eabi/include/c++/10.3.1/array ****       typedef const value_type&             	      const_reference;
 101:/Applications/ARM/arm-none-eabi/include/c++/10.3.1/array ****       typedef value_type*          		      iterator;
 102:/Applications/ARM/arm-none-eabi/include/c++/10.3.1/array ****       typedef const value_type*			      const_iterator;
 103:/Applications/ARM/arm-none-eabi/include/c++/10.3.1/array ****       typedef std::size_t                    	      size_type;
 104:/Applications/ARM/arm-none-eabi/include/c++/10.3.1/array ****       typedef std::ptrdiff_t                   	      difference_type;
 105:/Applications/ARM/arm-none-eabi/include/c++/10.3.1/array ****       typedef std::reverse_iterator<iterator>	      reverse_iterator;
 106:/Applications/ARM/arm-none-eabi/include/c++/10.3.1/array ****       typedef std::reverse_iterator<const_iterator>   const_reverse_iterator;
 107:/Applications/ARM/arm-none-eabi/include/c++/10.3.1/array **** 
 108:/Applications/ARM/arm-none-eabi/include/c++/10.3.1/array ****       // Support for zero-sized arrays mandatory.
ARM GAS  /var/folders/z2/7_lhr9dn53s9tj4s0rwtyswm0000gn/T//ccJ9q3ms.s 			page 27


 109:/Applications/ARM/arm-none-eabi/include/c++/10.3.1/array ****       typedef _GLIBCXX_STD_C::__array_traits<_Tp, _Nm> _AT_Type;
 110:/Applications/ARM/arm-none-eabi/include/c++/10.3.1/array ****       typename _AT_Type::_Type                         _M_elems;
 111:/Applications/ARM/arm-none-eabi/include/c++/10.3.1/array **** 
 112:/Applications/ARM/arm-none-eabi/include/c++/10.3.1/array ****       // No explicit construct/copy/destroy for aggregate type.
 113:/Applications/ARM/arm-none-eabi/include/c++/10.3.1/array **** 
 114:/Applications/ARM/arm-none-eabi/include/c++/10.3.1/array ****       // DR 776.
 115:/Applications/ARM/arm-none-eabi/include/c++/10.3.1/array ****       _GLIBCXX20_CONSTEXPR void
 116:/Applications/ARM/arm-none-eabi/include/c++/10.3.1/array ****       fill(const value_type& __u)
 117:/Applications/ARM/arm-none-eabi/include/c++/10.3.1/array ****       { std::fill_n(begin(), size(), __u); }
 118:/Applications/ARM/arm-none-eabi/include/c++/10.3.1/array **** 
 119:/Applications/ARM/arm-none-eabi/include/c++/10.3.1/array ****       _GLIBCXX20_CONSTEXPR void
 120:/Applications/ARM/arm-none-eabi/include/c++/10.3.1/array ****       swap(array& __other)
 121:/Applications/ARM/arm-none-eabi/include/c++/10.3.1/array ****       noexcept(_AT_Type::_Is_nothrow_swappable::value)
 122:/Applications/ARM/arm-none-eabi/include/c++/10.3.1/array ****       { std::swap_ranges(begin(), end(), __other.begin()); }
 123:/Applications/ARM/arm-none-eabi/include/c++/10.3.1/array **** 
 124:/Applications/ARM/arm-none-eabi/include/c++/10.3.1/array ****       // Iterators.
 125:/Applications/ARM/arm-none-eabi/include/c++/10.3.1/array ****       _GLIBCXX17_CONSTEXPR iterator
 126:/Applications/ARM/arm-none-eabi/include/c++/10.3.1/array ****       begin() noexcept
 127:/Applications/ARM/arm-none-eabi/include/c++/10.3.1/array ****       { return iterator(data()); }
 128:/Applications/ARM/arm-none-eabi/include/c++/10.3.1/array **** 
 129:/Applications/ARM/arm-none-eabi/include/c++/10.3.1/array ****       _GLIBCXX17_CONSTEXPR const_iterator
 130:/Applications/ARM/arm-none-eabi/include/c++/10.3.1/array ****       begin() const noexcept
 131:/Applications/ARM/arm-none-eabi/include/c++/10.3.1/array ****       { return const_iterator(data()); }
 132:/Applications/ARM/arm-none-eabi/include/c++/10.3.1/array **** 
 133:/Applications/ARM/arm-none-eabi/include/c++/10.3.1/array ****       _GLIBCXX17_CONSTEXPR iterator
 134:/Applications/ARM/arm-none-eabi/include/c++/10.3.1/array ****       end() noexcept
 135:/Applications/ARM/arm-none-eabi/include/c++/10.3.1/array ****       { return iterator(data() + _Nm); }
 136:/Applications/ARM/arm-none-eabi/include/c++/10.3.1/array **** 
 137:/Applications/ARM/arm-none-eabi/include/c++/10.3.1/array ****       _GLIBCXX17_CONSTEXPR const_iterator
 138:/Applications/ARM/arm-none-eabi/include/c++/10.3.1/array ****       end() const noexcept
 139:/Applications/ARM/arm-none-eabi/include/c++/10.3.1/array ****       { return const_iterator(data() + _Nm); }
 140:/Applications/ARM/arm-none-eabi/include/c++/10.3.1/array **** 
 141:/Applications/ARM/arm-none-eabi/include/c++/10.3.1/array ****       _GLIBCXX17_CONSTEXPR reverse_iterator
 142:/Applications/ARM/arm-none-eabi/include/c++/10.3.1/array ****       rbegin() noexcept
 143:/Applications/ARM/arm-none-eabi/include/c++/10.3.1/array ****       { return reverse_iterator(end()); }
 144:/Applications/ARM/arm-none-eabi/include/c++/10.3.1/array **** 
 145:/Applications/ARM/arm-none-eabi/include/c++/10.3.1/array ****       _GLIBCXX17_CONSTEXPR const_reverse_iterator
 146:/Applications/ARM/arm-none-eabi/include/c++/10.3.1/array ****       rbegin() const noexcept
 147:/Applications/ARM/arm-none-eabi/include/c++/10.3.1/array ****       { return const_reverse_iterator(end()); }
 148:/Applications/ARM/arm-none-eabi/include/c++/10.3.1/array **** 
 149:/Applications/ARM/arm-none-eabi/include/c++/10.3.1/array ****       _GLIBCXX17_CONSTEXPR reverse_iterator
 150:/Applications/ARM/arm-none-eabi/include/c++/10.3.1/array ****       rend() noexcept
 151:/Applications/ARM/arm-none-eabi/include/c++/10.3.1/array ****       { return reverse_iterator(begin()); }
 152:/Applications/ARM/arm-none-eabi/include/c++/10.3.1/array **** 
 153:/Applications/ARM/arm-none-eabi/include/c++/10.3.1/array ****       _GLIBCXX17_CONSTEXPR const_reverse_iterator
 154:/Applications/ARM/arm-none-eabi/include/c++/10.3.1/array ****       rend() const noexcept
 155:/Applications/ARM/arm-none-eabi/include/c++/10.3.1/array ****       { return const_reverse_iterator(begin()); }
 156:/Applications/ARM/arm-none-eabi/include/c++/10.3.1/array **** 
 157:/Applications/ARM/arm-none-eabi/include/c++/10.3.1/array ****       _GLIBCXX17_CONSTEXPR const_iterator
 158:/Applications/ARM/arm-none-eabi/include/c++/10.3.1/array ****       cbegin() const noexcept
 159:/Applications/ARM/arm-none-eabi/include/c++/10.3.1/array ****       { return const_iterator(data()); }
 160:/Applications/ARM/arm-none-eabi/include/c++/10.3.1/array **** 
 161:/Applications/ARM/arm-none-eabi/include/c++/10.3.1/array ****       _GLIBCXX17_CONSTEXPR const_iterator
 162:/Applications/ARM/arm-none-eabi/include/c++/10.3.1/array ****       cend() const noexcept
 163:/Applications/ARM/arm-none-eabi/include/c++/10.3.1/array ****       { return const_iterator(data() + _Nm); }
 164:/Applications/ARM/arm-none-eabi/include/c++/10.3.1/array **** 
 165:/Applications/ARM/arm-none-eabi/include/c++/10.3.1/array ****       _GLIBCXX17_CONSTEXPR const_reverse_iterator
ARM GAS  /var/folders/z2/7_lhr9dn53s9tj4s0rwtyswm0000gn/T//ccJ9q3ms.s 			page 28


 166:/Applications/ARM/arm-none-eabi/include/c++/10.3.1/array ****       crbegin() const noexcept
 167:/Applications/ARM/arm-none-eabi/include/c++/10.3.1/array ****       { return const_reverse_iterator(end()); }
 168:/Applications/ARM/arm-none-eabi/include/c++/10.3.1/array **** 
 169:/Applications/ARM/arm-none-eabi/include/c++/10.3.1/array ****       _GLIBCXX17_CONSTEXPR const_reverse_iterator
 170:/Applications/ARM/arm-none-eabi/include/c++/10.3.1/array ****       crend() const noexcept
 171:/Applications/ARM/arm-none-eabi/include/c++/10.3.1/array ****       { return const_reverse_iterator(begin()); }
 172:/Applications/ARM/arm-none-eabi/include/c++/10.3.1/array **** 
 173:/Applications/ARM/arm-none-eabi/include/c++/10.3.1/array ****       // Capacity.
 174:/Applications/ARM/arm-none-eabi/include/c++/10.3.1/array ****       constexpr size_type
 175:/Applications/ARM/arm-none-eabi/include/c++/10.3.1/array ****       size() const noexcept { return _Nm; }
 176:/Applications/ARM/arm-none-eabi/include/c++/10.3.1/array **** 
 177:/Applications/ARM/arm-none-eabi/include/c++/10.3.1/array ****       constexpr size_type
 178:/Applications/ARM/arm-none-eabi/include/c++/10.3.1/array ****       max_size() const noexcept { return _Nm; }
 179:/Applications/ARM/arm-none-eabi/include/c++/10.3.1/array **** 
 180:/Applications/ARM/arm-none-eabi/include/c++/10.3.1/array ****       _GLIBCXX_NODISCARD constexpr bool
 181:/Applications/ARM/arm-none-eabi/include/c++/10.3.1/array ****       empty() const noexcept { return size() == 0; }
 182:/Applications/ARM/arm-none-eabi/include/c++/10.3.1/array **** 
 183:/Applications/ARM/arm-none-eabi/include/c++/10.3.1/array ****       // Element access.
 184:/Applications/ARM/arm-none-eabi/include/c++/10.3.1/array ****       _GLIBCXX17_CONSTEXPR reference
 185:/Applications/ARM/arm-none-eabi/include/c++/10.3.1/array ****       operator[](size_type __n) noexcept
 186:/Applications/ARM/arm-none-eabi/include/c++/10.3.1/array ****       { return _AT_Type::_S_ref(_M_elems, __n); }
 187:/Applications/ARM/arm-none-eabi/include/c++/10.3.1/array **** 
 188:/Applications/ARM/arm-none-eabi/include/c++/10.3.1/array ****       constexpr const_reference
 189:/Applications/ARM/arm-none-eabi/include/c++/10.3.1/array ****       operator[](size_type __n) const noexcept
 190:/Applications/ARM/arm-none-eabi/include/c++/10.3.1/array ****       { return _AT_Type::_S_ref(_M_elems, __n); }
 191:/Applications/ARM/arm-none-eabi/include/c++/10.3.1/array **** 
 192:/Applications/ARM/arm-none-eabi/include/c++/10.3.1/array ****       _GLIBCXX17_CONSTEXPR reference
 193:/Applications/ARM/arm-none-eabi/include/c++/10.3.1/array ****       at(size_type __n)
 194:/Applications/ARM/arm-none-eabi/include/c++/10.3.1/array ****       {
 195:/Applications/ARM/arm-none-eabi/include/c++/10.3.1/array **** 	if (__n >= _Nm)
 196:/Applications/ARM/arm-none-eabi/include/c++/10.3.1/array **** 	  std::__throw_out_of_range_fmt(__N("array::at: __n (which is %zu) "
 197:/Applications/ARM/arm-none-eabi/include/c++/10.3.1/array **** 					    ">= _Nm (which is %zu)"),
 198:/Applications/ARM/arm-none-eabi/include/c++/10.3.1/array **** 					__n, _Nm);
 199:/Applications/ARM/arm-none-eabi/include/c++/10.3.1/array **** 	return _AT_Type::_S_ref(_M_elems, __n);
 200:/Applications/ARM/arm-none-eabi/include/c++/10.3.1/array ****       }
 201:/Applications/ARM/arm-none-eabi/include/c++/10.3.1/array **** 
 202:/Applications/ARM/arm-none-eabi/include/c++/10.3.1/array ****       constexpr const_reference
 203:/Applications/ARM/arm-none-eabi/include/c++/10.3.1/array ****       at(size_type __n) const
 204:/Applications/ARM/arm-none-eabi/include/c++/10.3.1/array ****       {
 205:/Applications/ARM/arm-none-eabi/include/c++/10.3.1/array **** 	// Result of conditional expression must be an lvalue so use
 206:/Applications/ARM/arm-none-eabi/include/c++/10.3.1/array **** 	// boolean ? lvalue : (throw-expr, lvalue)
 207:/Applications/ARM/arm-none-eabi/include/c++/10.3.1/array **** 	return __n < _Nm ? _AT_Type::_S_ref(_M_elems, __n)
 208:/Applications/ARM/arm-none-eabi/include/c++/10.3.1/array **** 	  : (std::__throw_out_of_range_fmt(__N("array::at: __n (which is %zu) "
 209:/Applications/ARM/arm-none-eabi/include/c++/10.3.1/array **** 					       ">= _Nm (which is %zu)"),
 210:/Applications/ARM/arm-none-eabi/include/c++/10.3.1/array **** 					   __n, _Nm),
 211:/Applications/ARM/arm-none-eabi/include/c++/10.3.1/array **** 	     _AT_Type::_S_ref(_M_elems, 0));
 212:/Applications/ARM/arm-none-eabi/include/c++/10.3.1/array ****       }
 213:/Applications/ARM/arm-none-eabi/include/c++/10.3.1/array **** 
 214:/Applications/ARM/arm-none-eabi/include/c++/10.3.1/array ****       _GLIBCXX17_CONSTEXPR reference
 215:/Applications/ARM/arm-none-eabi/include/c++/10.3.1/array ****       front() noexcept
 216:/Applications/ARM/arm-none-eabi/include/c++/10.3.1/array ****       { return *begin(); }
 217:/Applications/ARM/arm-none-eabi/include/c++/10.3.1/array **** 
 218:/Applications/ARM/arm-none-eabi/include/c++/10.3.1/array ****       constexpr const_reference
 219:/Applications/ARM/arm-none-eabi/include/c++/10.3.1/array ****       front() const noexcept
 220:/Applications/ARM/arm-none-eabi/include/c++/10.3.1/array ****       { return _AT_Type::_S_ref(_M_elems, 0); }
 221:/Applications/ARM/arm-none-eabi/include/c++/10.3.1/array **** 
 222:/Applications/ARM/arm-none-eabi/include/c++/10.3.1/array ****       _GLIBCXX17_CONSTEXPR reference
ARM GAS  /var/folders/z2/7_lhr9dn53s9tj4s0rwtyswm0000gn/T//ccJ9q3ms.s 			page 29


 223:/Applications/ARM/arm-none-eabi/include/c++/10.3.1/array ****       back() noexcept
 224:/Applications/ARM/arm-none-eabi/include/c++/10.3.1/array ****       { return _Nm ? *(end() - 1) : *end(); }
 225:/Applications/ARM/arm-none-eabi/include/c++/10.3.1/array **** 
 226:/Applications/ARM/arm-none-eabi/include/c++/10.3.1/array ****       constexpr const_reference
 227:/Applications/ARM/arm-none-eabi/include/c++/10.3.1/array ****       back() const noexcept
 228:/Applications/ARM/arm-none-eabi/include/c++/10.3.1/array ****       {
 229:/Applications/ARM/arm-none-eabi/include/c++/10.3.1/array **** 	return _Nm ? _AT_Type::_S_ref(_M_elems, _Nm - 1)
 230:/Applications/ARM/arm-none-eabi/include/c++/10.3.1/array ****  	           : _AT_Type::_S_ref(_M_elems, 0);
 231:/Applications/ARM/arm-none-eabi/include/c++/10.3.1/array ****       }
 232:/Applications/ARM/arm-none-eabi/include/c++/10.3.1/array **** 
 233:/Applications/ARM/arm-none-eabi/include/c++/10.3.1/array ****       _GLIBCXX17_CONSTEXPR pointer
 234:/Applications/ARM/arm-none-eabi/include/c++/10.3.1/array ****       data() noexcept
 235:/Applications/ARM/arm-none-eabi/include/c++/10.3.1/array ****       { return _AT_Type::_S_ptr(_M_elems); }
 470              		.loc 16 235 33 view .LVU116
 471 000c 0346     		mov	r3, r0
 472              	.LBE519:
 473              	.LBE518:
 474              	.LBE517:
 475              	.LBB523:
 476              	.LBB515:
  44:../..//DaisySP//Source/Utility/dsp.h **** #else
 477              		.loc 15 44 5 view .LVU117
 478              		.syntax unified
 479              	@ 44 "../..//DaisySP//Source/Utility/dsp.h" 1
 480 000e 87FE000A 		vmaxnm.f32 s0, s14, s0
 481              	@ 0 "" 2
 482              	.LVL22:
  48:../..//DaisySP//Source/Utility/dsp.h **** }
 483              		.loc 15 48 5 is_stmt 1 view .LVU118
  48:../..//DaisySP//Source/Utility/dsp.h **** }
 484              		.loc 15 48 5 is_stmt 0 view .LVU119
 485              		.thumb
 486              		.syntax unified
 487              	.LBE515:
 488              	.LBE523:
 489              	.LBB524:
 490              	.LBI509:
  51:../..//DaisySP//Source/Utility/dsp.h **** {
 491              		.loc 15 51 14 is_stmt 1 view .LVU120
 492              	.LBB511:
  53:../..//DaisySP//Source/Utility/dsp.h **** #ifdef __arm__
 493              		.loc 15 53 5 view .LVU121
 494              		.loc 15 55 5 view .LVU122
 495              		.syntax unified
 496              	@ 55 "../..//DaisySP//Source/Utility/dsp.h" 1
 497 0012 C0FE667A 		vminnm.f32 s15, s0, s13
 498              	@ 0 "" 2
 499              	.LVL23:
  56:../..//DaisySP//Source/Utility/dsp.h **** #else
  57:../..//DaisySP//Source/Utility/dsp.h ****     r = (a < b) ? a : b;
  58:../..//DaisySP//Source/Utility/dsp.h **** #endif // __arm__
  59:../..//DaisySP//Source/Utility/dsp.h ****     return r;
 500              		.loc 15 59 5 view .LVU123
 501              		.loc 15 59 5 is_stmt 0 view .LVU124
 502              		.thumb
 503              		.syntax unified
 504              	.LBE511:
ARM GAS  /var/folders/z2/7_lhr9dn53s9tj4s0rwtyswm0000gn/T//ccJ9q3ms.s 			page 30


 505              	.LBE524:
 506              		.loc 14 94 56 view .LVU125
 507 0016 77EEA67A 		vadd.f32	s15, s15, s13
 508              	.LVL24:
 509              	.LBB525:
 510              	.LBB521:
 511              	.LBB520:
 512              		.loc 16 235 33 view .LVU126
 513 001a 9FED727A 		vldr.32	s14, .L19+4
 514              	.LBE520:
 515              	.LBE521:
 516              	.LBE525:
 517              		.loc 14 94 21 view .LVU127
 518 001e F6EE006A 		vmov.f32	s13, #5.0e-1
 519 0022 00F12802 		add	r2, r0, #40
 520              		.loc 14 94 49 view .LVU128
 521 0026 67EE867A 		vmul.f32	s15, s15, s12
  92:shaper.h      ****         in = fmin(fmax(-1.f, in), 1.f);
 522              		.loc 14 92 11 view .LVU129
 523 002a 2DE9F043 		push	{r4, r5, r6, r7, r8, r9, lr}
 524              		.cfi_def_cfa_offset 28
 525              		.cfi_offset 4, -28
 526              		.cfi_offset 5, -24
 527              		.cfi_offset 6, -20
 528              		.cfi_offset 7, -16
 529              		.cfi_offset 8, -12
 530              		.cfi_offset 9, -8
 531              		.cfi_offset 14, -4
 532              		.loc 14 94 21 view .LVU130
 533 002e 67EEA67A 		vmul.f32	s15, s15, s13
 534              	.LVL25:
  92:shaper.h      ****         in = fmin(fmax(-1.f, in), 1.f);
 535              		.loc 14 92 11 view .LVU131
 536 0032 2DED088B 		vpush.64	{d8, d9, d10, d11}
 537              		.cfi_def_cfa_offset 60
 538              		.cfi_offset 80, -60
 539              		.cfi_offset 81, -56
 540              		.cfi_offset 82, -52
 541              		.cfi_offset 83, -48
 542              		.cfi_offset 84, -44
 543              		.cfi_offset 85, -40
 544              		.cfi_offset 86, -36
 545              		.cfi_offset 87, -32
  95:shaper.h      ****         const uint16_t int_ind = static_cast<uint16_t>(ind);
 546              		.loc 14 95 24 view .LVU132
 547 0036 FCEEE76A 		vcvt.u32.f32	s13, s15
 548 003a 16EE901A 		vmov	r1, s13	@ int
 549 003e 89B2     		uxth	r1, r1
 550              	.LVL26:
  96:shaper.h      ****         const float frac = ind - static_cast<float>(int_ind);
 551              		.loc 14 96 34 view .LVU133
 552 0040 06EE901A 		vmov	s13, r1	@ int
 553 0044 F8EE666A 		vcvt.f32.u32	s13, s13
 554              		.loc 14 96 21 view .LVU134
 555 0048 77EEE66A 		vsub.f32	s13, s15, s13
 556              	.LVL27:
 557              	.LBB526:
ARM GAS  /var/folders/z2/7_lhr9dn53s9tj4s0rwtyswm0000gn/T//ccJ9q3ms.s 			page 31


 558              	.LBI517:
 126:/Applications/ARM/arm-none-eabi/include/c++/10.3.1/array ****       { return iterator(data()); }
 559              		.loc 16 126 7 is_stmt 1 view .LVU135
 560              	.LBB522:
 561              	.LBI518:
 234:/Applications/ARM/arm-none-eabi/include/c++/10.3.1/array ****       { return _AT_Type::_S_ptr(_M_elems); }
 562              		.loc 16 234 7 view .LVU136
 234:/Applications/ARM/arm-none-eabi/include/c++/10.3.1/array ****       { return _AT_Type::_S_ptr(_M_elems); }
 563              		.loc 16 234 7 is_stmt 0 view .LVU137
 564              	.LBE522:
 565              	.LBE526:
 566              	.LBB527:
 567              	.LBI527:
 568              		.file 17 "/Applications/ARM/arm-none-eabi/include/c++/10.3.1/bits/stl_numeric.h"
   1:/Applications/ARM/arm-none-eabi/include/c++/10.3.1/bits/stl_numeric.h **** // Numeric functions implementation -*- C++ -*-
   2:/Applications/ARM/arm-none-eabi/include/c++/10.3.1/bits/stl_numeric.h **** 
   3:/Applications/ARM/arm-none-eabi/include/c++/10.3.1/bits/stl_numeric.h **** // Copyright (C) 2001-2020 Free Software Foundation, Inc.
   4:/Applications/ARM/arm-none-eabi/include/c++/10.3.1/bits/stl_numeric.h **** //
   5:/Applications/ARM/arm-none-eabi/include/c++/10.3.1/bits/stl_numeric.h **** // This file is part of the GNU ISO C++ Library.  This library is free
   6:/Applications/ARM/arm-none-eabi/include/c++/10.3.1/bits/stl_numeric.h **** // software; you can redistribute it and/or modify it under the
   7:/Applications/ARM/arm-none-eabi/include/c++/10.3.1/bits/stl_numeric.h **** // terms of the GNU General Public License as published by the
   8:/Applications/ARM/arm-none-eabi/include/c++/10.3.1/bits/stl_numeric.h **** // Free Software Foundation; either version 3, or (at your option)
   9:/Applications/ARM/arm-none-eabi/include/c++/10.3.1/bits/stl_numeric.h **** // any later version.
  10:/Applications/ARM/arm-none-eabi/include/c++/10.3.1/bits/stl_numeric.h **** 
  11:/Applications/ARM/arm-none-eabi/include/c++/10.3.1/bits/stl_numeric.h **** // This library is distributed in the hope that it will be useful,
  12:/Applications/ARM/arm-none-eabi/include/c++/10.3.1/bits/stl_numeric.h **** // but WITHOUT ANY WARRANTY; without even the implied warranty of
  13:/Applications/ARM/arm-none-eabi/include/c++/10.3.1/bits/stl_numeric.h **** // MERCHANTABILITY or FITNESS FOR A PARTICULAR PURPOSE.  See the
  14:/Applications/ARM/arm-none-eabi/include/c++/10.3.1/bits/stl_numeric.h **** // GNU General Public License for more details.
  15:/Applications/ARM/arm-none-eabi/include/c++/10.3.1/bits/stl_numeric.h **** 
  16:/Applications/ARM/arm-none-eabi/include/c++/10.3.1/bits/stl_numeric.h **** // Under Section 7 of GPL version 3, you are granted additional
  17:/Applications/ARM/arm-none-eabi/include/c++/10.3.1/bits/stl_numeric.h **** // permissions described in the GCC Runtime Library Exception, version
  18:/Applications/ARM/arm-none-eabi/include/c++/10.3.1/bits/stl_numeric.h **** // 3.1, as published by the Free Software Foundation.
  19:/Applications/ARM/arm-none-eabi/include/c++/10.3.1/bits/stl_numeric.h **** 
  20:/Applications/ARM/arm-none-eabi/include/c++/10.3.1/bits/stl_numeric.h **** // You should have received a copy of the GNU General Public License and
  21:/Applications/ARM/arm-none-eabi/include/c++/10.3.1/bits/stl_numeric.h **** // a copy of the GCC Runtime Library Exception along with this program;
  22:/Applications/ARM/arm-none-eabi/include/c++/10.3.1/bits/stl_numeric.h **** // see the files COPYING3 and COPYING.RUNTIME respectively.  If not, see
  23:/Applications/ARM/arm-none-eabi/include/c++/10.3.1/bits/stl_numeric.h **** // <http://www.gnu.org/licenses/>.
  24:/Applications/ARM/arm-none-eabi/include/c++/10.3.1/bits/stl_numeric.h **** 
  25:/Applications/ARM/arm-none-eabi/include/c++/10.3.1/bits/stl_numeric.h **** /*
  26:/Applications/ARM/arm-none-eabi/include/c++/10.3.1/bits/stl_numeric.h ****  *
  27:/Applications/ARM/arm-none-eabi/include/c++/10.3.1/bits/stl_numeric.h ****  * Copyright (c) 1994
  28:/Applications/ARM/arm-none-eabi/include/c++/10.3.1/bits/stl_numeric.h ****  * Hewlett-Packard Company
  29:/Applications/ARM/arm-none-eabi/include/c++/10.3.1/bits/stl_numeric.h ****  *
  30:/Applications/ARM/arm-none-eabi/include/c++/10.3.1/bits/stl_numeric.h ****  * Permission to use, copy, modify, distribute and sell this software
  31:/Applications/ARM/arm-none-eabi/include/c++/10.3.1/bits/stl_numeric.h ****  * and its documentation for any purpose is hereby granted without fee,
  32:/Applications/ARM/arm-none-eabi/include/c++/10.3.1/bits/stl_numeric.h ****  * provided that the above copyright notice appear in all copies and
  33:/Applications/ARM/arm-none-eabi/include/c++/10.3.1/bits/stl_numeric.h ****  * that both that copyright notice and this permission notice appear
  34:/Applications/ARM/arm-none-eabi/include/c++/10.3.1/bits/stl_numeric.h ****  * in supporting documentation.  Hewlett-Packard Company makes no
  35:/Applications/ARM/arm-none-eabi/include/c++/10.3.1/bits/stl_numeric.h ****  * representations about the suitability of this software for any
  36:/Applications/ARM/arm-none-eabi/include/c++/10.3.1/bits/stl_numeric.h ****  * purpose.  It is provided "as is" without express or implied warranty.
  37:/Applications/ARM/arm-none-eabi/include/c++/10.3.1/bits/stl_numeric.h ****  *
  38:/Applications/ARM/arm-none-eabi/include/c++/10.3.1/bits/stl_numeric.h ****  *
  39:/Applications/ARM/arm-none-eabi/include/c++/10.3.1/bits/stl_numeric.h ****  * Copyright (c) 1996,1997
  40:/Applications/ARM/arm-none-eabi/include/c++/10.3.1/bits/stl_numeric.h ****  * Silicon Graphics Computer Systems, Inc.
  41:/Applications/ARM/arm-none-eabi/include/c++/10.3.1/bits/stl_numeric.h ****  *
  42:/Applications/ARM/arm-none-eabi/include/c++/10.3.1/bits/stl_numeric.h ****  * Permission to use, copy, modify, distribute and sell this software
  43:/Applications/ARM/arm-none-eabi/include/c++/10.3.1/bits/stl_numeric.h ****  * and its documentation for any purpose is hereby granted without fee,
ARM GAS  /var/folders/z2/7_lhr9dn53s9tj4s0rwtyswm0000gn/T//ccJ9q3ms.s 			page 32


  44:/Applications/ARM/arm-none-eabi/include/c++/10.3.1/bits/stl_numeric.h ****  * provided that the above copyright notice appear in all copies and
  45:/Applications/ARM/arm-none-eabi/include/c++/10.3.1/bits/stl_numeric.h ****  * that both that copyright notice and this permission notice appear
  46:/Applications/ARM/arm-none-eabi/include/c++/10.3.1/bits/stl_numeric.h ****  * in supporting documentation.  Silicon Graphics makes no
  47:/Applications/ARM/arm-none-eabi/include/c++/10.3.1/bits/stl_numeric.h ****  * representations about the suitability of this software for any
  48:/Applications/ARM/arm-none-eabi/include/c++/10.3.1/bits/stl_numeric.h ****  * purpose.  It is provided "as is" without express or implied warranty.
  49:/Applications/ARM/arm-none-eabi/include/c++/10.3.1/bits/stl_numeric.h ****  */
  50:/Applications/ARM/arm-none-eabi/include/c++/10.3.1/bits/stl_numeric.h **** 
  51:/Applications/ARM/arm-none-eabi/include/c++/10.3.1/bits/stl_numeric.h **** /** @file bits/stl_numeric.h
  52:/Applications/ARM/arm-none-eabi/include/c++/10.3.1/bits/stl_numeric.h ****  *  This is an internal header file, included by other library headers.
  53:/Applications/ARM/arm-none-eabi/include/c++/10.3.1/bits/stl_numeric.h ****  *  Do not attempt to use it directly. @headername{numeric}
  54:/Applications/ARM/arm-none-eabi/include/c++/10.3.1/bits/stl_numeric.h ****  */
  55:/Applications/ARM/arm-none-eabi/include/c++/10.3.1/bits/stl_numeric.h **** 
  56:/Applications/ARM/arm-none-eabi/include/c++/10.3.1/bits/stl_numeric.h **** #ifndef _STL_NUMERIC_H
  57:/Applications/ARM/arm-none-eabi/include/c++/10.3.1/bits/stl_numeric.h **** #define _STL_NUMERIC_H 1
  58:/Applications/ARM/arm-none-eabi/include/c++/10.3.1/bits/stl_numeric.h **** 
  59:/Applications/ARM/arm-none-eabi/include/c++/10.3.1/bits/stl_numeric.h **** #include <bits/concept_check.h>
  60:/Applications/ARM/arm-none-eabi/include/c++/10.3.1/bits/stl_numeric.h **** #include <debug/debug.h>
  61:/Applications/ARM/arm-none-eabi/include/c++/10.3.1/bits/stl_numeric.h **** #include <bits/move.h> // For _GLIBCXX_MOVE
  62:/Applications/ARM/arm-none-eabi/include/c++/10.3.1/bits/stl_numeric.h **** 
  63:/Applications/ARM/arm-none-eabi/include/c++/10.3.1/bits/stl_numeric.h **** 
  64:/Applications/ARM/arm-none-eabi/include/c++/10.3.1/bits/stl_numeric.h **** namespace std _GLIBCXX_VISIBILITY(default)
  65:/Applications/ARM/arm-none-eabi/include/c++/10.3.1/bits/stl_numeric.h **** {
  66:/Applications/ARM/arm-none-eabi/include/c++/10.3.1/bits/stl_numeric.h **** _GLIBCXX_BEGIN_NAMESPACE_VERSION
  67:/Applications/ARM/arm-none-eabi/include/c++/10.3.1/bits/stl_numeric.h **** 
  68:/Applications/ARM/arm-none-eabi/include/c++/10.3.1/bits/stl_numeric.h ****   /** @defgroup numeric_ops Generalized Numeric operations
  69:/Applications/ARM/arm-none-eabi/include/c++/10.3.1/bits/stl_numeric.h ****    *  @ingroup algorithms
  70:/Applications/ARM/arm-none-eabi/include/c++/10.3.1/bits/stl_numeric.h ****    */
  71:/Applications/ARM/arm-none-eabi/include/c++/10.3.1/bits/stl_numeric.h **** 
  72:/Applications/ARM/arm-none-eabi/include/c++/10.3.1/bits/stl_numeric.h **** #if __cplusplus >= 201103L
  73:/Applications/ARM/arm-none-eabi/include/c++/10.3.1/bits/stl_numeric.h ****   /**
  74:/Applications/ARM/arm-none-eabi/include/c++/10.3.1/bits/stl_numeric.h ****    *  @brief  Create a range of sequentially increasing values.
  75:/Applications/ARM/arm-none-eabi/include/c++/10.3.1/bits/stl_numeric.h ****    *
  76:/Applications/ARM/arm-none-eabi/include/c++/10.3.1/bits/stl_numeric.h ****    *  For each element in the range @p [first,last) assigns @p value and
  77:/Applications/ARM/arm-none-eabi/include/c++/10.3.1/bits/stl_numeric.h ****    *  increments @p value as if by @p ++value.
  78:/Applications/ARM/arm-none-eabi/include/c++/10.3.1/bits/stl_numeric.h ****    *
  79:/Applications/ARM/arm-none-eabi/include/c++/10.3.1/bits/stl_numeric.h ****    *  @param  __first  Start of range.
  80:/Applications/ARM/arm-none-eabi/include/c++/10.3.1/bits/stl_numeric.h ****    *  @param  __last  End of range.
  81:/Applications/ARM/arm-none-eabi/include/c++/10.3.1/bits/stl_numeric.h ****    *  @param  __value  Starting value.
  82:/Applications/ARM/arm-none-eabi/include/c++/10.3.1/bits/stl_numeric.h ****    *  @return  Nothing.
  83:/Applications/ARM/arm-none-eabi/include/c++/10.3.1/bits/stl_numeric.h ****    *  @ingroup numeric_ops
  84:/Applications/ARM/arm-none-eabi/include/c++/10.3.1/bits/stl_numeric.h ****    */
  85:/Applications/ARM/arm-none-eabi/include/c++/10.3.1/bits/stl_numeric.h ****   template<typename _ForwardIterator, typename _Tp>
  86:/Applications/ARM/arm-none-eabi/include/c++/10.3.1/bits/stl_numeric.h ****     _GLIBCXX20_CONSTEXPR
  87:/Applications/ARM/arm-none-eabi/include/c++/10.3.1/bits/stl_numeric.h ****     void
  88:/Applications/ARM/arm-none-eabi/include/c++/10.3.1/bits/stl_numeric.h ****     iota(_ForwardIterator __first, _ForwardIterator __last, _Tp __value)
  89:/Applications/ARM/arm-none-eabi/include/c++/10.3.1/bits/stl_numeric.h ****     {
  90:/Applications/ARM/arm-none-eabi/include/c++/10.3.1/bits/stl_numeric.h ****       // concept requirements
  91:/Applications/ARM/arm-none-eabi/include/c++/10.3.1/bits/stl_numeric.h ****       __glibcxx_function_requires(_Mutable_ForwardIteratorConcept<
  92:/Applications/ARM/arm-none-eabi/include/c++/10.3.1/bits/stl_numeric.h **** 				  _ForwardIterator>)
  93:/Applications/ARM/arm-none-eabi/include/c++/10.3.1/bits/stl_numeric.h ****       __glibcxx_function_requires(_ConvertibleConcept<_Tp,
  94:/Applications/ARM/arm-none-eabi/include/c++/10.3.1/bits/stl_numeric.h **** 	    typename iterator_traits<_ForwardIterator>::value_type>)
  95:/Applications/ARM/arm-none-eabi/include/c++/10.3.1/bits/stl_numeric.h ****       __glibcxx_requires_valid_range(__first, __last);
  96:/Applications/ARM/arm-none-eabi/include/c++/10.3.1/bits/stl_numeric.h **** 
  97:/Applications/ARM/arm-none-eabi/include/c++/10.3.1/bits/stl_numeric.h ****       for (; __first != __last; ++__first)
  98:/Applications/ARM/arm-none-eabi/include/c++/10.3.1/bits/stl_numeric.h **** 	{
  99:/Applications/ARM/arm-none-eabi/include/c++/10.3.1/bits/stl_numeric.h **** 	  *__first = __value;
 100:/Applications/ARM/arm-none-eabi/include/c++/10.3.1/bits/stl_numeric.h **** 	  ++__value;
ARM GAS  /var/folders/z2/7_lhr9dn53s9tj4s0rwtyswm0000gn/T//ccJ9q3ms.s 			page 33


 101:/Applications/ARM/arm-none-eabi/include/c++/10.3.1/bits/stl_numeric.h **** 	}
 102:/Applications/ARM/arm-none-eabi/include/c++/10.3.1/bits/stl_numeric.h ****     }
 103:/Applications/ARM/arm-none-eabi/include/c++/10.3.1/bits/stl_numeric.h **** #endif
 104:/Applications/ARM/arm-none-eabi/include/c++/10.3.1/bits/stl_numeric.h **** 
 105:/Applications/ARM/arm-none-eabi/include/c++/10.3.1/bits/stl_numeric.h **** _GLIBCXX_END_NAMESPACE_VERSION
 106:/Applications/ARM/arm-none-eabi/include/c++/10.3.1/bits/stl_numeric.h **** 
 107:/Applications/ARM/arm-none-eabi/include/c++/10.3.1/bits/stl_numeric.h **** _GLIBCXX_BEGIN_NAMESPACE_ALGO
 108:/Applications/ARM/arm-none-eabi/include/c++/10.3.1/bits/stl_numeric.h **** 
 109:/Applications/ARM/arm-none-eabi/include/c++/10.3.1/bits/stl_numeric.h **** #if __cplusplus > 201703L
 110:/Applications/ARM/arm-none-eabi/include/c++/10.3.1/bits/stl_numeric.h **** // _GLIBCXX_RESOLVE_LIB_DEFECTS
 111:/Applications/ARM/arm-none-eabi/include/c++/10.3.1/bits/stl_numeric.h **** // DR 2055. std::move in std::accumulate and other algorithms
 112:/Applications/ARM/arm-none-eabi/include/c++/10.3.1/bits/stl_numeric.h **** # define _GLIBCXX_MOVE_IF_20(_E) std::move(_E)
 113:/Applications/ARM/arm-none-eabi/include/c++/10.3.1/bits/stl_numeric.h **** #else
 114:/Applications/ARM/arm-none-eabi/include/c++/10.3.1/bits/stl_numeric.h **** # define _GLIBCXX_MOVE_IF_20(_E) _E
 115:/Applications/ARM/arm-none-eabi/include/c++/10.3.1/bits/stl_numeric.h **** #endif
 116:/Applications/ARM/arm-none-eabi/include/c++/10.3.1/bits/stl_numeric.h **** 
 117:/Applications/ARM/arm-none-eabi/include/c++/10.3.1/bits/stl_numeric.h ****   /// @addtogroup numeric_ops
 118:/Applications/ARM/arm-none-eabi/include/c++/10.3.1/bits/stl_numeric.h ****   /// @{
 119:/Applications/ARM/arm-none-eabi/include/c++/10.3.1/bits/stl_numeric.h **** 
 120:/Applications/ARM/arm-none-eabi/include/c++/10.3.1/bits/stl_numeric.h ****   /**
 121:/Applications/ARM/arm-none-eabi/include/c++/10.3.1/bits/stl_numeric.h ****    *  @brief  Accumulate values in a range.
 122:/Applications/ARM/arm-none-eabi/include/c++/10.3.1/bits/stl_numeric.h ****    *
 123:/Applications/ARM/arm-none-eabi/include/c++/10.3.1/bits/stl_numeric.h ****    *  Accumulates the values in the range [first,last) using operator+().  The
 124:/Applications/ARM/arm-none-eabi/include/c++/10.3.1/bits/stl_numeric.h ****    *  initial value is @a init.  The values are processed in order.
 125:/Applications/ARM/arm-none-eabi/include/c++/10.3.1/bits/stl_numeric.h ****    *
 126:/Applications/ARM/arm-none-eabi/include/c++/10.3.1/bits/stl_numeric.h ****    *  @param  __first  Start of range.
 127:/Applications/ARM/arm-none-eabi/include/c++/10.3.1/bits/stl_numeric.h ****    *  @param  __last  End of range.
 128:/Applications/ARM/arm-none-eabi/include/c++/10.3.1/bits/stl_numeric.h ****    *  @param  __init  Starting value to add other values to.
 129:/Applications/ARM/arm-none-eabi/include/c++/10.3.1/bits/stl_numeric.h ****    *  @return  The final sum.
 130:/Applications/ARM/arm-none-eabi/include/c++/10.3.1/bits/stl_numeric.h ****    */
 131:/Applications/ARM/arm-none-eabi/include/c++/10.3.1/bits/stl_numeric.h ****   template<typename _InputIterator, typename _Tp>
 132:/Applications/ARM/arm-none-eabi/include/c++/10.3.1/bits/stl_numeric.h ****     _GLIBCXX20_CONSTEXPR
 133:/Applications/ARM/arm-none-eabi/include/c++/10.3.1/bits/stl_numeric.h ****     inline _Tp
 134:/Applications/ARM/arm-none-eabi/include/c++/10.3.1/bits/stl_numeric.h ****     accumulate(_InputIterator __first, _InputIterator __last, _Tp __init)
 569              		.loc 17 134 5 is_stmt 1 view .LVU138
 570              	.LBB528:
 135:/Applications/ARM/arm-none-eabi/include/c++/10.3.1/bits/stl_numeric.h ****     {
 136:/Applications/ARM/arm-none-eabi/include/c++/10.3.1/bits/stl_numeric.h ****       // concept requirements
 137:/Applications/ARM/arm-none-eabi/include/c++/10.3.1/bits/stl_numeric.h ****       __glibcxx_function_requires(_InputIteratorConcept<_InputIterator>)
 138:/Applications/ARM/arm-none-eabi/include/c++/10.3.1/bits/stl_numeric.h ****       __glibcxx_requires_valid_range(__first, __last);
 139:/Applications/ARM/arm-none-eabi/include/c++/10.3.1/bits/stl_numeric.h **** 
 140:/Applications/ARM/arm-none-eabi/include/c++/10.3.1/bits/stl_numeric.h ****       for (; __first != __last; ++__first)
 571              		.loc 17 140 22 view .LVU139
 572              	.L13:
 141:/Applications/ARM/arm-none-eabi/include/c++/10.3.1/bits/stl_numeric.h **** 	__init = _GLIBCXX_MOVE_IF_20(__init) + *__first;
 573              		.loc 17 141 9 is_stmt 0 view .LVU140
 574 004c F3EC017A 		vldmia.32	r3!, {s15}
 575              	.LVL28:
 140:/Applications/ARM/arm-none-eabi/include/c++/10.3.1/bits/stl_numeric.h **** 	__init = _GLIBCXX_MOVE_IF_20(__init) + *__first;
 576              		.loc 17 140 22 view .LVU141
 577 0050 9342     		cmp	r3, r2
 578              		.loc 17 141 9 view .LVU142
 579 0052 37EE277A 		vadd.f32	s14, s14, s15
 580              	.LVL29:
 140:/Applications/ARM/arm-none-eabi/include/c++/10.3.1/bits/stl_numeric.h **** 	__init = _GLIBCXX_MOVE_IF_20(__init) + *__first;
 581              		.loc 17 140 7 is_stmt 1 view .LVU143
 140:/Applications/ARM/arm-none-eabi/include/c++/10.3.1/bits/stl_numeric.h **** 	__init = _GLIBCXX_MOVE_IF_20(__init) + *__first;
ARM GAS  /var/folders/z2/7_lhr9dn53s9tj4s0rwtyswm0000gn/T//ccJ9q3ms.s 			page 34


 582              		.loc 17 140 22 view .LVU144
 583 0056 F9D1     		bne	.L13
 584              	.LVL30:
 140:/Applications/ARM/arm-none-eabi/include/c++/10.3.1/bits/stl_numeric.h **** 	__init = _GLIBCXX_MOVE_IF_20(__init) + *__first;
 585              		.loc 17 140 22 is_stmt 0 view .LVU145
 586              	.LBE528:
 587              	.LBE527:
  97:shaper.h      ****         m_inv_sum = 1.f/std::accumulate(weights.begin(), weights.end(), 0.f);
  98:shaper.h      ****         float a = weights[0] * c1[int_ind]
 588              		.loc 14 98 30 view .LVU146
 589 0058 DFF8A491 		ldr	r9, .L19+32
  97:shaper.h      ****         m_inv_sum = 1.f/std::accumulate(weights.begin(), weights.end(), 0.f);
 590              		.loc 14 97 24 view .LVU147
 591 005c F7EE000A 		vmov.f32	s1, #1.0e+0
  99:shaper.h      ****                 + weights[1] * c2[int_ind]
 592              		.loc 14 99 30 view .LVU148
 593 0060 DFF8A081 		ldr	r8, .L19+36
  98:shaper.h      ****                 + weights[1] * c2[int_ind]
 594              		.loc 14 98 30 view .LVU149
 595 0064 09EB8103 		add	r3, r9, r1, lsl #2
 596              		.loc 14 99 30 view .LVU150
 597 0068 D0ED017A 		vldr.32	s15, [r0, #4]
  98:shaper.h      ****                 + weights[1] * c2[int_ind]
 598              		.loc 14 98 30 view .LVU151
 599 006c D0ED001A 		vldr.32	s3, [r0]
  97:shaper.h      ****         m_inv_sum = 1.f/std::accumulate(weights.begin(), weights.end(), 0.f);
 600              		.loc 14 97 24 view .LVU152
 601 0070 80EE876A 		vdiv.f32	s12, s1, s14
 602              		.loc 14 99 17 view .LVU153
 603 0074 93ED001A 		vldr.32	s2, [r3]
 604              		.loc 14 99 30 view .LVU154
 605 0078 08EB8103 		add	r3, r8, r1, lsl #2
 100:shaper.h      ****                 + weights[2] * c3[int_ind]
 606              		.loc 14 100 30 view .LVU155
 607 007c DFF888E1 		ldr	lr, .L19+40
  99:shaper.h      ****                 + weights[1] * c2[int_ind]
 608              		.loc 14 99 30 view .LVU156
 609 0080 93ED000A 		vldr.32	s0, [r3]
 610              		.loc 14 100 30 view .LVU157
 611 0084 0EEB8103 		add	r3, lr, r1, lsl #2
 612 0088 90ED022A 		vldr.32	s4, [r0, #8]
  99:shaper.h      ****                 + weights[1] * c2[int_ind]
 613              		.loc 14 99 30 view .LVU158
 614 008c 27EE800A 		vmul.f32	s0, s15, s0
 101:shaper.h      ****                 + weights[3] * c4[int_ind]
 615              		.loc 14 101 30 view .LVU159
 616 0090 DFF878C1 		ldr	ip, .L19+44
 100:shaper.h      ****                 + weights[2] * c3[int_ind]
 617              		.loc 14 100 17 view .LVU160
 618 0094 93ED007A 		vldr.32	s14, [r3]
 619              		.loc 14 101 30 view .LVU161
 620 0098 0CEB8103 		add	r3, ip, r1, lsl #2
 621 009c D0ED032A 		vldr.32	s5, [r0, #12]
  99:shaper.h      ****                 + weights[2] * c3[int_ind]
 622              		.loc 14 99 17 view .LVU162
 623 00a0 A1EE810A 		vfma.f32	s0, s3, s2
 102:shaper.h      ****                 + weights[4] * c5[int_ind]
ARM GAS  /var/folders/z2/7_lhr9dn53s9tj4s0rwtyswm0000gn/T//ccJ9q3ms.s 			page 35


 624              		.loc 14 102 30 view .LVU163
 625 00a4 504F     		ldr	r7, .L19+8
 626 00a6 90ED043A 		vldr.32	s6, [r0, #16]
 103:shaper.h      ****                 + weights[5] * c6[int_ind]
 627              		.loc 14 103 30 view .LVU164
 628 00aa 504E     		ldr	r6, .L19+12
 629 00ac D0ED053A 		vldr.32	s7, [r0, #20]
 104:shaper.h      ****                 + weights[6] * c7[int_ind]
 630              		.loc 14 104 30 view .LVU165
 631 00b0 4F4D     		ldr	r5, .L19+16
 632 00b2 90ED064A 		vldr.32	s8, [r0, #24]
 100:shaper.h      ****                 + weights[3] * c4[int_ind]
 633              		.loc 14 100 17 view .LVU166
 634 00b6 A2EE070A 		vfma.f32	s0, s4, s14
 101:shaper.h      ****                 + weights[4] * c5[int_ind]
 635              		.loc 14 101 17 view .LVU167
 636 00ba 93ED007A 		vldr.32	s14, [r3]
 102:shaper.h      ****                 + weights[5] * c6[int_ind]
 637              		.loc 14 102 30 view .LVU168
 638 00be 07EB8103 		add	r3, r7, r1, lsl #2
 105:shaper.h      ****                 + weights[7] * c8[int_ind]
 639              		.loc 14 105 30 view .LVU169
 640 00c2 4C4C     		ldr	r4, .L19+20
 641 00c4 D0ED074A 		vldr.32	s9, [r0, #28]
 106:shaper.h      ****                 + weights[8] * c9[int_ind]
 642              		.loc 14 106 30 view .LVU170
 643 00c8 90ED085A 		vldr.32	s10, [r0, #32]
 107:shaper.h      ****                 + weights[9] * c10[int_ind];
 644              		.loc 14 107 30 view .LVU171
 645 00cc D0ED095A 		vldr.32	s11, [r0, #36]
  97:shaper.h      ****         float a = weights[0] * c1[int_ind]
 646              		.loc 14 97 19 view .LVU172
 647 00d0 80ED0A6A 		vstr.32	s12, [r0, #40]
 648              	.LVL31:
 649              	.LBB529:
 650              	.LBI529:
 189:/Applications/ARM/arm-none-eabi/include/c++/10.3.1/array ****       { return _AT_Type::_S_ref(_M_elems, __n); }
 651              		.loc 16 189 7 is_stmt 1 view .LVU173
 652              	.LBB530:
 653              	.LBI530:
  55:/Applications/ARM/arm-none-eabi/include/c++/10.3.1/array ****       { return const_cast<_Tp&>(__t[__n]); }
 654              		.loc 16 55 7 view .LVU174
  55:/Applications/ARM/arm-none-eabi/include/c++/10.3.1/array ****       { return const_cast<_Tp&>(__t[__n]); }
 655              		.loc 16 55 7 is_stmt 0 view .LVU175
 656              	.LBE530:
 657              	.LBE529:
 658              	.LBB531:
 659              	.LBI531:
 189:/Applications/ARM/arm-none-eabi/include/c++/10.3.1/array ****       { return _AT_Type::_S_ref(_M_elems, __n); }
 660              		.loc 16 189 7 is_stmt 1 view .LVU176
 661              	.LBB532:
 662              	.LBI532:
  55:/Applications/ARM/arm-none-eabi/include/c++/10.3.1/array ****       { return const_cast<_Tp&>(__t[__n]); }
 663              		.loc 16 55 7 view .LVU177
  55:/Applications/ARM/arm-none-eabi/include/c++/10.3.1/array ****       { return const_cast<_Tp&>(__t[__n]); }
 664              		.loc 16 55 7 is_stmt 0 view .LVU178
 665              	.LBE532:
ARM GAS  /var/folders/z2/7_lhr9dn53s9tj4s0rwtyswm0000gn/T//ccJ9q3ms.s 			page 36


 666              	.LBE531:
 667              	.LBB533:
 668              	.LBI533:
 189:/Applications/ARM/arm-none-eabi/include/c++/10.3.1/array ****       { return _AT_Type::_S_ref(_M_elems, __n); }
 669              		.loc 16 189 7 is_stmt 1 view .LVU179
 670              	.LBB534:
 671              	.LBI534:
  55:/Applications/ARM/arm-none-eabi/include/c++/10.3.1/array ****       { return const_cast<_Tp&>(__t[__n]); }
 672              		.loc 16 55 7 view .LVU180
  55:/Applications/ARM/arm-none-eabi/include/c++/10.3.1/array ****       { return const_cast<_Tp&>(__t[__n]); }
 673              		.loc 16 55 7 is_stmt 0 view .LVU181
 674              	.LBE534:
 675              	.LBE533:
 676              	.LBB535:
 677              	.LBI535:
 189:/Applications/ARM/arm-none-eabi/include/c++/10.3.1/array ****       { return _AT_Type::_S_ref(_M_elems, __n); }
 678              		.loc 16 189 7 is_stmt 1 view .LVU182
 679              	.LBB536:
 680              	.LBI536:
  55:/Applications/ARM/arm-none-eabi/include/c++/10.3.1/array ****       { return const_cast<_Tp&>(__t[__n]); }
 681              		.loc 16 55 7 view .LVU183
  55:/Applications/ARM/arm-none-eabi/include/c++/10.3.1/array ****       { return const_cast<_Tp&>(__t[__n]); }
 682              		.loc 16 55 7 is_stmt 0 view .LVU184
 683              	.LBE536:
 684              	.LBE535:
 101:shaper.h      ****                 + weights[4] * c5[int_ind]
 685              		.loc 14 101 17 view .LVU185
 686 00d4 A2EE870A 		vfma.f32	s0, s5, s14
 687              	.LVL32:
 688              	.LBB537:
 689              	.LBI537:
 189:/Applications/ARM/arm-none-eabi/include/c++/10.3.1/array ****       { return _AT_Type::_S_ref(_M_elems, __n); }
 690              		.loc 16 189 7 is_stmt 1 view .LVU186
 691              	.LBB538:
 692              	.LBI538:
  55:/Applications/ARM/arm-none-eabi/include/c++/10.3.1/array ****       { return const_cast<_Tp&>(__t[__n]); }
 693              		.loc 16 55 7 view .LVU187
  55:/Applications/ARM/arm-none-eabi/include/c++/10.3.1/array ****       { return const_cast<_Tp&>(__t[__n]); }
 694              		.loc 16 55 7 is_stmt 0 view .LVU188
 695              	.LBE538:
 696              	.LBE537:
 102:shaper.h      ****                 + weights[5] * c6[int_ind]
 697              		.loc 14 102 17 view .LVU189
 698 00d8 93ED007A 		vldr.32	s14, [r3]
 103:shaper.h      ****                 + weights[6] * c7[int_ind]
 699              		.loc 14 103 30 view .LVU190
 700 00dc 06EB8103 		add	r3, r6, r1, lsl #2
 106:shaper.h      ****                 + weights[9] * c10[int_ind];
 701              		.loc 14 106 30 view .LVU191
 702 00e0 4548     		ldr	r0, .L19+24
 703              	.LVL33:
 704              		.loc 14 107 30 view .LVU192
 705 00e2 464A     		ldr	r2, .L19+28
 706              	.LVL34:
 102:shaper.h      ****                 + weights[5] * c6[int_ind]
 707              		.loc 14 102 17 view .LVU193
 708 00e4 A3EE070A 		vfma.f32	s0, s6, s14
ARM GAS  /var/folders/z2/7_lhr9dn53s9tj4s0rwtyswm0000gn/T//ccJ9q3ms.s 			page 37


 709              	.LVL35:
 710              	.LBB539:
 711              	.LBI539:
 189:/Applications/ARM/arm-none-eabi/include/c++/10.3.1/array ****       { return _AT_Type::_S_ref(_M_elems, __n); }
 712              		.loc 16 189 7 is_stmt 1 view .LVU194
 713              	.LBB540:
 714              	.LBI540:
  55:/Applications/ARM/arm-none-eabi/include/c++/10.3.1/array ****       { return const_cast<_Tp&>(__t[__n]); }
 715              		.loc 16 55 7 view .LVU195
  55:/Applications/ARM/arm-none-eabi/include/c++/10.3.1/array ****       { return const_cast<_Tp&>(__t[__n]); }
 716              		.loc 16 55 7 is_stmt 0 view .LVU196
 717              	.LBE540:
 718              	.LBE539:
 103:shaper.h      ****                 + weights[6] * c7[int_ind]
 719              		.loc 14 103 17 view .LVU197
 720 00e8 93ED007A 		vldr.32	s14, [r3]
 104:shaper.h      ****                 + weights[7] * c8[int_ind]
 721              		.loc 14 104 30 view .LVU198
 722 00ec 05EB8103 		add	r3, r5, r1, lsl #2
 103:shaper.h      ****                 + weights[6] * c7[int_ind]
 723              		.loc 14 103 17 view .LVU199
 724 00f0 A3EE870A 		vfma.f32	s0, s7, s14
 725              	.LVL36:
 726              	.LBB541:
 727              	.LBI541:
 189:/Applications/ARM/arm-none-eabi/include/c++/10.3.1/array ****       { return _AT_Type::_S_ref(_M_elems, __n); }
 728              		.loc 16 189 7 is_stmt 1 view .LVU200
 729              	.LBB542:
 730              	.LBI542:
  55:/Applications/ARM/arm-none-eabi/include/c++/10.3.1/array ****       { return const_cast<_Tp&>(__t[__n]); }
 731              		.loc 16 55 7 view .LVU201
  55:/Applications/ARM/arm-none-eabi/include/c++/10.3.1/array ****       { return const_cast<_Tp&>(__t[__n]); }
 732              		.loc 16 55 7 is_stmt 0 view .LVU202
 733              	.LBE542:
 734              	.LBE541:
 104:shaper.h      ****                 + weights[7] * c8[int_ind]
 735              		.loc 14 104 17 view .LVU203
 736 00f4 93ED007A 		vldr.32	s14, [r3]
 105:shaper.h      ****                 + weights[8] * c9[int_ind]
 737              		.loc 14 105 30 view .LVU204
 738 00f8 04EB8103 		add	r3, r4, r1, lsl #2
 104:shaper.h      ****                 + weights[7] * c8[int_ind]
 739              		.loc 14 104 17 view .LVU205
 740 00fc A4EE070A 		vfma.f32	s0, s8, s14
 741              	.LVL37:
 742              	.LBB543:
 743              	.LBI543:
 189:/Applications/ARM/arm-none-eabi/include/c++/10.3.1/array ****       { return _AT_Type::_S_ref(_M_elems, __n); }
 744              		.loc 16 189 7 is_stmt 1 view .LVU206
 745              	.LBB544:
 746              	.LBI544:
  55:/Applications/ARM/arm-none-eabi/include/c++/10.3.1/array ****       { return const_cast<_Tp&>(__t[__n]); }
 747              		.loc 16 55 7 view .LVU207
  55:/Applications/ARM/arm-none-eabi/include/c++/10.3.1/array ****       { return const_cast<_Tp&>(__t[__n]); }
 748              		.loc 16 55 7 is_stmt 0 view .LVU208
 749              	.LBE544:
 750              	.LBE543:
ARM GAS  /var/folders/z2/7_lhr9dn53s9tj4s0rwtyswm0000gn/T//ccJ9q3ms.s 			page 38


 105:shaper.h      ****                 + weights[8] * c9[int_ind]
 751              		.loc 14 105 17 view .LVU209
 752 0100 93ED007A 		vldr.32	s14, [r3]
 106:shaper.h      ****                 + weights[9] * c10[int_ind];
 753              		.loc 14 106 30 view .LVU210
 754 0104 00EB8103 		add	r3, r0, r1, lsl #2
 105:shaper.h      ****                 + weights[8] * c9[int_ind]
 755              		.loc 14 105 17 view .LVU211
 756 0108 A4EE870A 		vfma.f32	s0, s9, s14
 757              	.LVL38:
 758              	.LBB545:
 759              	.LBI545:
 189:/Applications/ARM/arm-none-eabi/include/c++/10.3.1/array ****       { return _AT_Type::_S_ref(_M_elems, __n); }
 760              		.loc 16 189 7 is_stmt 1 view .LVU212
 761              	.LBB546:
 762              	.LBI546:
  55:/Applications/ARM/arm-none-eabi/include/c++/10.3.1/array ****       { return const_cast<_Tp&>(__t[__n]); }
 763              		.loc 16 55 7 view .LVU213
  55:/Applications/ARM/arm-none-eabi/include/c++/10.3.1/array ****       { return const_cast<_Tp&>(__t[__n]); }
 764              		.loc 16 55 7 is_stmt 0 view .LVU214
 765              	.LBE546:
 766              	.LBE545:
 106:shaper.h      ****                 + weights[9] * c10[int_ind];
 767              		.loc 14 106 17 view .LVU215
 768 010c 93ED007A 		vldr.32	s14, [r3]
 769              		.loc 14 107 30 view .LVU216
 770 0110 02EB8103 		add	r3, r2, r1, lsl #2
 106:shaper.h      ****                 + weights[9] * c10[int_ind];
 771              		.loc 14 106 17 view .LVU217
 772 0114 A5EE070A 		vfma.f32	s0, s10, s14
 773              	.LVL39:
 774              	.LBB547:
 775              	.LBI547:
 189:/Applications/ARM/arm-none-eabi/include/c++/10.3.1/array ****       { return _AT_Type::_S_ref(_M_elems, __n); }
 776              		.loc 16 189 7 is_stmt 1 view .LVU218
 777              	.LBB548:
 778              	.LBI548:
  55:/Applications/ARM/arm-none-eabi/include/c++/10.3.1/array ****       { return const_cast<_Tp&>(__t[__n]); }
 779              		.loc 16 55 7 view .LVU219
  55:/Applications/ARM/arm-none-eabi/include/c++/10.3.1/array ****       { return const_cast<_Tp&>(__t[__n]); }
 780              		.loc 16 55 7 is_stmt 0 view .LVU220
 781              	.LBE548:
 782              	.LBE547:
  98:shaper.h      ****                 + weights[1] * c2[int_ind]
 783              		.loc 14 98 15 view .LVU221
 784 0118 93ED007A 		vldr.32	s14, [r3]
 108:shaper.h      ****         const uint16_t ind2 = std::min<uint16_t>(N,int_ind+1);
 785              		.loc 14 108 59 view .LVU222
 786 011c 4B1C     		adds	r3, r1, #1
 787 011e 9BB2     		uxth	r3, r3
 788              	.LBB549:
 789              	.LBB550:
 790              		.file 18 "/Applications/ARM/arm-none-eabi/include/c++/10.3.1/bits/stl_algobase.h"
   1:/Applications/ARM/arm-none-eabi/include/c++/10.3.1/bits/stl_algobase.h **** // Core algorithmic facilities -*- C++ -*-
   2:/Applications/ARM/arm-none-eabi/include/c++/10.3.1/bits/stl_algobase.h **** 
   3:/Applications/ARM/arm-none-eabi/include/c++/10.3.1/bits/stl_algobase.h **** // Copyright (C) 2001-2020 Free Software Foundation, Inc.
   4:/Applications/ARM/arm-none-eabi/include/c++/10.3.1/bits/stl_algobase.h **** //
ARM GAS  /var/folders/z2/7_lhr9dn53s9tj4s0rwtyswm0000gn/T//ccJ9q3ms.s 			page 39


   5:/Applications/ARM/arm-none-eabi/include/c++/10.3.1/bits/stl_algobase.h **** // This file is part of the GNU ISO C++ Library.  This library is free
   6:/Applications/ARM/arm-none-eabi/include/c++/10.3.1/bits/stl_algobase.h **** // software; you can redistribute it and/or modify it under the
   7:/Applications/ARM/arm-none-eabi/include/c++/10.3.1/bits/stl_algobase.h **** // terms of the GNU General Public License as published by the
   8:/Applications/ARM/arm-none-eabi/include/c++/10.3.1/bits/stl_algobase.h **** // Free Software Foundation; either version 3, or (at your option)
   9:/Applications/ARM/arm-none-eabi/include/c++/10.3.1/bits/stl_algobase.h **** // any later version.
  10:/Applications/ARM/arm-none-eabi/include/c++/10.3.1/bits/stl_algobase.h **** 
  11:/Applications/ARM/arm-none-eabi/include/c++/10.3.1/bits/stl_algobase.h **** // This library is distributed in the hope that it will be useful,
  12:/Applications/ARM/arm-none-eabi/include/c++/10.3.1/bits/stl_algobase.h **** // but WITHOUT ANY WARRANTY; without even the implied warranty of
  13:/Applications/ARM/arm-none-eabi/include/c++/10.3.1/bits/stl_algobase.h **** // MERCHANTABILITY or FITNESS FOR A PARTICULAR PURPOSE.  See the
  14:/Applications/ARM/arm-none-eabi/include/c++/10.3.1/bits/stl_algobase.h **** // GNU General Public License for more details.
  15:/Applications/ARM/arm-none-eabi/include/c++/10.3.1/bits/stl_algobase.h **** 
  16:/Applications/ARM/arm-none-eabi/include/c++/10.3.1/bits/stl_algobase.h **** // Under Section 7 of GPL version 3, you are granted additional
  17:/Applications/ARM/arm-none-eabi/include/c++/10.3.1/bits/stl_algobase.h **** // permissions described in the GCC Runtime Library Exception, version
  18:/Applications/ARM/arm-none-eabi/include/c++/10.3.1/bits/stl_algobase.h **** // 3.1, as published by the Free Software Foundation.
  19:/Applications/ARM/arm-none-eabi/include/c++/10.3.1/bits/stl_algobase.h **** 
  20:/Applications/ARM/arm-none-eabi/include/c++/10.3.1/bits/stl_algobase.h **** // You should have received a copy of the GNU General Public License and
  21:/Applications/ARM/arm-none-eabi/include/c++/10.3.1/bits/stl_algobase.h **** // a copy of the GCC Runtime Library Exception along with this program;
  22:/Applications/ARM/arm-none-eabi/include/c++/10.3.1/bits/stl_algobase.h **** // see the files COPYING3 and COPYING.RUNTIME respectively.  If not, see
  23:/Applications/ARM/arm-none-eabi/include/c++/10.3.1/bits/stl_algobase.h **** // <http://www.gnu.org/licenses/>.
  24:/Applications/ARM/arm-none-eabi/include/c++/10.3.1/bits/stl_algobase.h **** 
  25:/Applications/ARM/arm-none-eabi/include/c++/10.3.1/bits/stl_algobase.h **** /*
  26:/Applications/ARM/arm-none-eabi/include/c++/10.3.1/bits/stl_algobase.h ****  *
  27:/Applications/ARM/arm-none-eabi/include/c++/10.3.1/bits/stl_algobase.h ****  * Copyright (c) 1994
  28:/Applications/ARM/arm-none-eabi/include/c++/10.3.1/bits/stl_algobase.h ****  * Hewlett-Packard Company
  29:/Applications/ARM/arm-none-eabi/include/c++/10.3.1/bits/stl_algobase.h ****  *
  30:/Applications/ARM/arm-none-eabi/include/c++/10.3.1/bits/stl_algobase.h ****  * Permission to use, copy, modify, distribute and sell this software
  31:/Applications/ARM/arm-none-eabi/include/c++/10.3.1/bits/stl_algobase.h ****  * and its documentation for any purpose is hereby granted without fee,
  32:/Applications/ARM/arm-none-eabi/include/c++/10.3.1/bits/stl_algobase.h ****  * provided that the above copyright notice appear in all copies and
  33:/Applications/ARM/arm-none-eabi/include/c++/10.3.1/bits/stl_algobase.h ****  * that both that copyright notice and this permission notice appear
  34:/Applications/ARM/arm-none-eabi/include/c++/10.3.1/bits/stl_algobase.h ****  * in supporting documentation.  Hewlett-Packard Company makes no
  35:/Applications/ARM/arm-none-eabi/include/c++/10.3.1/bits/stl_algobase.h ****  * representations about the suitability of this software for any
  36:/Applications/ARM/arm-none-eabi/include/c++/10.3.1/bits/stl_algobase.h ****  * purpose.  It is provided "as is" without express or implied warranty.
  37:/Applications/ARM/arm-none-eabi/include/c++/10.3.1/bits/stl_algobase.h ****  *
  38:/Applications/ARM/arm-none-eabi/include/c++/10.3.1/bits/stl_algobase.h ****  *
  39:/Applications/ARM/arm-none-eabi/include/c++/10.3.1/bits/stl_algobase.h ****  * Copyright (c) 1996-1998
  40:/Applications/ARM/arm-none-eabi/include/c++/10.3.1/bits/stl_algobase.h ****  * Silicon Graphics Computer Systems, Inc.
  41:/Applications/ARM/arm-none-eabi/include/c++/10.3.1/bits/stl_algobase.h ****  *
  42:/Applications/ARM/arm-none-eabi/include/c++/10.3.1/bits/stl_algobase.h ****  * Permission to use, copy, modify, distribute and sell this software
  43:/Applications/ARM/arm-none-eabi/include/c++/10.3.1/bits/stl_algobase.h ****  * and its documentation for any purpose is hereby granted without fee,
  44:/Applications/ARM/arm-none-eabi/include/c++/10.3.1/bits/stl_algobase.h ****  * provided that the above copyright notice appear in all copies and
  45:/Applications/ARM/arm-none-eabi/include/c++/10.3.1/bits/stl_algobase.h ****  * that both that copyright notice and this permission notice appear
  46:/Applications/ARM/arm-none-eabi/include/c++/10.3.1/bits/stl_algobase.h ****  * in supporting documentation.  Silicon Graphics makes no
  47:/Applications/ARM/arm-none-eabi/include/c++/10.3.1/bits/stl_algobase.h ****  * representations about the suitability of this software for any
  48:/Applications/ARM/arm-none-eabi/include/c++/10.3.1/bits/stl_algobase.h ****  * purpose.  It is provided "as is" without express or implied warranty.
  49:/Applications/ARM/arm-none-eabi/include/c++/10.3.1/bits/stl_algobase.h ****  */
  50:/Applications/ARM/arm-none-eabi/include/c++/10.3.1/bits/stl_algobase.h **** 
  51:/Applications/ARM/arm-none-eabi/include/c++/10.3.1/bits/stl_algobase.h **** /** @file bits/stl_algobase.h
  52:/Applications/ARM/arm-none-eabi/include/c++/10.3.1/bits/stl_algobase.h ****  *  This is an internal header file, included by other library headers.
  53:/Applications/ARM/arm-none-eabi/include/c++/10.3.1/bits/stl_algobase.h ****  *  Do not attempt to use it directly. @headername{algorithm}
  54:/Applications/ARM/arm-none-eabi/include/c++/10.3.1/bits/stl_algobase.h ****  */
  55:/Applications/ARM/arm-none-eabi/include/c++/10.3.1/bits/stl_algobase.h **** 
  56:/Applications/ARM/arm-none-eabi/include/c++/10.3.1/bits/stl_algobase.h **** #ifndef _STL_ALGOBASE_H
  57:/Applications/ARM/arm-none-eabi/include/c++/10.3.1/bits/stl_algobase.h **** #define _STL_ALGOBASE_H 1
  58:/Applications/ARM/arm-none-eabi/include/c++/10.3.1/bits/stl_algobase.h **** 
  59:/Applications/ARM/arm-none-eabi/include/c++/10.3.1/bits/stl_algobase.h **** #include <bits/c++config.h>
  60:/Applications/ARM/arm-none-eabi/include/c++/10.3.1/bits/stl_algobase.h **** #include <bits/functexcept.h>
  61:/Applications/ARM/arm-none-eabi/include/c++/10.3.1/bits/stl_algobase.h **** #include <bits/cpp_type_traits.h>
ARM GAS  /var/folders/z2/7_lhr9dn53s9tj4s0rwtyswm0000gn/T//ccJ9q3ms.s 			page 40


  62:/Applications/ARM/arm-none-eabi/include/c++/10.3.1/bits/stl_algobase.h **** #include <ext/type_traits.h>
  63:/Applications/ARM/arm-none-eabi/include/c++/10.3.1/bits/stl_algobase.h **** #include <ext/numeric_traits.h>
  64:/Applications/ARM/arm-none-eabi/include/c++/10.3.1/bits/stl_algobase.h **** #include <bits/stl_pair.h>
  65:/Applications/ARM/arm-none-eabi/include/c++/10.3.1/bits/stl_algobase.h **** #include <bits/stl_iterator_base_types.h>
  66:/Applications/ARM/arm-none-eabi/include/c++/10.3.1/bits/stl_algobase.h **** #include <bits/stl_iterator_base_funcs.h>
  67:/Applications/ARM/arm-none-eabi/include/c++/10.3.1/bits/stl_algobase.h **** #include <bits/stl_iterator.h>
  68:/Applications/ARM/arm-none-eabi/include/c++/10.3.1/bits/stl_algobase.h **** #include <bits/concept_check.h>
  69:/Applications/ARM/arm-none-eabi/include/c++/10.3.1/bits/stl_algobase.h **** #include <debug/debug.h>
  70:/Applications/ARM/arm-none-eabi/include/c++/10.3.1/bits/stl_algobase.h **** #include <bits/move.h> // For std::swap
  71:/Applications/ARM/arm-none-eabi/include/c++/10.3.1/bits/stl_algobase.h **** #include <bits/predefined_ops.h>
  72:/Applications/ARM/arm-none-eabi/include/c++/10.3.1/bits/stl_algobase.h **** #if __cplusplus >= 201103L
  73:/Applications/ARM/arm-none-eabi/include/c++/10.3.1/bits/stl_algobase.h **** # include <type_traits>
  74:/Applications/ARM/arm-none-eabi/include/c++/10.3.1/bits/stl_algobase.h **** #endif
  75:/Applications/ARM/arm-none-eabi/include/c++/10.3.1/bits/stl_algobase.h **** #if __cplusplus > 201703L
  76:/Applications/ARM/arm-none-eabi/include/c++/10.3.1/bits/stl_algobase.h **** # include <compare>
  77:/Applications/ARM/arm-none-eabi/include/c++/10.3.1/bits/stl_algobase.h **** #endif
  78:/Applications/ARM/arm-none-eabi/include/c++/10.3.1/bits/stl_algobase.h **** 
  79:/Applications/ARM/arm-none-eabi/include/c++/10.3.1/bits/stl_algobase.h **** namespace std _GLIBCXX_VISIBILITY(default)
  80:/Applications/ARM/arm-none-eabi/include/c++/10.3.1/bits/stl_algobase.h **** {
  81:/Applications/ARM/arm-none-eabi/include/c++/10.3.1/bits/stl_algobase.h **** _GLIBCXX_BEGIN_NAMESPACE_VERSION
  82:/Applications/ARM/arm-none-eabi/include/c++/10.3.1/bits/stl_algobase.h **** 
  83:/Applications/ARM/arm-none-eabi/include/c++/10.3.1/bits/stl_algobase.h ****   /*
  84:/Applications/ARM/arm-none-eabi/include/c++/10.3.1/bits/stl_algobase.h ****    * A constexpr wrapper for __builtin_memcmp.
  85:/Applications/ARM/arm-none-eabi/include/c++/10.3.1/bits/stl_algobase.h ****    * @param __num The number of elements of type _Tp (not bytes).
  86:/Applications/ARM/arm-none-eabi/include/c++/10.3.1/bits/stl_algobase.h ****    */
  87:/Applications/ARM/arm-none-eabi/include/c++/10.3.1/bits/stl_algobase.h ****   template<typename _Tp, typename _Up>
  88:/Applications/ARM/arm-none-eabi/include/c++/10.3.1/bits/stl_algobase.h ****     _GLIBCXX14_CONSTEXPR
  89:/Applications/ARM/arm-none-eabi/include/c++/10.3.1/bits/stl_algobase.h ****     inline int
  90:/Applications/ARM/arm-none-eabi/include/c++/10.3.1/bits/stl_algobase.h ****     __memcmp(const _Tp* __first1, const _Up* __first2, size_t __num)
  91:/Applications/ARM/arm-none-eabi/include/c++/10.3.1/bits/stl_algobase.h ****     {
  92:/Applications/ARM/arm-none-eabi/include/c++/10.3.1/bits/stl_algobase.h **** #if __cplusplus >= 201103L
  93:/Applications/ARM/arm-none-eabi/include/c++/10.3.1/bits/stl_algobase.h ****       static_assert(sizeof(_Tp) == sizeof(_Up), "can be compared with memcmp");
  94:/Applications/ARM/arm-none-eabi/include/c++/10.3.1/bits/stl_algobase.h **** #endif
  95:/Applications/ARM/arm-none-eabi/include/c++/10.3.1/bits/stl_algobase.h **** #ifdef __cpp_lib_is_constant_evaluated
  96:/Applications/ARM/arm-none-eabi/include/c++/10.3.1/bits/stl_algobase.h ****       if (std::is_constant_evaluated())
  97:/Applications/ARM/arm-none-eabi/include/c++/10.3.1/bits/stl_algobase.h **** 	{
  98:/Applications/ARM/arm-none-eabi/include/c++/10.3.1/bits/stl_algobase.h **** 	  for(; __num > 0; ++__first1, ++__first2, --__num)
  99:/Applications/ARM/arm-none-eabi/include/c++/10.3.1/bits/stl_algobase.h **** 	    if (*__first1 != *__first2)
 100:/Applications/ARM/arm-none-eabi/include/c++/10.3.1/bits/stl_algobase.h **** 	      return *__first1 < *__first2 ? -1 : 1;
 101:/Applications/ARM/arm-none-eabi/include/c++/10.3.1/bits/stl_algobase.h **** 	  return 0;
 102:/Applications/ARM/arm-none-eabi/include/c++/10.3.1/bits/stl_algobase.h **** 	}
 103:/Applications/ARM/arm-none-eabi/include/c++/10.3.1/bits/stl_algobase.h ****       else
 104:/Applications/ARM/arm-none-eabi/include/c++/10.3.1/bits/stl_algobase.h **** #endif
 105:/Applications/ARM/arm-none-eabi/include/c++/10.3.1/bits/stl_algobase.h **** 	return __builtin_memcmp(__first1, __first2, sizeof(_Tp) * __num);
 106:/Applications/ARM/arm-none-eabi/include/c++/10.3.1/bits/stl_algobase.h ****     }
 107:/Applications/ARM/arm-none-eabi/include/c++/10.3.1/bits/stl_algobase.h **** 
 108:/Applications/ARM/arm-none-eabi/include/c++/10.3.1/bits/stl_algobase.h **** #if __cplusplus < 201103L
 109:/Applications/ARM/arm-none-eabi/include/c++/10.3.1/bits/stl_algobase.h ****   // See http://gcc.gnu.org/ml/libstdc++/2004-08/msg00167.html: in a
 110:/Applications/ARM/arm-none-eabi/include/c++/10.3.1/bits/stl_algobase.h ****   // nutshell, we are partially implementing the resolution of DR 187,
 111:/Applications/ARM/arm-none-eabi/include/c++/10.3.1/bits/stl_algobase.h ****   // when it's safe, i.e., the value_types are equal.
 112:/Applications/ARM/arm-none-eabi/include/c++/10.3.1/bits/stl_algobase.h ****   template<bool _BoolType>
 113:/Applications/ARM/arm-none-eabi/include/c++/10.3.1/bits/stl_algobase.h ****     struct __iter_swap
 114:/Applications/ARM/arm-none-eabi/include/c++/10.3.1/bits/stl_algobase.h ****     {
 115:/Applications/ARM/arm-none-eabi/include/c++/10.3.1/bits/stl_algobase.h ****       template<typename _ForwardIterator1, typename _ForwardIterator2>
 116:/Applications/ARM/arm-none-eabi/include/c++/10.3.1/bits/stl_algobase.h **** 	static void
 117:/Applications/ARM/arm-none-eabi/include/c++/10.3.1/bits/stl_algobase.h **** 	iter_swap(_ForwardIterator1 __a, _ForwardIterator2 __b)
 118:/Applications/ARM/arm-none-eabi/include/c++/10.3.1/bits/stl_algobase.h **** 	{
ARM GAS  /var/folders/z2/7_lhr9dn53s9tj4s0rwtyswm0000gn/T//ccJ9q3ms.s 			page 41


 119:/Applications/ARM/arm-none-eabi/include/c++/10.3.1/bits/stl_algobase.h **** 	  typedef typename iterator_traits<_ForwardIterator1>::value_type
 120:/Applications/ARM/arm-none-eabi/include/c++/10.3.1/bits/stl_algobase.h **** 	    _ValueType1;
 121:/Applications/ARM/arm-none-eabi/include/c++/10.3.1/bits/stl_algobase.h **** 	  _ValueType1 __tmp = *__a;
 122:/Applications/ARM/arm-none-eabi/include/c++/10.3.1/bits/stl_algobase.h **** 	  *__a = *__b;
 123:/Applications/ARM/arm-none-eabi/include/c++/10.3.1/bits/stl_algobase.h **** 	  *__b = __tmp;
 124:/Applications/ARM/arm-none-eabi/include/c++/10.3.1/bits/stl_algobase.h **** 	}
 125:/Applications/ARM/arm-none-eabi/include/c++/10.3.1/bits/stl_algobase.h ****     };
 126:/Applications/ARM/arm-none-eabi/include/c++/10.3.1/bits/stl_algobase.h **** 
 127:/Applications/ARM/arm-none-eabi/include/c++/10.3.1/bits/stl_algobase.h ****   template<>
 128:/Applications/ARM/arm-none-eabi/include/c++/10.3.1/bits/stl_algobase.h ****     struct __iter_swap<true>
 129:/Applications/ARM/arm-none-eabi/include/c++/10.3.1/bits/stl_algobase.h ****     {
 130:/Applications/ARM/arm-none-eabi/include/c++/10.3.1/bits/stl_algobase.h ****       template<typename _ForwardIterator1, typename _ForwardIterator2>
 131:/Applications/ARM/arm-none-eabi/include/c++/10.3.1/bits/stl_algobase.h **** 	static void
 132:/Applications/ARM/arm-none-eabi/include/c++/10.3.1/bits/stl_algobase.h **** 	iter_swap(_ForwardIterator1 __a, _ForwardIterator2 __b)
 133:/Applications/ARM/arm-none-eabi/include/c++/10.3.1/bits/stl_algobase.h **** 	{
 134:/Applications/ARM/arm-none-eabi/include/c++/10.3.1/bits/stl_algobase.h **** 	  swap(*__a, *__b);
 135:/Applications/ARM/arm-none-eabi/include/c++/10.3.1/bits/stl_algobase.h **** 	}
 136:/Applications/ARM/arm-none-eabi/include/c++/10.3.1/bits/stl_algobase.h ****     };
 137:/Applications/ARM/arm-none-eabi/include/c++/10.3.1/bits/stl_algobase.h **** #endif // C++03
 138:/Applications/ARM/arm-none-eabi/include/c++/10.3.1/bits/stl_algobase.h **** 
 139:/Applications/ARM/arm-none-eabi/include/c++/10.3.1/bits/stl_algobase.h ****   /**
 140:/Applications/ARM/arm-none-eabi/include/c++/10.3.1/bits/stl_algobase.h ****    *  @brief Swaps the contents of two iterators.
 141:/Applications/ARM/arm-none-eabi/include/c++/10.3.1/bits/stl_algobase.h ****    *  @ingroup mutating_algorithms
 142:/Applications/ARM/arm-none-eabi/include/c++/10.3.1/bits/stl_algobase.h ****    *  @param  __a  An iterator.
 143:/Applications/ARM/arm-none-eabi/include/c++/10.3.1/bits/stl_algobase.h ****    *  @param  __b  Another iterator.
 144:/Applications/ARM/arm-none-eabi/include/c++/10.3.1/bits/stl_algobase.h ****    *  @return   Nothing.
 145:/Applications/ARM/arm-none-eabi/include/c++/10.3.1/bits/stl_algobase.h ****    *
 146:/Applications/ARM/arm-none-eabi/include/c++/10.3.1/bits/stl_algobase.h ****    *  This function swaps the values pointed to by two iterators, not the
 147:/Applications/ARM/arm-none-eabi/include/c++/10.3.1/bits/stl_algobase.h ****    *  iterators themselves.
 148:/Applications/ARM/arm-none-eabi/include/c++/10.3.1/bits/stl_algobase.h ****   */
 149:/Applications/ARM/arm-none-eabi/include/c++/10.3.1/bits/stl_algobase.h ****   template<typename _ForwardIterator1, typename _ForwardIterator2>
 150:/Applications/ARM/arm-none-eabi/include/c++/10.3.1/bits/stl_algobase.h ****     _GLIBCXX20_CONSTEXPR
 151:/Applications/ARM/arm-none-eabi/include/c++/10.3.1/bits/stl_algobase.h ****     inline void
 152:/Applications/ARM/arm-none-eabi/include/c++/10.3.1/bits/stl_algobase.h ****     iter_swap(_ForwardIterator1 __a, _ForwardIterator2 __b)
 153:/Applications/ARM/arm-none-eabi/include/c++/10.3.1/bits/stl_algobase.h ****     {
 154:/Applications/ARM/arm-none-eabi/include/c++/10.3.1/bits/stl_algobase.h ****       // concept requirements
 155:/Applications/ARM/arm-none-eabi/include/c++/10.3.1/bits/stl_algobase.h ****       __glibcxx_function_requires(_Mutable_ForwardIteratorConcept<
 156:/Applications/ARM/arm-none-eabi/include/c++/10.3.1/bits/stl_algobase.h **** 				  _ForwardIterator1>)
 157:/Applications/ARM/arm-none-eabi/include/c++/10.3.1/bits/stl_algobase.h ****       __glibcxx_function_requires(_Mutable_ForwardIteratorConcept<
 158:/Applications/ARM/arm-none-eabi/include/c++/10.3.1/bits/stl_algobase.h **** 				  _ForwardIterator2>)
 159:/Applications/ARM/arm-none-eabi/include/c++/10.3.1/bits/stl_algobase.h **** 
 160:/Applications/ARM/arm-none-eabi/include/c++/10.3.1/bits/stl_algobase.h **** #if __cplusplus < 201103L
 161:/Applications/ARM/arm-none-eabi/include/c++/10.3.1/bits/stl_algobase.h ****       typedef typename iterator_traits<_ForwardIterator1>::value_type
 162:/Applications/ARM/arm-none-eabi/include/c++/10.3.1/bits/stl_algobase.h **** 	_ValueType1;
 163:/Applications/ARM/arm-none-eabi/include/c++/10.3.1/bits/stl_algobase.h ****       typedef typename iterator_traits<_ForwardIterator2>::value_type
 164:/Applications/ARM/arm-none-eabi/include/c++/10.3.1/bits/stl_algobase.h **** 	_ValueType2;
 165:/Applications/ARM/arm-none-eabi/include/c++/10.3.1/bits/stl_algobase.h **** 
 166:/Applications/ARM/arm-none-eabi/include/c++/10.3.1/bits/stl_algobase.h ****       __glibcxx_function_requires(_ConvertibleConcept<_ValueType1,
 167:/Applications/ARM/arm-none-eabi/include/c++/10.3.1/bits/stl_algobase.h **** 				  _ValueType2>)
 168:/Applications/ARM/arm-none-eabi/include/c++/10.3.1/bits/stl_algobase.h ****       __glibcxx_function_requires(_ConvertibleConcept<_ValueType2,
 169:/Applications/ARM/arm-none-eabi/include/c++/10.3.1/bits/stl_algobase.h **** 				  _ValueType1>)
 170:/Applications/ARM/arm-none-eabi/include/c++/10.3.1/bits/stl_algobase.h **** 
 171:/Applications/ARM/arm-none-eabi/include/c++/10.3.1/bits/stl_algobase.h ****       typedef typename iterator_traits<_ForwardIterator1>::reference
 172:/Applications/ARM/arm-none-eabi/include/c++/10.3.1/bits/stl_algobase.h **** 	_ReferenceType1;
 173:/Applications/ARM/arm-none-eabi/include/c++/10.3.1/bits/stl_algobase.h ****       typedef typename iterator_traits<_ForwardIterator2>::reference
 174:/Applications/ARM/arm-none-eabi/include/c++/10.3.1/bits/stl_algobase.h **** 	_ReferenceType2;
 175:/Applications/ARM/arm-none-eabi/include/c++/10.3.1/bits/stl_algobase.h ****       std::__iter_swap<__are_same<_ValueType1, _ValueType2>::__value
ARM GAS  /var/folders/z2/7_lhr9dn53s9tj4s0rwtyswm0000gn/T//ccJ9q3ms.s 			page 42


 176:/Applications/ARM/arm-none-eabi/include/c++/10.3.1/bits/stl_algobase.h **** 	&& __are_same<_ValueType1&, _ReferenceType1>::__value
 177:/Applications/ARM/arm-none-eabi/include/c++/10.3.1/bits/stl_algobase.h **** 	&& __are_same<_ValueType2&, _ReferenceType2>::__value>::
 178:/Applications/ARM/arm-none-eabi/include/c++/10.3.1/bits/stl_algobase.h **** 	iter_swap(__a, __b);
 179:/Applications/ARM/arm-none-eabi/include/c++/10.3.1/bits/stl_algobase.h **** #else
 180:/Applications/ARM/arm-none-eabi/include/c++/10.3.1/bits/stl_algobase.h ****       // _GLIBCXX_RESOLVE_LIB_DEFECTS
 181:/Applications/ARM/arm-none-eabi/include/c++/10.3.1/bits/stl_algobase.h ****       // 187. iter_swap underspecified
 182:/Applications/ARM/arm-none-eabi/include/c++/10.3.1/bits/stl_algobase.h ****       swap(*__a, *__b);
 183:/Applications/ARM/arm-none-eabi/include/c++/10.3.1/bits/stl_algobase.h **** #endif
 184:/Applications/ARM/arm-none-eabi/include/c++/10.3.1/bits/stl_algobase.h ****     }
 185:/Applications/ARM/arm-none-eabi/include/c++/10.3.1/bits/stl_algobase.h **** 
 186:/Applications/ARM/arm-none-eabi/include/c++/10.3.1/bits/stl_algobase.h ****   /**
 187:/Applications/ARM/arm-none-eabi/include/c++/10.3.1/bits/stl_algobase.h ****    *  @brief Swap the elements of two sequences.
 188:/Applications/ARM/arm-none-eabi/include/c++/10.3.1/bits/stl_algobase.h ****    *  @ingroup mutating_algorithms
 189:/Applications/ARM/arm-none-eabi/include/c++/10.3.1/bits/stl_algobase.h ****    *  @param  __first1  A forward iterator.
 190:/Applications/ARM/arm-none-eabi/include/c++/10.3.1/bits/stl_algobase.h ****    *  @param  __last1   A forward iterator.
 191:/Applications/ARM/arm-none-eabi/include/c++/10.3.1/bits/stl_algobase.h ****    *  @param  __first2  A forward iterator.
 192:/Applications/ARM/arm-none-eabi/include/c++/10.3.1/bits/stl_algobase.h ****    *  @return   An iterator equal to @p first2+(last1-first1).
 193:/Applications/ARM/arm-none-eabi/include/c++/10.3.1/bits/stl_algobase.h ****    *
 194:/Applications/ARM/arm-none-eabi/include/c++/10.3.1/bits/stl_algobase.h ****    *  Swaps each element in the range @p [first1,last1) with the
 195:/Applications/ARM/arm-none-eabi/include/c++/10.3.1/bits/stl_algobase.h ****    *  corresponding element in the range @p [first2,(last1-first1)).
 196:/Applications/ARM/arm-none-eabi/include/c++/10.3.1/bits/stl_algobase.h ****    *  The ranges must not overlap.
 197:/Applications/ARM/arm-none-eabi/include/c++/10.3.1/bits/stl_algobase.h ****   */
 198:/Applications/ARM/arm-none-eabi/include/c++/10.3.1/bits/stl_algobase.h ****   template<typename _ForwardIterator1, typename _ForwardIterator2>
 199:/Applications/ARM/arm-none-eabi/include/c++/10.3.1/bits/stl_algobase.h ****     _GLIBCXX20_CONSTEXPR
 200:/Applications/ARM/arm-none-eabi/include/c++/10.3.1/bits/stl_algobase.h ****     _ForwardIterator2
 201:/Applications/ARM/arm-none-eabi/include/c++/10.3.1/bits/stl_algobase.h ****     swap_ranges(_ForwardIterator1 __first1, _ForwardIterator1 __last1,
 202:/Applications/ARM/arm-none-eabi/include/c++/10.3.1/bits/stl_algobase.h **** 		_ForwardIterator2 __first2)
 203:/Applications/ARM/arm-none-eabi/include/c++/10.3.1/bits/stl_algobase.h ****     {
 204:/Applications/ARM/arm-none-eabi/include/c++/10.3.1/bits/stl_algobase.h ****       // concept requirements
 205:/Applications/ARM/arm-none-eabi/include/c++/10.3.1/bits/stl_algobase.h ****       __glibcxx_function_requires(_Mutable_ForwardIteratorConcept<
 206:/Applications/ARM/arm-none-eabi/include/c++/10.3.1/bits/stl_algobase.h **** 				  _ForwardIterator1>)
 207:/Applications/ARM/arm-none-eabi/include/c++/10.3.1/bits/stl_algobase.h ****       __glibcxx_function_requires(_Mutable_ForwardIteratorConcept<
 208:/Applications/ARM/arm-none-eabi/include/c++/10.3.1/bits/stl_algobase.h **** 				  _ForwardIterator2>)
 209:/Applications/ARM/arm-none-eabi/include/c++/10.3.1/bits/stl_algobase.h ****       __glibcxx_requires_valid_range(__first1, __last1);
 210:/Applications/ARM/arm-none-eabi/include/c++/10.3.1/bits/stl_algobase.h **** 
 211:/Applications/ARM/arm-none-eabi/include/c++/10.3.1/bits/stl_algobase.h ****       for (; __first1 != __last1; ++__first1, (void)++__first2)
 212:/Applications/ARM/arm-none-eabi/include/c++/10.3.1/bits/stl_algobase.h **** 	std::iter_swap(__first1, __first2);
 213:/Applications/ARM/arm-none-eabi/include/c++/10.3.1/bits/stl_algobase.h ****       return __first2;
 214:/Applications/ARM/arm-none-eabi/include/c++/10.3.1/bits/stl_algobase.h ****     }
 215:/Applications/ARM/arm-none-eabi/include/c++/10.3.1/bits/stl_algobase.h **** 
 216:/Applications/ARM/arm-none-eabi/include/c++/10.3.1/bits/stl_algobase.h ****   /**
 217:/Applications/ARM/arm-none-eabi/include/c++/10.3.1/bits/stl_algobase.h ****    *  @brief This does what you think it does.
 218:/Applications/ARM/arm-none-eabi/include/c++/10.3.1/bits/stl_algobase.h ****    *  @ingroup sorting_algorithms
 219:/Applications/ARM/arm-none-eabi/include/c++/10.3.1/bits/stl_algobase.h ****    *  @param  __a  A thing of arbitrary type.
 220:/Applications/ARM/arm-none-eabi/include/c++/10.3.1/bits/stl_algobase.h ****    *  @param  __b  Another thing of arbitrary type.
 221:/Applications/ARM/arm-none-eabi/include/c++/10.3.1/bits/stl_algobase.h ****    *  @return   The lesser of the parameters.
 222:/Applications/ARM/arm-none-eabi/include/c++/10.3.1/bits/stl_algobase.h ****    *
 223:/Applications/ARM/arm-none-eabi/include/c++/10.3.1/bits/stl_algobase.h ****    *  This is the simple classic generic implementation.  It will work on
 224:/Applications/ARM/arm-none-eabi/include/c++/10.3.1/bits/stl_algobase.h ****    *  temporary expressions, since they are only evaluated once, unlike a
 225:/Applications/ARM/arm-none-eabi/include/c++/10.3.1/bits/stl_algobase.h ****    *  preprocessor macro.
 226:/Applications/ARM/arm-none-eabi/include/c++/10.3.1/bits/stl_algobase.h ****   */
 227:/Applications/ARM/arm-none-eabi/include/c++/10.3.1/bits/stl_algobase.h ****   template<typename _Tp>
 228:/Applications/ARM/arm-none-eabi/include/c++/10.3.1/bits/stl_algobase.h ****     _GLIBCXX14_CONSTEXPR
 229:/Applications/ARM/arm-none-eabi/include/c++/10.3.1/bits/stl_algobase.h ****     inline const _Tp&
 230:/Applications/ARM/arm-none-eabi/include/c++/10.3.1/bits/stl_algobase.h ****     min(const _Tp& __a, const _Tp& __b)
 231:/Applications/ARM/arm-none-eabi/include/c++/10.3.1/bits/stl_algobase.h ****     {
 232:/Applications/ARM/arm-none-eabi/include/c++/10.3.1/bits/stl_algobase.h ****       // concept requirements
ARM GAS  /var/folders/z2/7_lhr9dn53s9tj4s0rwtyswm0000gn/T//ccJ9q3ms.s 			page 43


 233:/Applications/ARM/arm-none-eabi/include/c++/10.3.1/bits/stl_algobase.h ****       __glibcxx_function_requires(_LessThanComparableConcept<_Tp>)
 234:/Applications/ARM/arm-none-eabi/include/c++/10.3.1/bits/stl_algobase.h ****       //return __b < __a ? __b : __a;
 235:/Applications/ARM/arm-none-eabi/include/c++/10.3.1/bits/stl_algobase.h ****       if (__b < __a)
 791              		.loc 18 235 7 view .LVU223
 792 0120 B3F5007F 		cmp	r3, #512
 793              	.LBE550:
 794              	.LBE549:
  98:shaper.h      ****                 + weights[1] * c2[int_ind]
 795              		.loc 14 98 15 view .LVU224
 796 0124 A5EE870A 		vfma.f32	s0, s11, s14
 797              	.LVL40:
 798              	.LBB552:
 799              	.LBI549:
 230:/Applications/ARM/arm-none-eabi/include/c++/10.3.1/bits/stl_algobase.h ****     {
 800              		.loc 18 230 5 is_stmt 1 view .LVU225
 801              	.LBB551:
 802              		.loc 18 235 7 is_stmt 0 view .LVU226
 803 0128 31D3     		bcc	.L18
 804 012a 9FED2E7A 		vldr.32	s14, .L19+4
 805 012e B0EE471A 		vmov.f32	s2, s14
 806 0132 F0EE470A 		vmov.f32	s1, s14
 807 0136 B0EE478A 		vmov.f32	s16, s14
 808 013a F0EE478A 		vmov.f32	s17, s14
 809 013e B0EE479A 		vmov.f32	s18, s14
 810 0142 F0EE479A 		vmov.f32	s19, s14
 811 0146 B0EE47AA 		vmov.f32	s20, s14
 812 014a B0EE47BA 		vmov.f32	s22, s14
 813 014e F0EE47AA 		vmov.f32	s21, s14
 814              	.L14:
 815              	.LVL41:
 816              		.loc 18 235 7 view .LVU227
 817              	.LBE551:
 818              	.LBE552:
 109:shaper.h      ****         float b = weights[0] * c1[ind2]
 110:shaper.h      ****                 + weights[1] * c2[ind2]
 819              		.loc 14 110 30 view .LVU228
 820 0152 67EE8B7A 		vmul.f32	s15, s15, s22
 821              		.loc 14 110 17 view .LVU229
 822 0156 E1EEAA7A 		vfma.f32	s15, s3, s21
 111:shaper.h      ****                 + weights[2] * c3[ind2]
 823              		.loc 14 111 17 view .LVU230
 824 015a E2EE0A7A 		vfma.f32	s15, s4, s20
 112:shaper.h      ****                 + weights[3] * c4[ind2]
 825              		.loc 14 112 17 view .LVU231
 826 015e E2EEA97A 		vfma.f32	s15, s5, s19
 113:shaper.h      ****                 + weights[4] * c5[ind2]
 827              		.loc 14 113 17 view .LVU232
 828 0162 E3EE097A 		vfma.f32	s15, s6, s18
 114:shaper.h      ****                 + weights[5] * c6[ind2]
 829              		.loc 14 114 17 view .LVU233
 830 0166 E3EEA87A 		vfma.f32	s15, s7, s17
 115:shaper.h      ****                 + weights[6] * c7[ind2]
 831              		.loc 14 115 17 view .LVU234
 832 016a E4EE087A 		vfma.f32	s15, s8, s16
 116:shaper.h      ****                 + weights[7] * c8[ind2]
 117:shaper.h      ****                 + weights[8] * c9[ind2]
 118:shaper.h      ****                 + weights[9] * c10[ind2];
ARM GAS  /var/folders/z2/7_lhr9dn53s9tj4s0rwtyswm0000gn/T//ccJ9q3ms.s 			page 44


 119:shaper.h      ****         float r = a + frac*(a-b);
 120:shaper.h      ****         return r*m_inv_sum;  
 121:shaper.h      ****     }
 833              		.loc 14 121 5 view .LVU235
 834 016e BDEC088B 		vldm	sp!, {d8-d11}
 835              		.cfi_remember_state
 836              		.cfi_restore 86
 837              		.cfi_restore 87
 838              		.cfi_restore 84
 839              		.cfi_restore 85
 840              		.cfi_restore 82
 841              		.cfi_restore 83
 842              		.cfi_restore 80
 843              		.cfi_restore 81
 844              		.cfi_def_cfa_offset 28
 116:shaper.h      ****                 + weights[7] * c8[ind2]
 845              		.loc 14 116 17 view .LVU236
 846 0172 E4EEA07A 		vfma.f32	s15, s9, s1
 117:shaper.h      ****                 + weights[9] * c10[ind2];
 847              		.loc 14 117 17 view .LVU237
 848 0176 E5EE017A 		vfma.f32	s15, s10, s2
 109:shaper.h      ****                 + weights[1] * c2[ind2]
 849              		.loc 14 109 15 view .LVU238
 850 017a E5EE877A 		vfma.f32	s15, s11, s14
 851              	.LVL42:
 119:shaper.h      ****         return r*m_inv_sum;  
 852              		.loc 14 119 30 view .LVU239
 853 017e 70EE677A 		vsub.f32	s15, s0, s15
 854              	.LVL43:
 119:shaper.h      ****         return r*m_inv_sum;  
 855              		.loc 14 119 15 view .LVU240
 856 0182 A7EEA60A 		vfma.f32	s0, s15, s13
 857              	.LVL44:
 858              		.loc 14 121 5 view .LVU241
 859 0186 26EE000A 		vmul.f32	s0, s12, s0
 860              	.LVL45:
 861              		.loc 14 121 5 view .LVU242
 862 018a BDE8F083 		pop	{r4, r5, r6, r7, r8, r9, pc}
 863              	.LVL46:
 864              	.L18:
 865              		.cfi_restore_state
 109:shaper.h      ****                 + weights[1] * c2[ind2]
 866              		.loc 14 109 30 view .LVU243
 867 018e 09EB8309 		add	r9, r9, r3, lsl #2
 110:shaper.h      ****                 + weights[2] * c3[ind2]
 868              		.loc 14 110 30 view .LVU244
 869 0192 08EB8308 		add	r8, r8, r3, lsl #2
 111:shaper.h      ****                 + weights[3] * c4[ind2]
 870              		.loc 14 111 30 view .LVU245
 871 0196 0EEB830E 		add	lr, lr, r3, lsl #2
 109:shaper.h      ****                 + weights[1] * c2[ind2]
 872              		.loc 14 109 30 view .LVU246
 873 019a D9ED00AA 		vldr.32	s21, [r9]
 112:shaper.h      ****                 + weights[4] * c5[ind2]
 874              		.loc 14 112 30 view .LVU247
 875 019e 0CEB830C 		add	ip, ip, r3, lsl #2
 110:shaper.h      ****                 + weights[2] * c3[ind2]
ARM GAS  /var/folders/z2/7_lhr9dn53s9tj4s0rwtyswm0000gn/T//ccJ9q3ms.s 			page 45


 876              		.loc 14 110 30 view .LVU248
 877 01a2 98ED00BA 		vldr.32	s22, [r8]
 113:shaper.h      ****                 + weights[5] * c6[ind2]
 878              		.loc 14 113 30 view .LVU249
 879 01a6 07EB8307 		add	r7, r7, r3, lsl #2
 111:shaper.h      ****                 + weights[3] * c4[ind2]
 880              		.loc 14 111 30 view .LVU250
 881 01aa 9EED00AA 		vldr.32	s20, [lr]
 114:shaper.h      ****                 + weights[6] * c7[ind2]
 882              		.loc 14 114 30 view .LVU251
 883 01ae 06EB8306 		add	r6, r6, r3, lsl #2
 112:shaper.h      ****                 + weights[4] * c5[ind2]
 884              		.loc 14 112 30 view .LVU252
 885 01b2 DCED009A 		vldr.32	s19, [ip]
 115:shaper.h      ****                 + weights[7] * c8[ind2]
 886              		.loc 14 115 30 view .LVU253
 887 01b6 05EB8305 		add	r5, r5, r3, lsl #2
 113:shaper.h      ****                 + weights[5] * c6[ind2]
 888              		.loc 14 113 30 view .LVU254
 889 01ba 97ED009A 		vldr.32	s18, [r7]
 116:shaper.h      ****                 + weights[8] * c9[ind2]
 890              		.loc 14 116 30 view .LVU255
 891 01be 04EB8304 		add	r4, r4, r3, lsl #2
 114:shaper.h      ****                 + weights[6] * c7[ind2]
 892              		.loc 14 114 30 view .LVU256
 893 01c2 D6ED008A 		vldr.32	s17, [r6]
 117:shaper.h      ****                 + weights[9] * c10[ind2];
 894              		.loc 14 117 30 view .LVU257
 895 01c6 00EB8300 		add	r0, r0, r3, lsl #2
 115:shaper.h      ****                 + weights[7] * c8[ind2]
 896              		.loc 14 115 30 view .LVU258
 897 01ca 95ED008A 		vldr.32	s16, [r5]
 118:shaper.h      ****         float r = a + frac*(a-b);
 898              		.loc 14 118 30 view .LVU259
 899 01ce 02EB8303 		add	r3, r2, r3, lsl #2
 116:shaper.h      ****                 + weights[8] * c9[ind2]
 900              		.loc 14 116 30 view .LVU260
 901 01d2 D4ED000A 		vldr.32	s1, [r4]
 117:shaper.h      ****                 + weights[9] * c10[ind2];
 902              		.loc 14 117 30 view .LVU261
 903 01d6 90ED001A 		vldr.32	s2, [r0]
 118:shaper.h      ****         float r = a + frac*(a-b);
 904              		.loc 14 118 30 view .LVU262
 905 01da 93ED007A 		vldr.32	s14, [r3]
 906 01de B8E7     		b	.L14
 907              	.L20:
 908              		.align	2
 909              	.L19:
 910 01e0 00000044 		.word	1140850688
 911 01e4 00000000 		.word	0
 912 01e8 00000000 		.word	.LANCHOR12
 913 01ec 00000000 		.word	.LANCHOR13
 914 01f0 00000000 		.word	.LANCHOR14
 915 01f4 00000000 		.word	.LANCHOR15
 916 01f8 00000000 		.word	.LANCHOR16
 917 01fc 00000000 		.word	.LANCHOR17
 918 0200 00000000 		.word	.LANCHOR8
ARM GAS  /var/folders/z2/7_lhr9dn53s9tj4s0rwtyswm0000gn/T//ccJ9q3ms.s 			page 46


 919 0204 00000000 		.word	.LANCHOR9
 920 0208 00000000 		.word	.LANCHOR10
 921 020c 00000000 		.word	.LANCHOR11
 922              		.cfi_endproc
 923              	.LFE5093:
 925              		.section	.text._Z13AudioCallbackPKPKfPPfj,"ax",%progbits
 926              		.align	1
 927              		.p2align 2,,3
 928              		.global	_Z13AudioCallbackPKPKfPPfj
 929              		.syntax unified
 930              		.thumb
 931              		.thumb_func
 933              	_Z13AudioCallbackPKPKfPPfj:
 934              	.LVL47:
 935              	.LFB4781:
  36:chebyshev.cpp ****     UpdateControls();
 936              		.loc 13 36 1 is_stmt 1 view -0
 937              		.cfi_startproc
 938              		@ args = 0, pretend = 0, frame = 8
 939              		@ frame_needed = 0, uses_anonymous_args = 0
  37:chebyshev.cpp ****     for (size_t i = 0; i < size; i++)
 940              		.loc 13 37 5 view .LVU264
  36:chebyshev.cpp ****     UpdateControls();
 941              		.loc 13 36 1 is_stmt 0 view .LVU265
 942 0000 2DE9F04F 		push	{r4, r5, r6, r7, r8, r9, r10, fp, lr}
 943              		.cfi_def_cfa_offset 36
 944              		.cfi_offset 4, -36
 945              		.cfi_offset 5, -32
 946              		.cfi_offset 6, -28
 947              		.cfi_offset 7, -24
 948              		.cfi_offset 8, -20
 949              		.cfi_offset 9, -16
 950              		.cfi_offset 10, -12
 951              		.cfi_offset 11, -8
 952              		.cfi_offset 14, -4
 953 0004 1446     		mov	r4, r2
 954 0006 8A46     		mov	r10, r1
 955 0008 2DED028B 		vpush.64	{d8}
 956              		.cfi_def_cfa_offset 44
 957              		.cfi_offset 80, -44
 958              		.cfi_offset 81, -40
 959 000c 83B0     		sub	sp, sp, #12
 960              		.cfi_def_cfa_offset 56
  36:chebyshev.cpp ****     UpdateControls();
 961              		.loc 13 36 1 view .LVU266
 962 000e 0192     		str	r2, [sp, #4]
  37:chebyshev.cpp ****     for (size_t i = 0; i < size; i++)
 963              		.loc 13 37 19 view .LVU267
 964 0010 FFF7FEFF 		bl	_Z14UpdateControlsv
 965              	.LVL48:
  38:chebyshev.cpp ****     {
 966              		.loc 13 38 5 is_stmt 1 view .LVU268
 967              	.LBB553:
  38:chebyshev.cpp ****     {
 968              		.loc 13 38 26 view .LVU269
 969 0014 002C     		cmp	r4, #0
 970 0016 00F09580 		beq	.L21
ARM GAS  /var/folders/z2/7_lhr9dn53s9tj4s0rwtyswm0000gn/T//ccJ9q3ms.s 			page 47


  38:chebyshev.cpp ****     {
 971              		.loc 13 38 17 is_stmt 0 view .LVU270
 972 001a 0027     		movs	r7, #0
 973 001c 5346     		mov	r3, r10
 974 001e DFF85091 		ldr	r9, .L33+32
 975 0022 BA46     		mov	r10, r7
 976              	.LVL49:
  38:chebyshev.cpp ****     {
 977              		.loc 13 38 17 view .LVU271
 978 0024 4A4E     		ldr	r6, .L33
 979 0026 4B4C     		ldr	r4, .L33+4
 980              	.LVL50:
  38:chebyshev.cpp ****     {
 981              		.loc 13 38 17 view .LVU272
 982 0028 1F46     		mov	r7, r3
 983 002a DFF84881 		ldr	r8, .L33+36
 984 002e 4A4D     		ldr	r5, .L33+8
 985 0030 DFF844B1 		ldr	fp, .L33+40
 986              	.LVL51:
 987              	.L25:
 988              	.LBB554:
  40:chebyshev.cpp ****         out[1][i] = 0.f;
 989              		.loc 13 40 9 is_stmt 1 view .LVU273
  40:chebyshev.cpp ****         out[1][i] = 0.f;
 990              		.loc 13 40 19 is_stmt 0 view .LVU274
 991 0034 3968     		ldr	r1, [r7]
 992 0036 0020     		movs	r0, #0
 993 0038 4FEA8A03 		lsl	r3, r10, #2
 994 003c 01EB8A01 		add	r1, r1, r10, lsl #2
 995 0040 0093     		str	r3, [sp]
 996 0042 0860     		str	r0, [r1]	@ float
  41:chebyshev.cpp ****         out[2][i] = 0.f;
 997              		.loc 13 41 9 is_stmt 1 view .LVU275
  41:chebyshev.cpp ****         out[2][i] = 0.f;
 998              		.loc 13 41 19 is_stmt 0 view .LVU276
 999 0044 7968     		ldr	r1, [r7, #4]
 1000 0046 01EB8A01 		add	r1, r1, r10, lsl #2
 1001 004a 0860     		str	r0, [r1]	@ float
  42:chebyshev.cpp ****         out[3][i] = 0.f;
 1002              		.loc 13 42 9 is_stmt 1 view .LVU277
  42:chebyshev.cpp ****         out[3][i] = 0.f;
 1003              		.loc 13 42 19 is_stmt 0 view .LVU278
 1004 004c B968     		ldr	r1, [r7, #8]
 1005 004e 01EB8A01 		add	r1, r1, r10, lsl #2
 1006 0052 0860     		str	r0, [r1]	@ float
  43:chebyshev.cpp ****         float s = sine.Process();
 1007              		.loc 13 43 9 is_stmt 1 view .LVU279
  43:chebyshev.cpp ****         float s = sine.Process();
 1008              		.loc 13 43 19 is_stmt 0 view .LVU280
 1009 0054 F968     		ldr	r1, [r7, #12]
 1010 0056 01EB8A01 		add	r1, r1, r10, lsl #2
 1011 005a 0860     		str	r0, [r1]	@ float
  44:chebyshev.cpp ****         float y = shaper2.process(shaper.process(s))*0.5 + s*0.5;
 1012              		.loc 13 44 9 is_stmt 1 view .LVU281
  44:chebyshev.cpp ****         float y = shaper2.process(shaper.process(s))*0.5 + s*0.5;
 1013              		.loc 13 44 31 is_stmt 0 view .LVU282
 1014 005c 3F48     		ldr	r0, .L33+12
ARM GAS  /var/folders/z2/7_lhr9dn53s9tj4s0rwtyswm0000gn/T//ccJ9q3ms.s 			page 48


 1015 005e FFF7FEFF 		bl	_ZN7daisysp10Oscillator7ProcessEv
 1016              	.LVL52:
 1017 0062 B0EE408A 		vmov.f32	s16, s0
 1018              	.LVL53:
  45:chebyshev.cpp ****         out[0][i] = y;
 1019              		.loc 13 45 9 is_stmt 1 view .LVU283
  45:chebyshev.cpp ****         out[0][i] = y;
 1020              		.loc 13 45 34 is_stmt 0 view .LVU284
 1021 0066 3E48     		ldr	r0, .L33+16
 1022 0068 FFF7FEFF 		bl	_ZN7daisysp6ShaperILj512EE7processEf
 1023              	.LVL54:
  45:chebyshev.cpp ****         out[0][i] = y;
 1024              		.loc 13 45 34 view .LVU285
 1025 006c 3D48     		ldr	r0, .L33+20
 1026 006e FFF7FEFF 		bl	_ZN7daisysp6ShaperILj512EE7processEf
 1027              	.LVL55:
  45:chebyshev.cpp ****         out[0][i] = y;
 1028              		.loc 13 45 61 view .LVU286
 1029 0072 B6EE006B 		vmov.f64	d6, #5.0e-1
  45:chebyshev.cpp ****         out[0][i] = y;
 1030              		.loc 13 45 60 view .LVU287
 1031 0076 B7EEC87A 		vcvt.f64.f32	d7, s16
  46:chebyshev.cpp ****         out[1][i] = y; 
 1032              		.loc 13 46 17 view .LVU288
 1033 007a 3968     		ldr	r1, [r7]
  45:chebyshev.cpp ****         out[0][i] = y;
 1034              		.loc 13 45 34 view .LVU289
 1035 007c B7EEC00A 		vcvt.f64.f32	d0, s0
  46:chebyshev.cpp ****         out[1][i] = y; 
 1036              		.loc 13 46 17 view .LVU290
 1037 0080 009B     		ldr	r3, [sp]
  45:chebyshev.cpp ****         out[0][i] = y;
 1038              		.loc 13 45 61 view .LVU291
 1039 0082 27EE067B 		vmul.f64	d7, d7, d6
  46:chebyshev.cpp ****         out[1][i] = y; 
 1040              		.loc 13 46 17 view .LVU292
 1041 0086 1944     		add	r1, r1, r3
 1042 0088 1846     		mov	r0, r3
  47:chebyshev.cpp ****         out[0][i] *= z;
 1043              		.loc 13 47 17 view .LVU293
 1044 008a 7B68     		ldr	r3, [r7, #4]
 1045 008c 0344     		add	r3, r3, r0
 1046 008e 3448     		ldr	r0, .L33+16
  45:chebyshev.cpp ****         out[0][i] = y;
 1047              		.loc 13 45 58 view .LVU294
 1048 0090 A0EE067B 		vfma.f64	d7, d0, d6
  45:chebyshev.cpp ****         out[0][i] = y;
 1049              		.loc 13 45 62 view .LVU295
 1050 0094 B7EEC77B 		vcvt.f32.f64	s14, d7
 1051              	.LVL56:
  46:chebyshev.cpp ****         out[1][i] = y; 
 1052              		.loc 13 46 9 is_stmt 1 view .LVU296
  46:chebyshev.cpp ****         out[1][i] = y; 
 1053              		.loc 13 46 19 is_stmt 0 view .LVU297
 1054 0098 81ED007A 		vstr.32	s14, [r1]
  47:chebyshev.cpp ****         out[0][i] *= z;
 1055              		.loc 13 47 9 is_stmt 1 view .LVU298
ARM GAS  /var/folders/z2/7_lhr9dn53s9tj4s0rwtyswm0000gn/T//ccJ9q3ms.s 			page 49


  47:chebyshev.cpp ****         out[0][i] *= z;
 1056              		.loc 13 47 19 is_stmt 0 view .LVU299
 1057 009c 83ED007A 		vstr.32	s14, [r3]
  48:chebyshev.cpp ****         out[1][i] *= z;
 1058              		.loc 13 48 9 is_stmt 1 view .LVU300
  48:chebyshev.cpp ****         out[1][i] *= z;
 1059              		.loc 13 48 19 is_stmt 0 view .LVU301
 1060 00a0 D9ED007A 		vldr.32	s15, [r9]
 1061 00a4 27EE877A 		vmul.f32	s14, s15, s14
 1062              	.LVL57:
  48:chebyshev.cpp ****         out[1][i] *= z;
 1063              		.loc 13 48 19 view .LVU302
 1064 00a8 81ED007A 		vstr.32	s14, [r1]
 1065              	.LVL58:
  49:chebyshev.cpp ****         float * ws = shaper.getWeights();
 1066              		.loc 13 49 9 is_stmt 1 view .LVU303
  49:chebyshev.cpp ****         float * ws = shaper.getWeights();
 1067              		.loc 13 49 19 is_stmt 0 view .LVU304
 1068 00ac D3ED007A 		vldr.32	s15, [r3]
 1069 00b0 99ED007A 		vldr.32	s14, [r9]
 1070 00b4 67EE877A 		vmul.f32	s15, s15, s14
 1071 00b8 C3ED007A 		vstr.32	s15, [r3]
  50:chebyshev.cpp ****         for (uint_fast8_t i = 0; i < 10; ++i) {
 1072              		.loc 13 50 9 is_stmt 1 view .LVU305
 1073              	.LVL59:
  51:chebyshev.cpp ****              ws[i] = waver[(52*i + static_cast<int>(ph*512))%512]; 
 1074              		.loc 13 51 9 view .LVU306
 1075              	.LBB555:
  51:chebyshev.cpp ****              ws[i] = waver[(52*i + static_cast<int>(ph*512))%512]; 
 1076              		.loc 13 51 36 view .LVU307
  52:chebyshev.cpp ****         }
 1077              		.loc 13 52 55 is_stmt 0 view .LVU308
 1078 00bc 2A4B     		ldr	r3, .L33+24
 1079 00be D3ED007A 		vldr.32	s15, [r3]
  52:chebyshev.cpp ****         }
 1080              		.loc 13 52 36 view .LVU309
 1081 00c2 B0EE677A 		vmov.f32	s14, s15
 1082 00c6 BEEEEB7A 		vcvt.s32.f32	s14, s14, #9
 1083 00ca 17EE101A 		vmov	r1, s14	@ int
 1084              	.LVL60:
 1085              	.L23:
  52:chebyshev.cpp ****         }
 1086              		.loc 13 52 14 is_stmt 1 discriminator 2 view .LVU310
  52:chebyshev.cpp ****         }
 1087              		.loc 13 52 61 is_stmt 0 discriminator 2 view .LVU311
 1088 00ce C1F30803 		ubfx	r3, r1, #0, #9
  52:chebyshev.cpp ****         }
 1089              		.loc 13 52 65 discriminator 2 view .LVU312
 1090 00d2 3431     		adds	r1, r1, #52
 1091 00d4 04EB8303 		add	r3, r4, r3, lsl #2
  52:chebyshev.cpp ****         }
 1092              		.loc 13 52 20 discriminator 2 view .LVU313
 1093 00d8 1B68     		ldr	r3, [r3]	@ float
 1094 00da 40F8043B 		str	r3, [r0], #4	@ float
  51:chebyshev.cpp ****              ws[i] = waver[(52*i + static_cast<int>(ph*512))%512]; 
 1095              		.loc 13 51 9 is_stmt 1 discriminator 2 view .LVU314
  51:chebyshev.cpp ****              ws[i] = waver[(52*i + static_cast<int>(ph*512))%512]; 
ARM GAS  /var/folders/z2/7_lhr9dn53s9tj4s0rwtyswm0000gn/T//ccJ9q3ms.s 			page 50


 1096              		.loc 13 51 36 discriminator 2 view .LVU315
 1097 00de B042     		cmp	r0, r6
 1098 00e0 F5D1     		bne	.L23
 1099              	.LBE555:
 1100              	.LBB556:
  56:chebyshev.cpp ****        }
 1101              		.loc 13 56 56 is_stmt 0 view .LVU316
 1102 00e2 98ED007A 		vldr.32	s14, [r8]
 1103 00e6 1F48     		ldr	r0, .L33+20
  56:chebyshev.cpp ****        }
 1104              		.loc 13 56 36 view .LVU317
 1105 00e8 F0EE476A 		vmov.f32	s13, s14
 1106 00ec FEEEEB6A 		vcvt.s32.f32	s13, s13, #9
 1107 00f0 16EE901A 		vmov	r1, s13	@ int
 1108              	.LVL61:
 1109              	.L24:
  56:chebyshev.cpp ****        }
 1110              		.loc 13 56 14 is_stmt 1 discriminator 2 view .LVU318
  56:chebyshev.cpp ****        }
 1111              		.loc 13 56 62 is_stmt 0 discriminator 2 view .LVU319
 1112 00f4 C1F30803 		ubfx	r3, r1, #0, #9
  56:chebyshev.cpp ****        }
 1113              		.loc 13 56 66 discriminator 2 view .LVU320
 1114 00f8 3431     		adds	r1, r1, #52
 1115 00fa 04EB8303 		add	r3, r4, r3, lsl #2
  56:chebyshev.cpp ****        }
 1116              		.loc 13 56 20 discriminator 2 view .LVU321
 1117 00fe 1B68     		ldr	r3, [r3]	@ float
 1118 0100 40F8043B 		str	r3, [r0], #4	@ float
  55:chebyshev.cpp ****              ws[i] = waver[(52*i + static_cast<int>(ph2*512))%512]; 
 1119              		.loc 13 55 9 is_stmt 1 discriminator 2 view .LVU322
  55:chebyshev.cpp ****              ws[i] = waver[(52*i + static_cast<int>(ph2*512))%512]; 
 1120              		.loc 13 55 36 discriminator 2 view .LVU323
 1121 0104 8542     		cmp	r5, r0
 1122 0106 F5D1     		bne	.L24
 1123              	.LBE556:
  58:chebyshev.cpp ****         ph2 = fmod(ph2 + inc2, 1.f);
 1124              		.loc 13 58 9 discriminator 2 view .LVU324
 1125              	.LVL62:
 1126              	.LBB557:
 1127              	.LBI557:
 1128              		.file 19 "/Applications/ARM/arm-none-eabi/include/c++/10.3.1/cmath"
   1:/Applications/ARM/arm-none-eabi/include/c++/10.3.1/cmath **** // -*- C++ -*- C forwarding header.
   2:/Applications/ARM/arm-none-eabi/include/c++/10.3.1/cmath **** 
   3:/Applications/ARM/arm-none-eabi/include/c++/10.3.1/cmath **** // Copyright (C) 1997-2020 Free Software Foundation, Inc.
   4:/Applications/ARM/arm-none-eabi/include/c++/10.3.1/cmath **** //
   5:/Applications/ARM/arm-none-eabi/include/c++/10.3.1/cmath **** // This file is part of the GNU ISO C++ Library.  This library is free
   6:/Applications/ARM/arm-none-eabi/include/c++/10.3.1/cmath **** // software; you can redistribute it and/or modify it under the
   7:/Applications/ARM/arm-none-eabi/include/c++/10.3.1/cmath **** // terms of the GNU General Public License as published by the
   8:/Applications/ARM/arm-none-eabi/include/c++/10.3.1/cmath **** // Free Software Foundation; either version 3, or (at your option)
   9:/Applications/ARM/arm-none-eabi/include/c++/10.3.1/cmath **** // any later version.
  10:/Applications/ARM/arm-none-eabi/include/c++/10.3.1/cmath **** 
  11:/Applications/ARM/arm-none-eabi/include/c++/10.3.1/cmath **** // This library is distributed in the hope that it will be useful,
  12:/Applications/ARM/arm-none-eabi/include/c++/10.3.1/cmath **** // but WITHOUT ANY WARRANTY; without even the implied warranty of
  13:/Applications/ARM/arm-none-eabi/include/c++/10.3.1/cmath **** // MERCHANTABILITY or FITNESS FOR A PARTICULAR PURPOSE.  See the
  14:/Applications/ARM/arm-none-eabi/include/c++/10.3.1/cmath **** // GNU General Public License for more details.
  15:/Applications/ARM/arm-none-eabi/include/c++/10.3.1/cmath **** 
ARM GAS  /var/folders/z2/7_lhr9dn53s9tj4s0rwtyswm0000gn/T//ccJ9q3ms.s 			page 51


  16:/Applications/ARM/arm-none-eabi/include/c++/10.3.1/cmath **** // Under Section 7 of GPL version 3, you are granted additional
  17:/Applications/ARM/arm-none-eabi/include/c++/10.3.1/cmath **** // permissions described in the GCC Runtime Library Exception, version
  18:/Applications/ARM/arm-none-eabi/include/c++/10.3.1/cmath **** // 3.1, as published by the Free Software Foundation.
  19:/Applications/ARM/arm-none-eabi/include/c++/10.3.1/cmath **** 
  20:/Applications/ARM/arm-none-eabi/include/c++/10.3.1/cmath **** // You should have received a copy of the GNU General Public License and
  21:/Applications/ARM/arm-none-eabi/include/c++/10.3.1/cmath **** // a copy of the GCC Runtime Library Exception along with this program;
  22:/Applications/ARM/arm-none-eabi/include/c++/10.3.1/cmath **** // see the files COPYING3 and COPYING.RUNTIME respectively.  If not, see
  23:/Applications/ARM/arm-none-eabi/include/c++/10.3.1/cmath **** // <http://www.gnu.org/licenses/>.
  24:/Applications/ARM/arm-none-eabi/include/c++/10.3.1/cmath **** 
  25:/Applications/ARM/arm-none-eabi/include/c++/10.3.1/cmath **** /** @file include/cmath
  26:/Applications/ARM/arm-none-eabi/include/c++/10.3.1/cmath ****  *  This is a Standard C++ Library file.  You should @c \#include this file
  27:/Applications/ARM/arm-none-eabi/include/c++/10.3.1/cmath ****  *  in your programs, rather than any of the @a *.h implementation files.
  28:/Applications/ARM/arm-none-eabi/include/c++/10.3.1/cmath ****  *
  29:/Applications/ARM/arm-none-eabi/include/c++/10.3.1/cmath ****  *  This is the C++ version of the Standard C Library header @c math.h,
  30:/Applications/ARM/arm-none-eabi/include/c++/10.3.1/cmath ****  *  and its contents are (mostly) the same as that header, but are all
  31:/Applications/ARM/arm-none-eabi/include/c++/10.3.1/cmath ****  *  contained in the namespace @c std (except for names which are defined
  32:/Applications/ARM/arm-none-eabi/include/c++/10.3.1/cmath ****  *  as macros in C).
  33:/Applications/ARM/arm-none-eabi/include/c++/10.3.1/cmath ****  */
  34:/Applications/ARM/arm-none-eabi/include/c++/10.3.1/cmath **** 
  35:/Applications/ARM/arm-none-eabi/include/c++/10.3.1/cmath **** //
  36:/Applications/ARM/arm-none-eabi/include/c++/10.3.1/cmath **** // ISO C++ 14882: 26.5  C library
  37:/Applications/ARM/arm-none-eabi/include/c++/10.3.1/cmath **** //
  38:/Applications/ARM/arm-none-eabi/include/c++/10.3.1/cmath **** 
  39:/Applications/ARM/arm-none-eabi/include/c++/10.3.1/cmath **** #pragma GCC system_header
  40:/Applications/ARM/arm-none-eabi/include/c++/10.3.1/cmath **** 
  41:/Applications/ARM/arm-none-eabi/include/c++/10.3.1/cmath **** #include <bits/c++config.h>
  42:/Applications/ARM/arm-none-eabi/include/c++/10.3.1/cmath **** #include <bits/cpp_type_traits.h>
  43:/Applications/ARM/arm-none-eabi/include/c++/10.3.1/cmath **** #include <ext/type_traits.h>
  44:/Applications/ARM/arm-none-eabi/include/c++/10.3.1/cmath **** #define _GLIBCXX_INCLUDE_NEXT_C_HEADERS
  45:/Applications/ARM/arm-none-eabi/include/c++/10.3.1/cmath **** #include_next <math.h>
  46:/Applications/ARM/arm-none-eabi/include/c++/10.3.1/cmath **** #undef _GLIBCXX_INCLUDE_NEXT_C_HEADERS
  47:/Applications/ARM/arm-none-eabi/include/c++/10.3.1/cmath **** #include <bits/std_abs.h>
  48:/Applications/ARM/arm-none-eabi/include/c++/10.3.1/cmath **** 
  49:/Applications/ARM/arm-none-eabi/include/c++/10.3.1/cmath **** #ifndef _GLIBCXX_CMATH
  50:/Applications/ARM/arm-none-eabi/include/c++/10.3.1/cmath **** #define _GLIBCXX_CMATH 1
  51:/Applications/ARM/arm-none-eabi/include/c++/10.3.1/cmath **** 
  52:/Applications/ARM/arm-none-eabi/include/c++/10.3.1/cmath **** // Get rid of those macros defined in <math.h> in lieu of real functions.
  53:/Applications/ARM/arm-none-eabi/include/c++/10.3.1/cmath **** #undef div
  54:/Applications/ARM/arm-none-eabi/include/c++/10.3.1/cmath **** #undef acos
  55:/Applications/ARM/arm-none-eabi/include/c++/10.3.1/cmath **** #undef asin
  56:/Applications/ARM/arm-none-eabi/include/c++/10.3.1/cmath **** #undef atan
  57:/Applications/ARM/arm-none-eabi/include/c++/10.3.1/cmath **** #undef atan2
  58:/Applications/ARM/arm-none-eabi/include/c++/10.3.1/cmath **** #undef ceil
  59:/Applications/ARM/arm-none-eabi/include/c++/10.3.1/cmath **** #undef cos
  60:/Applications/ARM/arm-none-eabi/include/c++/10.3.1/cmath **** #undef cosh
  61:/Applications/ARM/arm-none-eabi/include/c++/10.3.1/cmath **** #undef exp
  62:/Applications/ARM/arm-none-eabi/include/c++/10.3.1/cmath **** #undef fabs
  63:/Applications/ARM/arm-none-eabi/include/c++/10.3.1/cmath **** #undef floor
  64:/Applications/ARM/arm-none-eabi/include/c++/10.3.1/cmath **** #undef fmod
  65:/Applications/ARM/arm-none-eabi/include/c++/10.3.1/cmath **** #undef frexp
  66:/Applications/ARM/arm-none-eabi/include/c++/10.3.1/cmath **** #undef ldexp
  67:/Applications/ARM/arm-none-eabi/include/c++/10.3.1/cmath **** #undef log
  68:/Applications/ARM/arm-none-eabi/include/c++/10.3.1/cmath **** #undef log10
  69:/Applications/ARM/arm-none-eabi/include/c++/10.3.1/cmath **** #undef modf
  70:/Applications/ARM/arm-none-eabi/include/c++/10.3.1/cmath **** #undef pow
  71:/Applications/ARM/arm-none-eabi/include/c++/10.3.1/cmath **** #undef sin
  72:/Applications/ARM/arm-none-eabi/include/c++/10.3.1/cmath **** #undef sinh
ARM GAS  /var/folders/z2/7_lhr9dn53s9tj4s0rwtyswm0000gn/T//ccJ9q3ms.s 			page 52


  73:/Applications/ARM/arm-none-eabi/include/c++/10.3.1/cmath **** #undef sqrt
  74:/Applications/ARM/arm-none-eabi/include/c++/10.3.1/cmath **** #undef tan
  75:/Applications/ARM/arm-none-eabi/include/c++/10.3.1/cmath **** #undef tanh
  76:/Applications/ARM/arm-none-eabi/include/c++/10.3.1/cmath **** 
  77:/Applications/ARM/arm-none-eabi/include/c++/10.3.1/cmath **** extern "C++"
  78:/Applications/ARM/arm-none-eabi/include/c++/10.3.1/cmath **** {
  79:/Applications/ARM/arm-none-eabi/include/c++/10.3.1/cmath **** namespace std _GLIBCXX_VISIBILITY(default)
  80:/Applications/ARM/arm-none-eabi/include/c++/10.3.1/cmath **** {
  81:/Applications/ARM/arm-none-eabi/include/c++/10.3.1/cmath **** _GLIBCXX_BEGIN_NAMESPACE_VERSION
  82:/Applications/ARM/arm-none-eabi/include/c++/10.3.1/cmath **** 
  83:/Applications/ARM/arm-none-eabi/include/c++/10.3.1/cmath ****   using ::acos;
  84:/Applications/ARM/arm-none-eabi/include/c++/10.3.1/cmath **** 
  85:/Applications/ARM/arm-none-eabi/include/c++/10.3.1/cmath **** #ifndef __CORRECT_ISO_CPP_MATH_H_PROTO
  86:/Applications/ARM/arm-none-eabi/include/c++/10.3.1/cmath ****   inline _GLIBCXX_CONSTEXPR float
  87:/Applications/ARM/arm-none-eabi/include/c++/10.3.1/cmath ****   acos(float __x)
  88:/Applications/ARM/arm-none-eabi/include/c++/10.3.1/cmath ****   { return __builtin_acosf(__x); }
  89:/Applications/ARM/arm-none-eabi/include/c++/10.3.1/cmath **** 
  90:/Applications/ARM/arm-none-eabi/include/c++/10.3.1/cmath ****   inline _GLIBCXX_CONSTEXPR long double
  91:/Applications/ARM/arm-none-eabi/include/c++/10.3.1/cmath ****   acos(long double __x)
  92:/Applications/ARM/arm-none-eabi/include/c++/10.3.1/cmath ****   { return __builtin_acosl(__x); }
  93:/Applications/ARM/arm-none-eabi/include/c++/10.3.1/cmath **** #endif
  94:/Applications/ARM/arm-none-eabi/include/c++/10.3.1/cmath **** 
  95:/Applications/ARM/arm-none-eabi/include/c++/10.3.1/cmath ****   template<typename _Tp>
  96:/Applications/ARM/arm-none-eabi/include/c++/10.3.1/cmath ****     inline _GLIBCXX_CONSTEXPR
  97:/Applications/ARM/arm-none-eabi/include/c++/10.3.1/cmath ****     typename __gnu_cxx::__enable_if<__is_integer<_Tp>::__value, 
  98:/Applications/ARM/arm-none-eabi/include/c++/10.3.1/cmath ****                                     double>::__type
  99:/Applications/ARM/arm-none-eabi/include/c++/10.3.1/cmath ****     acos(_Tp __x)
 100:/Applications/ARM/arm-none-eabi/include/c++/10.3.1/cmath ****     { return __builtin_acos(__x); }
 101:/Applications/ARM/arm-none-eabi/include/c++/10.3.1/cmath **** 
 102:/Applications/ARM/arm-none-eabi/include/c++/10.3.1/cmath ****   using ::asin;
 103:/Applications/ARM/arm-none-eabi/include/c++/10.3.1/cmath **** 
 104:/Applications/ARM/arm-none-eabi/include/c++/10.3.1/cmath **** #ifndef __CORRECT_ISO_CPP_MATH_H_PROTO
 105:/Applications/ARM/arm-none-eabi/include/c++/10.3.1/cmath ****   inline _GLIBCXX_CONSTEXPR float
 106:/Applications/ARM/arm-none-eabi/include/c++/10.3.1/cmath ****   asin(float __x)
 107:/Applications/ARM/arm-none-eabi/include/c++/10.3.1/cmath ****   { return __builtin_asinf(__x); }
 108:/Applications/ARM/arm-none-eabi/include/c++/10.3.1/cmath **** 
 109:/Applications/ARM/arm-none-eabi/include/c++/10.3.1/cmath ****   inline _GLIBCXX_CONSTEXPR long double
 110:/Applications/ARM/arm-none-eabi/include/c++/10.3.1/cmath ****   asin(long double __x)
 111:/Applications/ARM/arm-none-eabi/include/c++/10.3.1/cmath ****   { return __builtin_asinl(__x); }
 112:/Applications/ARM/arm-none-eabi/include/c++/10.3.1/cmath **** #endif
 113:/Applications/ARM/arm-none-eabi/include/c++/10.3.1/cmath **** 
 114:/Applications/ARM/arm-none-eabi/include/c++/10.3.1/cmath ****   template<typename _Tp>
 115:/Applications/ARM/arm-none-eabi/include/c++/10.3.1/cmath ****     inline _GLIBCXX_CONSTEXPR
 116:/Applications/ARM/arm-none-eabi/include/c++/10.3.1/cmath ****     typename __gnu_cxx::__enable_if<__is_integer<_Tp>::__value,
 117:/Applications/ARM/arm-none-eabi/include/c++/10.3.1/cmath ****                                     double>::__type
 118:/Applications/ARM/arm-none-eabi/include/c++/10.3.1/cmath ****     asin(_Tp __x)
 119:/Applications/ARM/arm-none-eabi/include/c++/10.3.1/cmath ****     { return __builtin_asin(__x); }
 120:/Applications/ARM/arm-none-eabi/include/c++/10.3.1/cmath **** 
 121:/Applications/ARM/arm-none-eabi/include/c++/10.3.1/cmath ****   using ::atan;
 122:/Applications/ARM/arm-none-eabi/include/c++/10.3.1/cmath **** 
 123:/Applications/ARM/arm-none-eabi/include/c++/10.3.1/cmath **** #ifndef __CORRECT_ISO_CPP_MATH_H_PROTO
 124:/Applications/ARM/arm-none-eabi/include/c++/10.3.1/cmath ****   inline _GLIBCXX_CONSTEXPR float
 125:/Applications/ARM/arm-none-eabi/include/c++/10.3.1/cmath ****   atan(float __x)
 126:/Applications/ARM/arm-none-eabi/include/c++/10.3.1/cmath ****   { return __builtin_atanf(__x); }
 127:/Applications/ARM/arm-none-eabi/include/c++/10.3.1/cmath **** 
 128:/Applications/ARM/arm-none-eabi/include/c++/10.3.1/cmath ****   inline _GLIBCXX_CONSTEXPR long double
 129:/Applications/ARM/arm-none-eabi/include/c++/10.3.1/cmath ****   atan(long double __x)
ARM GAS  /var/folders/z2/7_lhr9dn53s9tj4s0rwtyswm0000gn/T//ccJ9q3ms.s 			page 53


 130:/Applications/ARM/arm-none-eabi/include/c++/10.3.1/cmath ****   { return __builtin_atanl(__x); }
 131:/Applications/ARM/arm-none-eabi/include/c++/10.3.1/cmath **** #endif
 132:/Applications/ARM/arm-none-eabi/include/c++/10.3.1/cmath **** 
 133:/Applications/ARM/arm-none-eabi/include/c++/10.3.1/cmath ****   template<typename _Tp>
 134:/Applications/ARM/arm-none-eabi/include/c++/10.3.1/cmath ****     inline _GLIBCXX_CONSTEXPR
 135:/Applications/ARM/arm-none-eabi/include/c++/10.3.1/cmath ****     typename __gnu_cxx::__enable_if<__is_integer<_Tp>::__value,
 136:/Applications/ARM/arm-none-eabi/include/c++/10.3.1/cmath ****                                     double>::__type
 137:/Applications/ARM/arm-none-eabi/include/c++/10.3.1/cmath ****     atan(_Tp __x)
 138:/Applications/ARM/arm-none-eabi/include/c++/10.3.1/cmath ****     { return __builtin_atan(__x); }
 139:/Applications/ARM/arm-none-eabi/include/c++/10.3.1/cmath **** 
 140:/Applications/ARM/arm-none-eabi/include/c++/10.3.1/cmath ****   using ::atan2;
 141:/Applications/ARM/arm-none-eabi/include/c++/10.3.1/cmath **** 
 142:/Applications/ARM/arm-none-eabi/include/c++/10.3.1/cmath **** #ifndef __CORRECT_ISO_CPP_MATH_H_PROTO
 143:/Applications/ARM/arm-none-eabi/include/c++/10.3.1/cmath ****   inline _GLIBCXX_CONSTEXPR float
 144:/Applications/ARM/arm-none-eabi/include/c++/10.3.1/cmath ****   atan2(float __y, float __x)
 145:/Applications/ARM/arm-none-eabi/include/c++/10.3.1/cmath ****   { return __builtin_atan2f(__y, __x); }
 146:/Applications/ARM/arm-none-eabi/include/c++/10.3.1/cmath **** 
 147:/Applications/ARM/arm-none-eabi/include/c++/10.3.1/cmath ****   inline _GLIBCXX_CONSTEXPR long double
 148:/Applications/ARM/arm-none-eabi/include/c++/10.3.1/cmath ****   atan2(long double __y, long double __x)
 149:/Applications/ARM/arm-none-eabi/include/c++/10.3.1/cmath ****   { return __builtin_atan2l(__y, __x); }
 150:/Applications/ARM/arm-none-eabi/include/c++/10.3.1/cmath **** #endif
 151:/Applications/ARM/arm-none-eabi/include/c++/10.3.1/cmath **** 
 152:/Applications/ARM/arm-none-eabi/include/c++/10.3.1/cmath ****   template<typename _Tp, typename _Up>
 153:/Applications/ARM/arm-none-eabi/include/c++/10.3.1/cmath ****     inline _GLIBCXX_CONSTEXPR
 154:/Applications/ARM/arm-none-eabi/include/c++/10.3.1/cmath ****     typename __gnu_cxx::__promote_2<_Tp, _Up>::__type
 155:/Applications/ARM/arm-none-eabi/include/c++/10.3.1/cmath ****     atan2(_Tp __y, _Up __x)
 156:/Applications/ARM/arm-none-eabi/include/c++/10.3.1/cmath ****     {
 157:/Applications/ARM/arm-none-eabi/include/c++/10.3.1/cmath ****       typedef typename __gnu_cxx::__promote_2<_Tp, _Up>::__type __type;
 158:/Applications/ARM/arm-none-eabi/include/c++/10.3.1/cmath ****       return atan2(__type(__y), __type(__x));
 159:/Applications/ARM/arm-none-eabi/include/c++/10.3.1/cmath ****     }
 160:/Applications/ARM/arm-none-eabi/include/c++/10.3.1/cmath **** 
 161:/Applications/ARM/arm-none-eabi/include/c++/10.3.1/cmath ****   using ::ceil;
 162:/Applications/ARM/arm-none-eabi/include/c++/10.3.1/cmath **** 
 163:/Applications/ARM/arm-none-eabi/include/c++/10.3.1/cmath **** #ifndef __CORRECT_ISO_CPP_MATH_H_PROTO
 164:/Applications/ARM/arm-none-eabi/include/c++/10.3.1/cmath ****   inline _GLIBCXX_CONSTEXPR float
 165:/Applications/ARM/arm-none-eabi/include/c++/10.3.1/cmath ****   ceil(float __x)
 166:/Applications/ARM/arm-none-eabi/include/c++/10.3.1/cmath ****   { return __builtin_ceilf(__x); }
 167:/Applications/ARM/arm-none-eabi/include/c++/10.3.1/cmath **** 
 168:/Applications/ARM/arm-none-eabi/include/c++/10.3.1/cmath ****   inline _GLIBCXX_CONSTEXPR long double
 169:/Applications/ARM/arm-none-eabi/include/c++/10.3.1/cmath ****   ceil(long double __x)
 170:/Applications/ARM/arm-none-eabi/include/c++/10.3.1/cmath ****   { return __builtin_ceill(__x); }
 171:/Applications/ARM/arm-none-eabi/include/c++/10.3.1/cmath **** #endif
 172:/Applications/ARM/arm-none-eabi/include/c++/10.3.1/cmath **** 
 173:/Applications/ARM/arm-none-eabi/include/c++/10.3.1/cmath ****   template<typename _Tp>
 174:/Applications/ARM/arm-none-eabi/include/c++/10.3.1/cmath ****     inline _GLIBCXX_CONSTEXPR
 175:/Applications/ARM/arm-none-eabi/include/c++/10.3.1/cmath ****     typename __gnu_cxx::__enable_if<__is_integer<_Tp>::__value, 
 176:/Applications/ARM/arm-none-eabi/include/c++/10.3.1/cmath ****                                     double>::__type
 177:/Applications/ARM/arm-none-eabi/include/c++/10.3.1/cmath ****     ceil(_Tp __x)
 178:/Applications/ARM/arm-none-eabi/include/c++/10.3.1/cmath ****     { return __builtin_ceil(__x); }
 179:/Applications/ARM/arm-none-eabi/include/c++/10.3.1/cmath **** 
 180:/Applications/ARM/arm-none-eabi/include/c++/10.3.1/cmath ****   using ::cos;
 181:/Applications/ARM/arm-none-eabi/include/c++/10.3.1/cmath **** 
 182:/Applications/ARM/arm-none-eabi/include/c++/10.3.1/cmath **** #ifndef __CORRECT_ISO_CPP_MATH_H_PROTO
 183:/Applications/ARM/arm-none-eabi/include/c++/10.3.1/cmath ****   inline _GLIBCXX_CONSTEXPR float
 184:/Applications/ARM/arm-none-eabi/include/c++/10.3.1/cmath ****   cos(float __x)
 185:/Applications/ARM/arm-none-eabi/include/c++/10.3.1/cmath ****   { return __builtin_cosf(__x); }
 186:/Applications/ARM/arm-none-eabi/include/c++/10.3.1/cmath **** 
ARM GAS  /var/folders/z2/7_lhr9dn53s9tj4s0rwtyswm0000gn/T//ccJ9q3ms.s 			page 54


 187:/Applications/ARM/arm-none-eabi/include/c++/10.3.1/cmath ****   inline _GLIBCXX_CONSTEXPR long double
 188:/Applications/ARM/arm-none-eabi/include/c++/10.3.1/cmath ****   cos(long double __x)
 189:/Applications/ARM/arm-none-eabi/include/c++/10.3.1/cmath ****   { return __builtin_cosl(__x); }
 190:/Applications/ARM/arm-none-eabi/include/c++/10.3.1/cmath **** #endif
 191:/Applications/ARM/arm-none-eabi/include/c++/10.3.1/cmath **** 
 192:/Applications/ARM/arm-none-eabi/include/c++/10.3.1/cmath ****   template<typename _Tp>
 193:/Applications/ARM/arm-none-eabi/include/c++/10.3.1/cmath ****     inline _GLIBCXX_CONSTEXPR
 194:/Applications/ARM/arm-none-eabi/include/c++/10.3.1/cmath ****     typename __gnu_cxx::__enable_if<__is_integer<_Tp>::__value,
 195:/Applications/ARM/arm-none-eabi/include/c++/10.3.1/cmath ****                                     double>::__type
 196:/Applications/ARM/arm-none-eabi/include/c++/10.3.1/cmath ****     cos(_Tp __x)
 197:/Applications/ARM/arm-none-eabi/include/c++/10.3.1/cmath ****     { return __builtin_cos(__x); }
 198:/Applications/ARM/arm-none-eabi/include/c++/10.3.1/cmath **** 
 199:/Applications/ARM/arm-none-eabi/include/c++/10.3.1/cmath ****   using ::cosh;
 200:/Applications/ARM/arm-none-eabi/include/c++/10.3.1/cmath **** 
 201:/Applications/ARM/arm-none-eabi/include/c++/10.3.1/cmath **** #ifndef __CORRECT_ISO_CPP_MATH_H_PROTO
 202:/Applications/ARM/arm-none-eabi/include/c++/10.3.1/cmath ****   inline _GLIBCXX_CONSTEXPR float
 203:/Applications/ARM/arm-none-eabi/include/c++/10.3.1/cmath ****   cosh(float __x)
 204:/Applications/ARM/arm-none-eabi/include/c++/10.3.1/cmath ****   { return __builtin_coshf(__x); }
 205:/Applications/ARM/arm-none-eabi/include/c++/10.3.1/cmath **** 
 206:/Applications/ARM/arm-none-eabi/include/c++/10.3.1/cmath ****   inline _GLIBCXX_CONSTEXPR long double
 207:/Applications/ARM/arm-none-eabi/include/c++/10.3.1/cmath ****   cosh(long double __x)
 208:/Applications/ARM/arm-none-eabi/include/c++/10.3.1/cmath ****   { return __builtin_coshl(__x); }
 209:/Applications/ARM/arm-none-eabi/include/c++/10.3.1/cmath **** #endif
 210:/Applications/ARM/arm-none-eabi/include/c++/10.3.1/cmath **** 
 211:/Applications/ARM/arm-none-eabi/include/c++/10.3.1/cmath ****   template<typename _Tp>
 212:/Applications/ARM/arm-none-eabi/include/c++/10.3.1/cmath ****     inline _GLIBCXX_CONSTEXPR
 213:/Applications/ARM/arm-none-eabi/include/c++/10.3.1/cmath ****     typename __gnu_cxx::__enable_if<__is_integer<_Tp>::__value,
 214:/Applications/ARM/arm-none-eabi/include/c++/10.3.1/cmath ****                                     double>::__type
 215:/Applications/ARM/arm-none-eabi/include/c++/10.3.1/cmath ****     cosh(_Tp __x)
 216:/Applications/ARM/arm-none-eabi/include/c++/10.3.1/cmath ****     { return __builtin_cosh(__x); }
 217:/Applications/ARM/arm-none-eabi/include/c++/10.3.1/cmath **** 
 218:/Applications/ARM/arm-none-eabi/include/c++/10.3.1/cmath ****   using ::exp;
 219:/Applications/ARM/arm-none-eabi/include/c++/10.3.1/cmath **** 
 220:/Applications/ARM/arm-none-eabi/include/c++/10.3.1/cmath **** #ifndef __CORRECT_ISO_CPP_MATH_H_PROTO
 221:/Applications/ARM/arm-none-eabi/include/c++/10.3.1/cmath ****   inline _GLIBCXX_CONSTEXPR float
 222:/Applications/ARM/arm-none-eabi/include/c++/10.3.1/cmath ****   exp(float __x)
 223:/Applications/ARM/arm-none-eabi/include/c++/10.3.1/cmath ****   { return __builtin_expf(__x); }
 224:/Applications/ARM/arm-none-eabi/include/c++/10.3.1/cmath **** 
 225:/Applications/ARM/arm-none-eabi/include/c++/10.3.1/cmath ****   inline _GLIBCXX_CONSTEXPR long double
 226:/Applications/ARM/arm-none-eabi/include/c++/10.3.1/cmath ****   exp(long double __x)
 227:/Applications/ARM/arm-none-eabi/include/c++/10.3.1/cmath ****   { return __builtin_expl(__x); }
 228:/Applications/ARM/arm-none-eabi/include/c++/10.3.1/cmath **** #endif
 229:/Applications/ARM/arm-none-eabi/include/c++/10.3.1/cmath **** 
 230:/Applications/ARM/arm-none-eabi/include/c++/10.3.1/cmath ****   template<typename _Tp>
 231:/Applications/ARM/arm-none-eabi/include/c++/10.3.1/cmath ****     inline _GLIBCXX_CONSTEXPR
 232:/Applications/ARM/arm-none-eabi/include/c++/10.3.1/cmath ****     typename __gnu_cxx::__enable_if<__is_integer<_Tp>::__value,
 233:/Applications/ARM/arm-none-eabi/include/c++/10.3.1/cmath ****                                     double>::__type
 234:/Applications/ARM/arm-none-eabi/include/c++/10.3.1/cmath ****     exp(_Tp __x)
 235:/Applications/ARM/arm-none-eabi/include/c++/10.3.1/cmath ****     { return __builtin_exp(__x); }
 236:/Applications/ARM/arm-none-eabi/include/c++/10.3.1/cmath **** 
 237:/Applications/ARM/arm-none-eabi/include/c++/10.3.1/cmath ****   using ::fabs;
 238:/Applications/ARM/arm-none-eabi/include/c++/10.3.1/cmath **** 
 239:/Applications/ARM/arm-none-eabi/include/c++/10.3.1/cmath **** #ifndef __CORRECT_ISO_CPP_MATH_H_PROTO
 240:/Applications/ARM/arm-none-eabi/include/c++/10.3.1/cmath ****   inline _GLIBCXX_CONSTEXPR float
 241:/Applications/ARM/arm-none-eabi/include/c++/10.3.1/cmath ****   fabs(float __x)
 242:/Applications/ARM/arm-none-eabi/include/c++/10.3.1/cmath ****   { return __builtin_fabsf(__x); }
 243:/Applications/ARM/arm-none-eabi/include/c++/10.3.1/cmath **** 
ARM GAS  /var/folders/z2/7_lhr9dn53s9tj4s0rwtyswm0000gn/T//ccJ9q3ms.s 			page 55


 244:/Applications/ARM/arm-none-eabi/include/c++/10.3.1/cmath ****   inline _GLIBCXX_CONSTEXPR long double
 245:/Applications/ARM/arm-none-eabi/include/c++/10.3.1/cmath ****   fabs(long double __x)
 246:/Applications/ARM/arm-none-eabi/include/c++/10.3.1/cmath ****   { return __builtin_fabsl(__x); }
 247:/Applications/ARM/arm-none-eabi/include/c++/10.3.1/cmath **** #endif
 248:/Applications/ARM/arm-none-eabi/include/c++/10.3.1/cmath **** 
 249:/Applications/ARM/arm-none-eabi/include/c++/10.3.1/cmath ****   template<typename _Tp>
 250:/Applications/ARM/arm-none-eabi/include/c++/10.3.1/cmath ****     inline _GLIBCXX_CONSTEXPR
 251:/Applications/ARM/arm-none-eabi/include/c++/10.3.1/cmath ****     typename __gnu_cxx::__enable_if<__is_integer<_Tp>::__value,
 252:/Applications/ARM/arm-none-eabi/include/c++/10.3.1/cmath ****                                     double>::__type
 253:/Applications/ARM/arm-none-eabi/include/c++/10.3.1/cmath ****     fabs(_Tp __x)
 254:/Applications/ARM/arm-none-eabi/include/c++/10.3.1/cmath ****     { return __builtin_fabs(__x); }
 255:/Applications/ARM/arm-none-eabi/include/c++/10.3.1/cmath **** 
 256:/Applications/ARM/arm-none-eabi/include/c++/10.3.1/cmath ****   using ::floor;
 257:/Applications/ARM/arm-none-eabi/include/c++/10.3.1/cmath **** 
 258:/Applications/ARM/arm-none-eabi/include/c++/10.3.1/cmath **** #ifndef __CORRECT_ISO_CPP_MATH_H_PROTO
 259:/Applications/ARM/arm-none-eabi/include/c++/10.3.1/cmath ****   inline _GLIBCXX_CONSTEXPR float
 260:/Applications/ARM/arm-none-eabi/include/c++/10.3.1/cmath ****   floor(float __x)
 261:/Applications/ARM/arm-none-eabi/include/c++/10.3.1/cmath ****   { return __builtin_floorf(__x); }
 262:/Applications/ARM/arm-none-eabi/include/c++/10.3.1/cmath **** 
 263:/Applications/ARM/arm-none-eabi/include/c++/10.3.1/cmath ****   inline _GLIBCXX_CONSTEXPR long double
 264:/Applications/ARM/arm-none-eabi/include/c++/10.3.1/cmath ****   floor(long double __x)
 265:/Applications/ARM/arm-none-eabi/include/c++/10.3.1/cmath ****   { return __builtin_floorl(__x); }
 266:/Applications/ARM/arm-none-eabi/include/c++/10.3.1/cmath **** #endif
 267:/Applications/ARM/arm-none-eabi/include/c++/10.3.1/cmath **** 
 268:/Applications/ARM/arm-none-eabi/include/c++/10.3.1/cmath ****   template<typename _Tp>
 269:/Applications/ARM/arm-none-eabi/include/c++/10.3.1/cmath ****     inline _GLIBCXX_CONSTEXPR
 270:/Applications/ARM/arm-none-eabi/include/c++/10.3.1/cmath ****     typename __gnu_cxx::__enable_if<__is_integer<_Tp>::__value,
 271:/Applications/ARM/arm-none-eabi/include/c++/10.3.1/cmath ****                                     double>::__type
 272:/Applications/ARM/arm-none-eabi/include/c++/10.3.1/cmath ****     floor(_Tp __x)
 273:/Applications/ARM/arm-none-eabi/include/c++/10.3.1/cmath ****     { return __builtin_floor(__x); }
 274:/Applications/ARM/arm-none-eabi/include/c++/10.3.1/cmath **** 
 275:/Applications/ARM/arm-none-eabi/include/c++/10.3.1/cmath ****   using ::fmod;
 276:/Applications/ARM/arm-none-eabi/include/c++/10.3.1/cmath **** 
 277:/Applications/ARM/arm-none-eabi/include/c++/10.3.1/cmath **** #ifndef __CORRECT_ISO_CPP_MATH_H_PROTO
 278:/Applications/ARM/arm-none-eabi/include/c++/10.3.1/cmath ****   inline _GLIBCXX_CONSTEXPR float
 279:/Applications/ARM/arm-none-eabi/include/c++/10.3.1/cmath ****   fmod(float __x, float __y)
 1129              		.loc 19 279 3 discriminator 2 view .LVU325
 1130              	.LBB558:
 280:/Applications/ARM/arm-none-eabi/include/c++/10.3.1/cmath ****   { return __builtin_fmodf(__x, __y); }
 1131              		.loc 19 280 5 discriminator 2 view .LVU326
 1132              	.LBE558:
 1133              	.LBE557:
  58:chebyshev.cpp ****         ph2 = fmod(ph2 + inc2, 1.f);
 1134              		.loc 13 58 18 is_stmt 0 discriminator 2 view .LVU327
 1135 0108 9BED000A 		vldr.32	s0, [fp]
 1136              	.LVL63:
 1137              	.LBB561:
 1138              	.LBB559:
 1139              		.loc 19 280 27 discriminator 2 view .LVU328
 1140 010c F7EE000A 		vmov.f32	s1, #1.0e+0
 1141              	.LBE559:
 1142              	.LBE561:
 1143              	.LBE554:
  38:chebyshev.cpp ****     {
 1144              		.loc 13 38 5 discriminator 2 view .LVU329
 1145 0110 0AF1010A 		add	r10, r10, #1
 1146              	.LVL64:
ARM GAS  /var/folders/z2/7_lhr9dn53s9tj4s0rwtyswm0000gn/T//ccJ9q3ms.s 			page 56


 1147              	.LBB567:
 1148              	.LBB562:
 1149              	.LBB560:
 1150              		.loc 19 280 27 discriminator 2 view .LVU330
 1151 0114 37EE800A 		vadd.f32	s0, s15, s0
 1152              	.LVL65:
 1153              		.loc 19 280 27 discriminator 2 view .LVU331
 1154 0118 FFF7FEFF 		bl	fmodf
 1155              	.LVL66:
 1156              		.loc 19 280 27 discriminator 2 view .LVU332
 1157              	.LBE560:
 1158              	.LBE562:
  59:chebyshev.cpp ****     }
 1159              		.loc 13 59 19 discriminator 2 view .LVU333
 1160 011c 134B     		ldr	r3, .L33+28
 1161 011e 98ED007A 		vldr.32	s14, [r8]
 1162              	.LBB563:
 1163              	.LBB564:
 1164              		.loc 19 280 27 discriminator 2 view .LVU334
 1165 0122 F7EE000A 		vmov.f32	s1, #1.0e+0
 1166              	.LBE564:
 1167              	.LBE563:
  59:chebyshev.cpp ****     }
 1168              		.loc 13 59 19 discriminator 2 view .LVU335
 1169 0126 D3ED007A 		vldr.32	s15, [r3]
  58:chebyshev.cpp ****         ph2 = fmod(ph2 + inc2, 1.f);
 1170              		.loc 13 58 12 discriminator 2 view .LVU336
 1171 012a 0F4B     		ldr	r3, .L33+24
 1172 012c 83ED000A 		vstr.32	s0, [r3]
  59:chebyshev.cpp ****     }
 1173              		.loc 13 59 9 is_stmt 1 discriminator 2 view .LVU337
 1174              	.LVL67:
 1175              	.LBB566:
 1176              	.LBI563:
 279:/Applications/ARM/arm-none-eabi/include/c++/10.3.1/cmath ****   { return __builtin_fmodf(__x, __y); }
 1177              		.loc 19 279 3 discriminator 2 view .LVU338
 1178              	.LBB565:
 1179              		.loc 19 280 5 discriminator 2 view .LVU339
 1180              		.loc 19 280 27 is_stmt 0 discriminator 2 view .LVU340
 1181 0130 37EE270A 		vadd.f32	s0, s14, s15
 1182              	.LVL68:
 1183              		.loc 19 280 27 discriminator 2 view .LVU341
 1184 0134 FFF7FEFF 		bl	fmodf
 1185              	.LVL69:
 1186              		.loc 19 280 27 discriminator 2 view .LVU342
 1187              	.LBE565:
 1188              	.LBE566:
 1189              	.LBE567:
  38:chebyshev.cpp ****     {
 1190              		.loc 13 38 26 discriminator 2 view .LVU343
 1191 0138 019B     		ldr	r3, [sp, #4]
 1192              	.LBB568:
  59:chebyshev.cpp ****     }
 1193              		.loc 13 59 13 discriminator 2 view .LVU344
 1194 013a 88ED000A 		vstr.32	s0, [r8]
 1195              	.LBE568:
  38:chebyshev.cpp ****     {
ARM GAS  /var/folders/z2/7_lhr9dn53s9tj4s0rwtyswm0000gn/T//ccJ9q3ms.s 			page 57


 1196              		.loc 13 38 5 is_stmt 1 discriminator 2 view .LVU345
 1197              	.LVL70:
  38:chebyshev.cpp ****     {
 1198              		.loc 13 38 26 discriminator 2 view .LVU346
 1199 013e 5345     		cmp	r3, r10
 1200 0140 7FF478AF 		bne	.L25
 1201              	.LVL71:
 1202              	.L21:
  38:chebyshev.cpp ****     {
 1203              		.loc 13 38 26 is_stmt 0 discriminator 2 view .LVU347
 1204              	.LBE553:
  61:chebyshev.cpp **** 
 1205              		.loc 13 61 1 view .LVU348
 1206 0144 03B0     		add	sp, sp, #12
 1207              		.cfi_def_cfa_offset 44
 1208              		@ sp needed
 1209 0146 BDEC028B 		vldm	sp!, {d8}
 1210              		.cfi_restore 80
 1211              		.cfi_restore 81
 1212              		.cfi_def_cfa_offset 36
 1213 014a BDE8F08F 		pop	{r4, r5, r6, r7, r8, r9, r10, fp, pc}
 1214              	.LVL72:
 1215              	.L34:
  61:chebyshev.cpp **** 
 1216              		.loc 13 61 1 view .LVU349
 1217 014e 00BF     		.align	2
 1218              	.L33:
 1219 0150 28000000 		.word	.LANCHOR18+40
 1220 0154 00000000 		.word	.LANCHOR20
 1221 0158 28000000 		.word	.LANCHOR19+40
 1222 015c 00000000 		.word	.LANCHOR2
 1223 0160 00000000 		.word	.LANCHOR18
 1224 0164 00000000 		.word	.LANCHOR19
 1225 0168 00000000 		.word	.LANCHOR6
 1226 016c 00000000 		.word	.LANCHOR4
 1227 0170 00000000 		.word	.LANCHOR5
 1228 0174 00000000 		.word	.LANCHOR7
 1229 0178 00000000 		.word	.LANCHOR3
 1230              		.cfi_endproc
 1231              	.LFE4781:
 1233              		.section	.text._ZN7daisysp6ShaperILj512EE4initEv,"axG",%progbits,_ZN7daisysp6ShaperILj512EE4initEv
 1234              		.align	1
 1235              		.p2align 2,,3
 1236              		.weak	_ZN7daisysp6ShaperILj512EE4initEv
 1237              		.syntax unified
 1238              		.thumb
 1239              		.thumb_func
 1241              	_ZN7daisysp6ShaperILj512EE4initEv:
 1242              	.LVL73:
 1243              	.LFB5097:
  75:shaper.h      ****         std::fill(weights.begin(), weights.end(), 1.f); 
 1244              		.loc 14 75 10 is_stmt 1 view -0
 1245              		.cfi_startproc
 1246              		@ args = 0, pretend = 0, frame = 0
 1247              		@ frame_needed = 0, uses_anonymous_args = 0
 1248              		@ link register save eliminated.
 1249              	.LBB569:
ARM GAS  /var/folders/z2/7_lhr9dn53s9tj4s0rwtyswm0000gn/T//ccJ9q3ms.s 			page 58


 1250              	.LBI569:
 126:/Applications/ARM/arm-none-eabi/include/c++/10.3.1/array ****       { return iterator(data()); }
 1251              		.loc 16 126 7 view .LVU351
 1252              	.LBB570:
 1253              	.LBI570:
 234:/Applications/ARM/arm-none-eabi/include/c++/10.3.1/array ****       { return _AT_Type::_S_ptr(_M_elems); }
 1254              		.loc 16 234 7 view .LVU352
 1255              	.LBB571:
 1256              		.loc 16 235 33 is_stmt 0 view .LVU353
 1257 0000 0346     		mov	r3, r0
 1258              	.LVL74:
 1259              		.loc 16 235 33 view .LVU354
 1260              	.LBE571:
 1261              	.LBE570:
 1262              	.LBE569:
 1263              	.LBB574:
 1264              	.LBI574:
 236:/Applications/ARM/arm-none-eabi/include/c++/10.3.1/bits/stl_algobase.h **** 	return __b;
 237:/Applications/ARM/arm-none-eabi/include/c++/10.3.1/bits/stl_algobase.h ****       return __a;
 238:/Applications/ARM/arm-none-eabi/include/c++/10.3.1/bits/stl_algobase.h ****     }
 239:/Applications/ARM/arm-none-eabi/include/c++/10.3.1/bits/stl_algobase.h **** 
 240:/Applications/ARM/arm-none-eabi/include/c++/10.3.1/bits/stl_algobase.h ****   /**
 241:/Applications/ARM/arm-none-eabi/include/c++/10.3.1/bits/stl_algobase.h ****    *  @brief This does what you think it does.
 242:/Applications/ARM/arm-none-eabi/include/c++/10.3.1/bits/stl_algobase.h ****    *  @ingroup sorting_algorithms
 243:/Applications/ARM/arm-none-eabi/include/c++/10.3.1/bits/stl_algobase.h ****    *  @param  __a  A thing of arbitrary type.
 244:/Applications/ARM/arm-none-eabi/include/c++/10.3.1/bits/stl_algobase.h ****    *  @param  __b  Another thing of arbitrary type.
 245:/Applications/ARM/arm-none-eabi/include/c++/10.3.1/bits/stl_algobase.h ****    *  @return   The greater of the parameters.
 246:/Applications/ARM/arm-none-eabi/include/c++/10.3.1/bits/stl_algobase.h ****    *
 247:/Applications/ARM/arm-none-eabi/include/c++/10.3.1/bits/stl_algobase.h ****    *  This is the simple classic generic implementation.  It will work on
 248:/Applications/ARM/arm-none-eabi/include/c++/10.3.1/bits/stl_algobase.h ****    *  temporary expressions, since they are only evaluated once, unlike a
 249:/Applications/ARM/arm-none-eabi/include/c++/10.3.1/bits/stl_algobase.h ****    *  preprocessor macro.
 250:/Applications/ARM/arm-none-eabi/include/c++/10.3.1/bits/stl_algobase.h ****   */
 251:/Applications/ARM/arm-none-eabi/include/c++/10.3.1/bits/stl_algobase.h ****   template<typename _Tp>
 252:/Applications/ARM/arm-none-eabi/include/c++/10.3.1/bits/stl_algobase.h ****     _GLIBCXX14_CONSTEXPR
 253:/Applications/ARM/arm-none-eabi/include/c++/10.3.1/bits/stl_algobase.h ****     inline const _Tp&
 254:/Applications/ARM/arm-none-eabi/include/c++/10.3.1/bits/stl_algobase.h ****     max(const _Tp& __a, const _Tp& __b)
 255:/Applications/ARM/arm-none-eabi/include/c++/10.3.1/bits/stl_algobase.h ****     {
 256:/Applications/ARM/arm-none-eabi/include/c++/10.3.1/bits/stl_algobase.h ****       // concept requirements
 257:/Applications/ARM/arm-none-eabi/include/c++/10.3.1/bits/stl_algobase.h ****       __glibcxx_function_requires(_LessThanComparableConcept<_Tp>)
 258:/Applications/ARM/arm-none-eabi/include/c++/10.3.1/bits/stl_algobase.h ****       //return  __a < __b ? __b : __a;
 259:/Applications/ARM/arm-none-eabi/include/c++/10.3.1/bits/stl_algobase.h ****       if (__a < __b)
 260:/Applications/ARM/arm-none-eabi/include/c++/10.3.1/bits/stl_algobase.h **** 	return __b;
 261:/Applications/ARM/arm-none-eabi/include/c++/10.3.1/bits/stl_algobase.h ****       return __a;
 262:/Applications/ARM/arm-none-eabi/include/c++/10.3.1/bits/stl_algobase.h ****     }
 263:/Applications/ARM/arm-none-eabi/include/c++/10.3.1/bits/stl_algobase.h **** 
 264:/Applications/ARM/arm-none-eabi/include/c++/10.3.1/bits/stl_algobase.h ****   /**
 265:/Applications/ARM/arm-none-eabi/include/c++/10.3.1/bits/stl_algobase.h ****    *  @brief This does what you think it does.
 266:/Applications/ARM/arm-none-eabi/include/c++/10.3.1/bits/stl_algobase.h ****    *  @ingroup sorting_algorithms
 267:/Applications/ARM/arm-none-eabi/include/c++/10.3.1/bits/stl_algobase.h ****    *  @param  __a  A thing of arbitrary type.
 268:/Applications/ARM/arm-none-eabi/include/c++/10.3.1/bits/stl_algobase.h ****    *  @param  __b  Another thing of arbitrary type.
 269:/Applications/ARM/arm-none-eabi/include/c++/10.3.1/bits/stl_algobase.h ****    *  @param  __comp  A @link comparison_functors comparison functor@endlink.
 270:/Applications/ARM/arm-none-eabi/include/c++/10.3.1/bits/stl_algobase.h ****    *  @return   The lesser of the parameters.
 271:/Applications/ARM/arm-none-eabi/include/c++/10.3.1/bits/stl_algobase.h ****    *
 272:/Applications/ARM/arm-none-eabi/include/c++/10.3.1/bits/stl_algobase.h ****    *  This will work on temporary expressions, since they are only evaluated
 273:/Applications/ARM/arm-none-eabi/include/c++/10.3.1/bits/stl_algobase.h ****    *  once, unlike a preprocessor macro.
 274:/Applications/ARM/arm-none-eabi/include/c++/10.3.1/bits/stl_algobase.h ****   */
 275:/Applications/ARM/arm-none-eabi/include/c++/10.3.1/bits/stl_algobase.h ****   template<typename _Tp, typename _Compare>
ARM GAS  /var/folders/z2/7_lhr9dn53s9tj4s0rwtyswm0000gn/T//ccJ9q3ms.s 			page 59


 276:/Applications/ARM/arm-none-eabi/include/c++/10.3.1/bits/stl_algobase.h ****     _GLIBCXX14_CONSTEXPR
 277:/Applications/ARM/arm-none-eabi/include/c++/10.3.1/bits/stl_algobase.h ****     inline const _Tp&
 278:/Applications/ARM/arm-none-eabi/include/c++/10.3.1/bits/stl_algobase.h ****     min(const _Tp& __a, const _Tp& __b, _Compare __comp)
 279:/Applications/ARM/arm-none-eabi/include/c++/10.3.1/bits/stl_algobase.h ****     {
 280:/Applications/ARM/arm-none-eabi/include/c++/10.3.1/bits/stl_algobase.h ****       //return __comp(__b, __a) ? __b : __a;
 281:/Applications/ARM/arm-none-eabi/include/c++/10.3.1/bits/stl_algobase.h ****       if (__comp(__b, __a))
 282:/Applications/ARM/arm-none-eabi/include/c++/10.3.1/bits/stl_algobase.h **** 	return __b;
 283:/Applications/ARM/arm-none-eabi/include/c++/10.3.1/bits/stl_algobase.h ****       return __a;
 284:/Applications/ARM/arm-none-eabi/include/c++/10.3.1/bits/stl_algobase.h ****     }
 285:/Applications/ARM/arm-none-eabi/include/c++/10.3.1/bits/stl_algobase.h **** 
 286:/Applications/ARM/arm-none-eabi/include/c++/10.3.1/bits/stl_algobase.h ****   /**
 287:/Applications/ARM/arm-none-eabi/include/c++/10.3.1/bits/stl_algobase.h ****    *  @brief This does what you think it does.
 288:/Applications/ARM/arm-none-eabi/include/c++/10.3.1/bits/stl_algobase.h ****    *  @ingroup sorting_algorithms
 289:/Applications/ARM/arm-none-eabi/include/c++/10.3.1/bits/stl_algobase.h ****    *  @param  __a  A thing of arbitrary type.
 290:/Applications/ARM/arm-none-eabi/include/c++/10.3.1/bits/stl_algobase.h ****    *  @param  __b  Another thing of arbitrary type.
 291:/Applications/ARM/arm-none-eabi/include/c++/10.3.1/bits/stl_algobase.h ****    *  @param  __comp  A @link comparison_functors comparison functor@endlink.
 292:/Applications/ARM/arm-none-eabi/include/c++/10.3.1/bits/stl_algobase.h ****    *  @return   The greater of the parameters.
 293:/Applications/ARM/arm-none-eabi/include/c++/10.3.1/bits/stl_algobase.h ****    *
 294:/Applications/ARM/arm-none-eabi/include/c++/10.3.1/bits/stl_algobase.h ****    *  This will work on temporary expressions, since they are only evaluated
 295:/Applications/ARM/arm-none-eabi/include/c++/10.3.1/bits/stl_algobase.h ****    *  once, unlike a preprocessor macro.
 296:/Applications/ARM/arm-none-eabi/include/c++/10.3.1/bits/stl_algobase.h ****   */
 297:/Applications/ARM/arm-none-eabi/include/c++/10.3.1/bits/stl_algobase.h ****   template<typename _Tp, typename _Compare>
 298:/Applications/ARM/arm-none-eabi/include/c++/10.3.1/bits/stl_algobase.h ****     _GLIBCXX14_CONSTEXPR
 299:/Applications/ARM/arm-none-eabi/include/c++/10.3.1/bits/stl_algobase.h ****     inline const _Tp&
 300:/Applications/ARM/arm-none-eabi/include/c++/10.3.1/bits/stl_algobase.h ****     max(const _Tp& __a, const _Tp& __b, _Compare __comp)
 301:/Applications/ARM/arm-none-eabi/include/c++/10.3.1/bits/stl_algobase.h ****     {
 302:/Applications/ARM/arm-none-eabi/include/c++/10.3.1/bits/stl_algobase.h ****       //return __comp(__a, __b) ? __b : __a;
 303:/Applications/ARM/arm-none-eabi/include/c++/10.3.1/bits/stl_algobase.h ****       if (__comp(__a, __b))
 304:/Applications/ARM/arm-none-eabi/include/c++/10.3.1/bits/stl_algobase.h **** 	return __b;
 305:/Applications/ARM/arm-none-eabi/include/c++/10.3.1/bits/stl_algobase.h ****       return __a;
 306:/Applications/ARM/arm-none-eabi/include/c++/10.3.1/bits/stl_algobase.h ****     }
 307:/Applications/ARM/arm-none-eabi/include/c++/10.3.1/bits/stl_algobase.h **** 
 308:/Applications/ARM/arm-none-eabi/include/c++/10.3.1/bits/stl_algobase.h ****   // Fallback implementation of the function in bits/stl_iterator.h used to
 309:/Applications/ARM/arm-none-eabi/include/c++/10.3.1/bits/stl_algobase.h ****   // remove the __normal_iterator wrapper. See copy, fill, ...
 310:/Applications/ARM/arm-none-eabi/include/c++/10.3.1/bits/stl_algobase.h ****   template<typename _Iterator>
 311:/Applications/ARM/arm-none-eabi/include/c++/10.3.1/bits/stl_algobase.h ****     _GLIBCXX20_CONSTEXPR
 312:/Applications/ARM/arm-none-eabi/include/c++/10.3.1/bits/stl_algobase.h ****     inline _Iterator
 313:/Applications/ARM/arm-none-eabi/include/c++/10.3.1/bits/stl_algobase.h ****     __niter_base(_Iterator __it)
 314:/Applications/ARM/arm-none-eabi/include/c++/10.3.1/bits/stl_algobase.h ****     _GLIBCXX_NOEXCEPT_IF(std::is_nothrow_copy_constructible<_Iterator>::value)
 315:/Applications/ARM/arm-none-eabi/include/c++/10.3.1/bits/stl_algobase.h ****     { return __it; }
 316:/Applications/ARM/arm-none-eabi/include/c++/10.3.1/bits/stl_algobase.h **** 
 317:/Applications/ARM/arm-none-eabi/include/c++/10.3.1/bits/stl_algobase.h ****   // Reverse the __niter_base transformation to get a
 318:/Applications/ARM/arm-none-eabi/include/c++/10.3.1/bits/stl_algobase.h ****   // __normal_iterator back again (this assumes that __normal_iterator
 319:/Applications/ARM/arm-none-eabi/include/c++/10.3.1/bits/stl_algobase.h ****   // is only used to wrap random access iterators, like pointers).
 320:/Applications/ARM/arm-none-eabi/include/c++/10.3.1/bits/stl_algobase.h ****   template<typename _From, typename _To>
 321:/Applications/ARM/arm-none-eabi/include/c++/10.3.1/bits/stl_algobase.h ****     _GLIBCXX20_CONSTEXPR
 322:/Applications/ARM/arm-none-eabi/include/c++/10.3.1/bits/stl_algobase.h ****     inline _From
 323:/Applications/ARM/arm-none-eabi/include/c++/10.3.1/bits/stl_algobase.h ****     __niter_wrap(_From __from, _To __res)
 324:/Applications/ARM/arm-none-eabi/include/c++/10.3.1/bits/stl_algobase.h ****     { return __from + (__res - std::__niter_base(__from)); }
 325:/Applications/ARM/arm-none-eabi/include/c++/10.3.1/bits/stl_algobase.h **** 
 326:/Applications/ARM/arm-none-eabi/include/c++/10.3.1/bits/stl_algobase.h ****   // No need to wrap, iterator already has the right type.
 327:/Applications/ARM/arm-none-eabi/include/c++/10.3.1/bits/stl_algobase.h ****   template<typename _Iterator>
 328:/Applications/ARM/arm-none-eabi/include/c++/10.3.1/bits/stl_algobase.h ****     _GLIBCXX20_CONSTEXPR
 329:/Applications/ARM/arm-none-eabi/include/c++/10.3.1/bits/stl_algobase.h ****     inline _Iterator
 330:/Applications/ARM/arm-none-eabi/include/c++/10.3.1/bits/stl_algobase.h ****     __niter_wrap(const _Iterator&, _Iterator __res)
 331:/Applications/ARM/arm-none-eabi/include/c++/10.3.1/bits/stl_algobase.h ****     { return __res; }
 332:/Applications/ARM/arm-none-eabi/include/c++/10.3.1/bits/stl_algobase.h **** 
ARM GAS  /var/folders/z2/7_lhr9dn53s9tj4s0rwtyswm0000gn/T//ccJ9q3ms.s 			page 60


 333:/Applications/ARM/arm-none-eabi/include/c++/10.3.1/bits/stl_algobase.h ****   // All of these auxiliary structs serve two purposes.  (1) Replace
 334:/Applications/ARM/arm-none-eabi/include/c++/10.3.1/bits/stl_algobase.h ****   // calls to copy with memmove whenever possible.  (Memmove, not memcpy,
 335:/Applications/ARM/arm-none-eabi/include/c++/10.3.1/bits/stl_algobase.h ****   // because the input and output ranges are permitted to overlap.)
 336:/Applications/ARM/arm-none-eabi/include/c++/10.3.1/bits/stl_algobase.h ****   // (2) If we're using random access iterators, then write the loop as
 337:/Applications/ARM/arm-none-eabi/include/c++/10.3.1/bits/stl_algobase.h ****   // a for loop with an explicit count.
 338:/Applications/ARM/arm-none-eabi/include/c++/10.3.1/bits/stl_algobase.h **** 
 339:/Applications/ARM/arm-none-eabi/include/c++/10.3.1/bits/stl_algobase.h ****   template<bool _IsMove, bool _IsSimple, typename _Category>
 340:/Applications/ARM/arm-none-eabi/include/c++/10.3.1/bits/stl_algobase.h ****     struct __copy_move
 341:/Applications/ARM/arm-none-eabi/include/c++/10.3.1/bits/stl_algobase.h ****     {
 342:/Applications/ARM/arm-none-eabi/include/c++/10.3.1/bits/stl_algobase.h ****       template<typename _II, typename _OI>
 343:/Applications/ARM/arm-none-eabi/include/c++/10.3.1/bits/stl_algobase.h **** 	_GLIBCXX20_CONSTEXPR
 344:/Applications/ARM/arm-none-eabi/include/c++/10.3.1/bits/stl_algobase.h **** 	static _OI
 345:/Applications/ARM/arm-none-eabi/include/c++/10.3.1/bits/stl_algobase.h **** 	__copy_m(_II __first, _II __last, _OI __result)
 346:/Applications/ARM/arm-none-eabi/include/c++/10.3.1/bits/stl_algobase.h **** 	{
 347:/Applications/ARM/arm-none-eabi/include/c++/10.3.1/bits/stl_algobase.h **** 	  for (; __first != __last; ++__result, (void)++__first)
 348:/Applications/ARM/arm-none-eabi/include/c++/10.3.1/bits/stl_algobase.h **** 	    *__result = *__first;
 349:/Applications/ARM/arm-none-eabi/include/c++/10.3.1/bits/stl_algobase.h **** 	  return __result;
 350:/Applications/ARM/arm-none-eabi/include/c++/10.3.1/bits/stl_algobase.h **** 	}
 351:/Applications/ARM/arm-none-eabi/include/c++/10.3.1/bits/stl_algobase.h ****     };
 352:/Applications/ARM/arm-none-eabi/include/c++/10.3.1/bits/stl_algobase.h **** 
 353:/Applications/ARM/arm-none-eabi/include/c++/10.3.1/bits/stl_algobase.h **** #if __cplusplus >= 201103L
 354:/Applications/ARM/arm-none-eabi/include/c++/10.3.1/bits/stl_algobase.h ****   template<typename _Category>
 355:/Applications/ARM/arm-none-eabi/include/c++/10.3.1/bits/stl_algobase.h ****     struct __copy_move<true, false, _Category>
 356:/Applications/ARM/arm-none-eabi/include/c++/10.3.1/bits/stl_algobase.h ****     {
 357:/Applications/ARM/arm-none-eabi/include/c++/10.3.1/bits/stl_algobase.h ****       template<typename _II, typename _OI>
 358:/Applications/ARM/arm-none-eabi/include/c++/10.3.1/bits/stl_algobase.h **** 	_GLIBCXX20_CONSTEXPR
 359:/Applications/ARM/arm-none-eabi/include/c++/10.3.1/bits/stl_algobase.h **** 	static _OI
 360:/Applications/ARM/arm-none-eabi/include/c++/10.3.1/bits/stl_algobase.h **** 	__copy_m(_II __first, _II __last, _OI __result)
 361:/Applications/ARM/arm-none-eabi/include/c++/10.3.1/bits/stl_algobase.h **** 	{
 362:/Applications/ARM/arm-none-eabi/include/c++/10.3.1/bits/stl_algobase.h **** 	  for (; __first != __last; ++__result, (void)++__first)
 363:/Applications/ARM/arm-none-eabi/include/c++/10.3.1/bits/stl_algobase.h **** 	    *__result = std::move(*__first);
 364:/Applications/ARM/arm-none-eabi/include/c++/10.3.1/bits/stl_algobase.h **** 	  return __result;
 365:/Applications/ARM/arm-none-eabi/include/c++/10.3.1/bits/stl_algobase.h **** 	}
 366:/Applications/ARM/arm-none-eabi/include/c++/10.3.1/bits/stl_algobase.h ****     };
 367:/Applications/ARM/arm-none-eabi/include/c++/10.3.1/bits/stl_algobase.h **** #endif
 368:/Applications/ARM/arm-none-eabi/include/c++/10.3.1/bits/stl_algobase.h **** 
 369:/Applications/ARM/arm-none-eabi/include/c++/10.3.1/bits/stl_algobase.h ****   template<>
 370:/Applications/ARM/arm-none-eabi/include/c++/10.3.1/bits/stl_algobase.h ****     struct __copy_move<false, false, random_access_iterator_tag>
 371:/Applications/ARM/arm-none-eabi/include/c++/10.3.1/bits/stl_algobase.h ****     {
 372:/Applications/ARM/arm-none-eabi/include/c++/10.3.1/bits/stl_algobase.h ****       template<typename _II, typename _OI>
 373:/Applications/ARM/arm-none-eabi/include/c++/10.3.1/bits/stl_algobase.h **** 	_GLIBCXX20_CONSTEXPR
 374:/Applications/ARM/arm-none-eabi/include/c++/10.3.1/bits/stl_algobase.h **** 	static _OI
 375:/Applications/ARM/arm-none-eabi/include/c++/10.3.1/bits/stl_algobase.h **** 	__copy_m(_II __first, _II __last, _OI __result)
 376:/Applications/ARM/arm-none-eabi/include/c++/10.3.1/bits/stl_algobase.h **** 	{
 377:/Applications/ARM/arm-none-eabi/include/c++/10.3.1/bits/stl_algobase.h **** 	  typedef typename iterator_traits<_II>::difference_type _Distance;
 378:/Applications/ARM/arm-none-eabi/include/c++/10.3.1/bits/stl_algobase.h **** 	  for(_Distance __n = __last - __first; __n > 0; --__n)
 379:/Applications/ARM/arm-none-eabi/include/c++/10.3.1/bits/stl_algobase.h **** 	    {
 380:/Applications/ARM/arm-none-eabi/include/c++/10.3.1/bits/stl_algobase.h **** 	      *__result = *__first;
 381:/Applications/ARM/arm-none-eabi/include/c++/10.3.1/bits/stl_algobase.h **** 	      ++__first;
 382:/Applications/ARM/arm-none-eabi/include/c++/10.3.1/bits/stl_algobase.h **** 	      ++__result;
 383:/Applications/ARM/arm-none-eabi/include/c++/10.3.1/bits/stl_algobase.h **** 	    }
 384:/Applications/ARM/arm-none-eabi/include/c++/10.3.1/bits/stl_algobase.h **** 	  return __result;
 385:/Applications/ARM/arm-none-eabi/include/c++/10.3.1/bits/stl_algobase.h **** 	}
 386:/Applications/ARM/arm-none-eabi/include/c++/10.3.1/bits/stl_algobase.h ****     };
 387:/Applications/ARM/arm-none-eabi/include/c++/10.3.1/bits/stl_algobase.h **** 
 388:/Applications/ARM/arm-none-eabi/include/c++/10.3.1/bits/stl_algobase.h **** #if __cplusplus >= 201103L
 389:/Applications/ARM/arm-none-eabi/include/c++/10.3.1/bits/stl_algobase.h ****   template<>
ARM GAS  /var/folders/z2/7_lhr9dn53s9tj4s0rwtyswm0000gn/T//ccJ9q3ms.s 			page 61


 390:/Applications/ARM/arm-none-eabi/include/c++/10.3.1/bits/stl_algobase.h ****     struct __copy_move<true, false, random_access_iterator_tag>
 391:/Applications/ARM/arm-none-eabi/include/c++/10.3.1/bits/stl_algobase.h ****     {
 392:/Applications/ARM/arm-none-eabi/include/c++/10.3.1/bits/stl_algobase.h ****       template<typename _II, typename _OI>
 393:/Applications/ARM/arm-none-eabi/include/c++/10.3.1/bits/stl_algobase.h **** 	_GLIBCXX20_CONSTEXPR
 394:/Applications/ARM/arm-none-eabi/include/c++/10.3.1/bits/stl_algobase.h **** 	static _OI
 395:/Applications/ARM/arm-none-eabi/include/c++/10.3.1/bits/stl_algobase.h **** 	__copy_m(_II __first, _II __last, _OI __result)
 396:/Applications/ARM/arm-none-eabi/include/c++/10.3.1/bits/stl_algobase.h **** 	{
 397:/Applications/ARM/arm-none-eabi/include/c++/10.3.1/bits/stl_algobase.h **** 	  typedef typename iterator_traits<_II>::difference_type _Distance;
 398:/Applications/ARM/arm-none-eabi/include/c++/10.3.1/bits/stl_algobase.h **** 	  for(_Distance __n = __last - __first; __n > 0; --__n)
 399:/Applications/ARM/arm-none-eabi/include/c++/10.3.1/bits/stl_algobase.h **** 	    {
 400:/Applications/ARM/arm-none-eabi/include/c++/10.3.1/bits/stl_algobase.h **** 	      *__result = std::move(*__first);
 401:/Applications/ARM/arm-none-eabi/include/c++/10.3.1/bits/stl_algobase.h **** 	      ++__first;
 402:/Applications/ARM/arm-none-eabi/include/c++/10.3.1/bits/stl_algobase.h **** 	      ++__result;
 403:/Applications/ARM/arm-none-eabi/include/c++/10.3.1/bits/stl_algobase.h **** 	    }
 404:/Applications/ARM/arm-none-eabi/include/c++/10.3.1/bits/stl_algobase.h **** 	  return __result;
 405:/Applications/ARM/arm-none-eabi/include/c++/10.3.1/bits/stl_algobase.h **** 	}
 406:/Applications/ARM/arm-none-eabi/include/c++/10.3.1/bits/stl_algobase.h ****     };
 407:/Applications/ARM/arm-none-eabi/include/c++/10.3.1/bits/stl_algobase.h **** #endif
 408:/Applications/ARM/arm-none-eabi/include/c++/10.3.1/bits/stl_algobase.h **** 
 409:/Applications/ARM/arm-none-eabi/include/c++/10.3.1/bits/stl_algobase.h ****   template<bool _IsMove>
 410:/Applications/ARM/arm-none-eabi/include/c++/10.3.1/bits/stl_algobase.h ****     struct __copy_move<_IsMove, true, random_access_iterator_tag>
 411:/Applications/ARM/arm-none-eabi/include/c++/10.3.1/bits/stl_algobase.h ****     {
 412:/Applications/ARM/arm-none-eabi/include/c++/10.3.1/bits/stl_algobase.h ****       template<typename _Tp>
 413:/Applications/ARM/arm-none-eabi/include/c++/10.3.1/bits/stl_algobase.h **** 	_GLIBCXX20_CONSTEXPR
 414:/Applications/ARM/arm-none-eabi/include/c++/10.3.1/bits/stl_algobase.h **** 	static _Tp*
 415:/Applications/ARM/arm-none-eabi/include/c++/10.3.1/bits/stl_algobase.h **** 	__copy_m(const _Tp* __first, const _Tp* __last, _Tp* __result)
 416:/Applications/ARM/arm-none-eabi/include/c++/10.3.1/bits/stl_algobase.h **** 	{
 417:/Applications/ARM/arm-none-eabi/include/c++/10.3.1/bits/stl_algobase.h **** #if __cplusplus >= 201103L
 418:/Applications/ARM/arm-none-eabi/include/c++/10.3.1/bits/stl_algobase.h **** 	  using __assignable = conditional<_IsMove,
 419:/Applications/ARM/arm-none-eabi/include/c++/10.3.1/bits/stl_algobase.h **** 					   is_move_assignable<_Tp>,
 420:/Applications/ARM/arm-none-eabi/include/c++/10.3.1/bits/stl_algobase.h **** 					   is_copy_assignable<_Tp>>;
 421:/Applications/ARM/arm-none-eabi/include/c++/10.3.1/bits/stl_algobase.h **** 	  // trivial types can have deleted assignment
 422:/Applications/ARM/arm-none-eabi/include/c++/10.3.1/bits/stl_algobase.h **** 	  static_assert( __assignable::type::value, "type is not assignable" );
 423:/Applications/ARM/arm-none-eabi/include/c++/10.3.1/bits/stl_algobase.h **** #endif
 424:/Applications/ARM/arm-none-eabi/include/c++/10.3.1/bits/stl_algobase.h **** 	  const ptrdiff_t _Num = __last - __first;
 425:/Applications/ARM/arm-none-eabi/include/c++/10.3.1/bits/stl_algobase.h **** 	  if (_Num)
 426:/Applications/ARM/arm-none-eabi/include/c++/10.3.1/bits/stl_algobase.h **** 	    __builtin_memmove(__result, __first, sizeof(_Tp) * _Num);
 427:/Applications/ARM/arm-none-eabi/include/c++/10.3.1/bits/stl_algobase.h **** 	  return __result + _Num;
 428:/Applications/ARM/arm-none-eabi/include/c++/10.3.1/bits/stl_algobase.h **** 	}
 429:/Applications/ARM/arm-none-eabi/include/c++/10.3.1/bits/stl_algobase.h ****     };
 430:/Applications/ARM/arm-none-eabi/include/c++/10.3.1/bits/stl_algobase.h **** 
 431:/Applications/ARM/arm-none-eabi/include/c++/10.3.1/bits/stl_algobase.h ****   // Helpers for streambuf iterators (either istream or ostream).
 432:/Applications/ARM/arm-none-eabi/include/c++/10.3.1/bits/stl_algobase.h ****   // NB: avoid including <iosfwd>, relatively large.
 433:/Applications/ARM/arm-none-eabi/include/c++/10.3.1/bits/stl_algobase.h ****   template<typename _CharT>
 434:/Applications/ARM/arm-none-eabi/include/c++/10.3.1/bits/stl_algobase.h ****     struct char_traits;
 435:/Applications/ARM/arm-none-eabi/include/c++/10.3.1/bits/stl_algobase.h **** 
 436:/Applications/ARM/arm-none-eabi/include/c++/10.3.1/bits/stl_algobase.h ****   template<typename _CharT, typename _Traits>
 437:/Applications/ARM/arm-none-eabi/include/c++/10.3.1/bits/stl_algobase.h ****     class istreambuf_iterator;
 438:/Applications/ARM/arm-none-eabi/include/c++/10.3.1/bits/stl_algobase.h **** 
 439:/Applications/ARM/arm-none-eabi/include/c++/10.3.1/bits/stl_algobase.h ****   template<typename _CharT, typename _Traits>
 440:/Applications/ARM/arm-none-eabi/include/c++/10.3.1/bits/stl_algobase.h ****     class ostreambuf_iterator;
 441:/Applications/ARM/arm-none-eabi/include/c++/10.3.1/bits/stl_algobase.h **** 
 442:/Applications/ARM/arm-none-eabi/include/c++/10.3.1/bits/stl_algobase.h ****   template<bool _IsMove, typename _CharT>
 443:/Applications/ARM/arm-none-eabi/include/c++/10.3.1/bits/stl_algobase.h ****     typename __gnu_cxx::__enable_if<__is_char<_CharT>::__value,
 444:/Applications/ARM/arm-none-eabi/include/c++/10.3.1/bits/stl_algobase.h **** 	     ostreambuf_iterator<_CharT, char_traits<_CharT> > >::__type
 445:/Applications/ARM/arm-none-eabi/include/c++/10.3.1/bits/stl_algobase.h ****     __copy_move_a2(_CharT*, _CharT*,
 446:/Applications/ARM/arm-none-eabi/include/c++/10.3.1/bits/stl_algobase.h **** 		   ostreambuf_iterator<_CharT, char_traits<_CharT> >);
ARM GAS  /var/folders/z2/7_lhr9dn53s9tj4s0rwtyswm0000gn/T//ccJ9q3ms.s 			page 62


 447:/Applications/ARM/arm-none-eabi/include/c++/10.3.1/bits/stl_algobase.h **** 
 448:/Applications/ARM/arm-none-eabi/include/c++/10.3.1/bits/stl_algobase.h ****   template<bool _IsMove, typename _CharT>
 449:/Applications/ARM/arm-none-eabi/include/c++/10.3.1/bits/stl_algobase.h ****     typename __gnu_cxx::__enable_if<__is_char<_CharT>::__value,
 450:/Applications/ARM/arm-none-eabi/include/c++/10.3.1/bits/stl_algobase.h **** 	     ostreambuf_iterator<_CharT, char_traits<_CharT> > >::__type
 451:/Applications/ARM/arm-none-eabi/include/c++/10.3.1/bits/stl_algobase.h ****     __copy_move_a2(const _CharT*, const _CharT*,
 452:/Applications/ARM/arm-none-eabi/include/c++/10.3.1/bits/stl_algobase.h **** 		   ostreambuf_iterator<_CharT, char_traits<_CharT> >);
 453:/Applications/ARM/arm-none-eabi/include/c++/10.3.1/bits/stl_algobase.h **** 
 454:/Applications/ARM/arm-none-eabi/include/c++/10.3.1/bits/stl_algobase.h ****   template<bool _IsMove, typename _CharT>
 455:/Applications/ARM/arm-none-eabi/include/c++/10.3.1/bits/stl_algobase.h ****     typename __gnu_cxx::__enable_if<__is_char<_CharT>::__value,
 456:/Applications/ARM/arm-none-eabi/include/c++/10.3.1/bits/stl_algobase.h **** 				    _CharT*>::__type
 457:/Applications/ARM/arm-none-eabi/include/c++/10.3.1/bits/stl_algobase.h ****     __copy_move_a2(istreambuf_iterator<_CharT, char_traits<_CharT> >,
 458:/Applications/ARM/arm-none-eabi/include/c++/10.3.1/bits/stl_algobase.h **** 		   istreambuf_iterator<_CharT, char_traits<_CharT> >, _CharT*);
 459:/Applications/ARM/arm-none-eabi/include/c++/10.3.1/bits/stl_algobase.h **** 
 460:/Applications/ARM/arm-none-eabi/include/c++/10.3.1/bits/stl_algobase.h ****   template<bool _IsMove, typename _II, typename _OI>
 461:/Applications/ARM/arm-none-eabi/include/c++/10.3.1/bits/stl_algobase.h ****     _GLIBCXX20_CONSTEXPR
 462:/Applications/ARM/arm-none-eabi/include/c++/10.3.1/bits/stl_algobase.h ****     inline _OI
 463:/Applications/ARM/arm-none-eabi/include/c++/10.3.1/bits/stl_algobase.h ****     __copy_move_a2(_II __first, _II __last, _OI __result)
 464:/Applications/ARM/arm-none-eabi/include/c++/10.3.1/bits/stl_algobase.h ****     {
 465:/Applications/ARM/arm-none-eabi/include/c++/10.3.1/bits/stl_algobase.h ****       typedef typename iterator_traits<_II>::iterator_category _Category;
 466:/Applications/ARM/arm-none-eabi/include/c++/10.3.1/bits/stl_algobase.h **** #ifdef __cpp_lib_is_constant_evaluated
 467:/Applications/ARM/arm-none-eabi/include/c++/10.3.1/bits/stl_algobase.h ****       if (std::is_constant_evaluated())
 468:/Applications/ARM/arm-none-eabi/include/c++/10.3.1/bits/stl_algobase.h **** 	return std::__copy_move<_IsMove, false, _Category>::
 469:/Applications/ARM/arm-none-eabi/include/c++/10.3.1/bits/stl_algobase.h **** 	  __copy_m(__first, __last, __result);
 470:/Applications/ARM/arm-none-eabi/include/c++/10.3.1/bits/stl_algobase.h **** #endif
 471:/Applications/ARM/arm-none-eabi/include/c++/10.3.1/bits/stl_algobase.h ****       return std::__copy_move<_IsMove, __memcpyable<_OI, _II>::__value,
 472:/Applications/ARM/arm-none-eabi/include/c++/10.3.1/bits/stl_algobase.h **** 			      _Category>::__copy_m(__first, __last, __result);
 473:/Applications/ARM/arm-none-eabi/include/c++/10.3.1/bits/stl_algobase.h ****     }
 474:/Applications/ARM/arm-none-eabi/include/c++/10.3.1/bits/stl_algobase.h **** 
 475:/Applications/ARM/arm-none-eabi/include/c++/10.3.1/bits/stl_algobase.h **** _GLIBCXX_BEGIN_NAMESPACE_CONTAINER
 476:/Applications/ARM/arm-none-eabi/include/c++/10.3.1/bits/stl_algobase.h **** 
 477:/Applications/ARM/arm-none-eabi/include/c++/10.3.1/bits/stl_algobase.h ****   template<typename _Tp, typename _Ref, typename _Ptr>
 478:/Applications/ARM/arm-none-eabi/include/c++/10.3.1/bits/stl_algobase.h ****     struct _Deque_iterator;
 479:/Applications/ARM/arm-none-eabi/include/c++/10.3.1/bits/stl_algobase.h **** 
 480:/Applications/ARM/arm-none-eabi/include/c++/10.3.1/bits/stl_algobase.h **** _GLIBCXX_END_NAMESPACE_CONTAINER
 481:/Applications/ARM/arm-none-eabi/include/c++/10.3.1/bits/stl_algobase.h **** 
 482:/Applications/ARM/arm-none-eabi/include/c++/10.3.1/bits/stl_algobase.h ****   template<bool _IsMove,
 483:/Applications/ARM/arm-none-eabi/include/c++/10.3.1/bits/stl_algobase.h **** 	   typename _Tp, typename _Ref, typename _Ptr, typename _OI>
 484:/Applications/ARM/arm-none-eabi/include/c++/10.3.1/bits/stl_algobase.h ****     _OI
 485:/Applications/ARM/arm-none-eabi/include/c++/10.3.1/bits/stl_algobase.h ****     __copy_move_a1(_GLIBCXX_STD_C::_Deque_iterator<_Tp, _Ref, _Ptr>,
 486:/Applications/ARM/arm-none-eabi/include/c++/10.3.1/bits/stl_algobase.h **** 		   _GLIBCXX_STD_C::_Deque_iterator<_Tp, _Ref, _Ptr>,
 487:/Applications/ARM/arm-none-eabi/include/c++/10.3.1/bits/stl_algobase.h **** 		   _OI);
 488:/Applications/ARM/arm-none-eabi/include/c++/10.3.1/bits/stl_algobase.h **** 
 489:/Applications/ARM/arm-none-eabi/include/c++/10.3.1/bits/stl_algobase.h ****   template<bool _IsMove,
 490:/Applications/ARM/arm-none-eabi/include/c++/10.3.1/bits/stl_algobase.h **** 	   typename _ITp, typename _IRef, typename _IPtr, typename _OTp>
 491:/Applications/ARM/arm-none-eabi/include/c++/10.3.1/bits/stl_algobase.h ****     _GLIBCXX_STD_C::_Deque_iterator<_OTp, _OTp&, _OTp*>
 492:/Applications/ARM/arm-none-eabi/include/c++/10.3.1/bits/stl_algobase.h ****     __copy_move_a1(_GLIBCXX_STD_C::_Deque_iterator<_ITp, _IRef, _IPtr>,
 493:/Applications/ARM/arm-none-eabi/include/c++/10.3.1/bits/stl_algobase.h **** 		   _GLIBCXX_STD_C::_Deque_iterator<_ITp, _IRef, _IPtr>,
 494:/Applications/ARM/arm-none-eabi/include/c++/10.3.1/bits/stl_algobase.h **** 		   _GLIBCXX_STD_C::_Deque_iterator<_OTp, _OTp&, _OTp*>);
 495:/Applications/ARM/arm-none-eabi/include/c++/10.3.1/bits/stl_algobase.h **** 
 496:/Applications/ARM/arm-none-eabi/include/c++/10.3.1/bits/stl_algobase.h ****   template<bool _IsMove, typename _II, typename _Tp>
 497:/Applications/ARM/arm-none-eabi/include/c++/10.3.1/bits/stl_algobase.h ****     typename __gnu_cxx::__enable_if<
 498:/Applications/ARM/arm-none-eabi/include/c++/10.3.1/bits/stl_algobase.h ****       __is_random_access_iter<_II>::__value,
 499:/Applications/ARM/arm-none-eabi/include/c++/10.3.1/bits/stl_algobase.h ****       _GLIBCXX_STD_C::_Deque_iterator<_Tp, _Tp&, _Tp*> >::__type
 500:/Applications/ARM/arm-none-eabi/include/c++/10.3.1/bits/stl_algobase.h ****     __copy_move_a1(_II, _II, _GLIBCXX_STD_C::_Deque_iterator<_Tp, _Tp&, _Tp*>);
 501:/Applications/ARM/arm-none-eabi/include/c++/10.3.1/bits/stl_algobase.h **** 
 502:/Applications/ARM/arm-none-eabi/include/c++/10.3.1/bits/stl_algobase.h ****   template<bool _IsMove, typename _II, typename _OI>
 503:/Applications/ARM/arm-none-eabi/include/c++/10.3.1/bits/stl_algobase.h ****     _GLIBCXX20_CONSTEXPR
ARM GAS  /var/folders/z2/7_lhr9dn53s9tj4s0rwtyswm0000gn/T//ccJ9q3ms.s 			page 63


 504:/Applications/ARM/arm-none-eabi/include/c++/10.3.1/bits/stl_algobase.h ****     inline _OI
 505:/Applications/ARM/arm-none-eabi/include/c++/10.3.1/bits/stl_algobase.h ****     __copy_move_a1(_II __first, _II __last, _OI __result)
 506:/Applications/ARM/arm-none-eabi/include/c++/10.3.1/bits/stl_algobase.h ****     { return std::__copy_move_a2<_IsMove>(__first, __last, __result); }
 507:/Applications/ARM/arm-none-eabi/include/c++/10.3.1/bits/stl_algobase.h **** 
 508:/Applications/ARM/arm-none-eabi/include/c++/10.3.1/bits/stl_algobase.h ****   template<bool _IsMove, typename _II, typename _OI>
 509:/Applications/ARM/arm-none-eabi/include/c++/10.3.1/bits/stl_algobase.h ****     _GLIBCXX20_CONSTEXPR
 510:/Applications/ARM/arm-none-eabi/include/c++/10.3.1/bits/stl_algobase.h ****     inline _OI
 511:/Applications/ARM/arm-none-eabi/include/c++/10.3.1/bits/stl_algobase.h ****     __copy_move_a(_II __first, _II __last, _OI __result)
 512:/Applications/ARM/arm-none-eabi/include/c++/10.3.1/bits/stl_algobase.h ****     {
 513:/Applications/ARM/arm-none-eabi/include/c++/10.3.1/bits/stl_algobase.h ****       return std::__niter_wrap(__result,
 514:/Applications/ARM/arm-none-eabi/include/c++/10.3.1/bits/stl_algobase.h **** 		std::__copy_move_a1<_IsMove>(std::__niter_base(__first),
 515:/Applications/ARM/arm-none-eabi/include/c++/10.3.1/bits/stl_algobase.h **** 					     std::__niter_base(__last),
 516:/Applications/ARM/arm-none-eabi/include/c++/10.3.1/bits/stl_algobase.h **** 					     std::__niter_base(__result)));
 517:/Applications/ARM/arm-none-eabi/include/c++/10.3.1/bits/stl_algobase.h ****     }
 518:/Applications/ARM/arm-none-eabi/include/c++/10.3.1/bits/stl_algobase.h **** 
 519:/Applications/ARM/arm-none-eabi/include/c++/10.3.1/bits/stl_algobase.h ****   template<bool _IsMove,
 520:/Applications/ARM/arm-none-eabi/include/c++/10.3.1/bits/stl_algobase.h **** 	   typename _Ite, typename _Seq, typename _Cat, typename _OI>
 521:/Applications/ARM/arm-none-eabi/include/c++/10.3.1/bits/stl_algobase.h ****     _OI
 522:/Applications/ARM/arm-none-eabi/include/c++/10.3.1/bits/stl_algobase.h ****     __copy_move_a(const ::__gnu_debug::_Safe_iterator<_Ite, _Seq, _Cat>&,
 523:/Applications/ARM/arm-none-eabi/include/c++/10.3.1/bits/stl_algobase.h **** 		  const ::__gnu_debug::_Safe_iterator<_Ite, _Seq, _Cat>&,
 524:/Applications/ARM/arm-none-eabi/include/c++/10.3.1/bits/stl_algobase.h **** 		  _OI);
 525:/Applications/ARM/arm-none-eabi/include/c++/10.3.1/bits/stl_algobase.h **** 
 526:/Applications/ARM/arm-none-eabi/include/c++/10.3.1/bits/stl_algobase.h ****   template<bool _IsMove,
 527:/Applications/ARM/arm-none-eabi/include/c++/10.3.1/bits/stl_algobase.h **** 	   typename _II, typename _Ite, typename _Seq, typename _Cat>
 528:/Applications/ARM/arm-none-eabi/include/c++/10.3.1/bits/stl_algobase.h ****     __gnu_debug::_Safe_iterator<_Ite, _Seq, _Cat>
 529:/Applications/ARM/arm-none-eabi/include/c++/10.3.1/bits/stl_algobase.h ****     __copy_move_a(_II, _II,
 530:/Applications/ARM/arm-none-eabi/include/c++/10.3.1/bits/stl_algobase.h **** 		  const ::__gnu_debug::_Safe_iterator<_Ite, _Seq, _Cat>&);
 531:/Applications/ARM/arm-none-eabi/include/c++/10.3.1/bits/stl_algobase.h **** 
 532:/Applications/ARM/arm-none-eabi/include/c++/10.3.1/bits/stl_algobase.h ****   template<bool _IsMove,
 533:/Applications/ARM/arm-none-eabi/include/c++/10.3.1/bits/stl_algobase.h **** 	   typename _IIte, typename _ISeq, typename _ICat,
 534:/Applications/ARM/arm-none-eabi/include/c++/10.3.1/bits/stl_algobase.h **** 	   typename _OIte, typename _OSeq, typename _OCat>
 535:/Applications/ARM/arm-none-eabi/include/c++/10.3.1/bits/stl_algobase.h ****     ::__gnu_debug::_Safe_iterator<_OIte, _OSeq, _OCat>
 536:/Applications/ARM/arm-none-eabi/include/c++/10.3.1/bits/stl_algobase.h ****     __copy_move_a(const ::__gnu_debug::_Safe_iterator<_IIte, _ISeq, _ICat>&,
 537:/Applications/ARM/arm-none-eabi/include/c++/10.3.1/bits/stl_algobase.h **** 		  const ::__gnu_debug::_Safe_iterator<_IIte, _ISeq, _ICat>&,
 538:/Applications/ARM/arm-none-eabi/include/c++/10.3.1/bits/stl_algobase.h **** 		  const ::__gnu_debug::_Safe_iterator<_OIte, _OSeq, _OCat>&);
 539:/Applications/ARM/arm-none-eabi/include/c++/10.3.1/bits/stl_algobase.h **** 
 540:/Applications/ARM/arm-none-eabi/include/c++/10.3.1/bits/stl_algobase.h ****   /**
 541:/Applications/ARM/arm-none-eabi/include/c++/10.3.1/bits/stl_algobase.h ****    *  @brief Copies the range [first,last) into result.
 542:/Applications/ARM/arm-none-eabi/include/c++/10.3.1/bits/stl_algobase.h ****    *  @ingroup mutating_algorithms
 543:/Applications/ARM/arm-none-eabi/include/c++/10.3.1/bits/stl_algobase.h ****    *  @param  __first  An input iterator.
 544:/Applications/ARM/arm-none-eabi/include/c++/10.3.1/bits/stl_algobase.h ****    *  @param  __last   An input iterator.
 545:/Applications/ARM/arm-none-eabi/include/c++/10.3.1/bits/stl_algobase.h ****    *  @param  __result An output iterator.
 546:/Applications/ARM/arm-none-eabi/include/c++/10.3.1/bits/stl_algobase.h ****    *  @return   result + (last - first)
 547:/Applications/ARM/arm-none-eabi/include/c++/10.3.1/bits/stl_algobase.h ****    *
 548:/Applications/ARM/arm-none-eabi/include/c++/10.3.1/bits/stl_algobase.h ****    *  This inline function will boil down to a call to @c memmove whenever
 549:/Applications/ARM/arm-none-eabi/include/c++/10.3.1/bits/stl_algobase.h ****    *  possible.  Failing that, if random access iterators are passed, then the
 550:/Applications/ARM/arm-none-eabi/include/c++/10.3.1/bits/stl_algobase.h ****    *  loop count will be known (and therefore a candidate for compiler
 551:/Applications/ARM/arm-none-eabi/include/c++/10.3.1/bits/stl_algobase.h ****    *  optimizations such as unrolling).  Result may not be contained within
 552:/Applications/ARM/arm-none-eabi/include/c++/10.3.1/bits/stl_algobase.h ****    *  [first,last); the copy_backward function should be used instead.
 553:/Applications/ARM/arm-none-eabi/include/c++/10.3.1/bits/stl_algobase.h ****    *
 554:/Applications/ARM/arm-none-eabi/include/c++/10.3.1/bits/stl_algobase.h ****    *  Note that the end of the output range is permitted to be contained
 555:/Applications/ARM/arm-none-eabi/include/c++/10.3.1/bits/stl_algobase.h ****    *  within [first,last).
 556:/Applications/ARM/arm-none-eabi/include/c++/10.3.1/bits/stl_algobase.h ****   */
 557:/Applications/ARM/arm-none-eabi/include/c++/10.3.1/bits/stl_algobase.h ****   template<typename _II, typename _OI>
 558:/Applications/ARM/arm-none-eabi/include/c++/10.3.1/bits/stl_algobase.h ****     _GLIBCXX20_CONSTEXPR
 559:/Applications/ARM/arm-none-eabi/include/c++/10.3.1/bits/stl_algobase.h ****     inline _OI
 560:/Applications/ARM/arm-none-eabi/include/c++/10.3.1/bits/stl_algobase.h ****     copy(_II __first, _II __last, _OI __result)
ARM GAS  /var/folders/z2/7_lhr9dn53s9tj4s0rwtyswm0000gn/T//ccJ9q3ms.s 			page 64


 561:/Applications/ARM/arm-none-eabi/include/c++/10.3.1/bits/stl_algobase.h ****     {
 562:/Applications/ARM/arm-none-eabi/include/c++/10.3.1/bits/stl_algobase.h ****       // concept requirements
 563:/Applications/ARM/arm-none-eabi/include/c++/10.3.1/bits/stl_algobase.h ****       __glibcxx_function_requires(_InputIteratorConcept<_II>)
 564:/Applications/ARM/arm-none-eabi/include/c++/10.3.1/bits/stl_algobase.h ****       __glibcxx_function_requires(_OutputIteratorConcept<_OI,
 565:/Applications/ARM/arm-none-eabi/include/c++/10.3.1/bits/stl_algobase.h **** 	    typename iterator_traits<_II>::value_type>)
 566:/Applications/ARM/arm-none-eabi/include/c++/10.3.1/bits/stl_algobase.h ****       __glibcxx_requires_can_increment_range(__first, __last, __result);
 567:/Applications/ARM/arm-none-eabi/include/c++/10.3.1/bits/stl_algobase.h **** 
 568:/Applications/ARM/arm-none-eabi/include/c++/10.3.1/bits/stl_algobase.h ****       return std::__copy_move_a<__is_move_iterator<_II>::__value>
 569:/Applications/ARM/arm-none-eabi/include/c++/10.3.1/bits/stl_algobase.h **** 	     (std::__miter_base(__first), std::__miter_base(__last), __result);
 570:/Applications/ARM/arm-none-eabi/include/c++/10.3.1/bits/stl_algobase.h ****     }
 571:/Applications/ARM/arm-none-eabi/include/c++/10.3.1/bits/stl_algobase.h **** 
 572:/Applications/ARM/arm-none-eabi/include/c++/10.3.1/bits/stl_algobase.h **** #if __cplusplus >= 201103L
 573:/Applications/ARM/arm-none-eabi/include/c++/10.3.1/bits/stl_algobase.h ****   /**
 574:/Applications/ARM/arm-none-eabi/include/c++/10.3.1/bits/stl_algobase.h ****    *  @brief Moves the range [first,last) into result.
 575:/Applications/ARM/arm-none-eabi/include/c++/10.3.1/bits/stl_algobase.h ****    *  @ingroup mutating_algorithms
 576:/Applications/ARM/arm-none-eabi/include/c++/10.3.1/bits/stl_algobase.h ****    *  @param  __first  An input iterator.
 577:/Applications/ARM/arm-none-eabi/include/c++/10.3.1/bits/stl_algobase.h ****    *  @param  __last   An input iterator.
 578:/Applications/ARM/arm-none-eabi/include/c++/10.3.1/bits/stl_algobase.h ****    *  @param  __result An output iterator.
 579:/Applications/ARM/arm-none-eabi/include/c++/10.3.1/bits/stl_algobase.h ****    *  @return   result + (last - first)
 580:/Applications/ARM/arm-none-eabi/include/c++/10.3.1/bits/stl_algobase.h ****    *
 581:/Applications/ARM/arm-none-eabi/include/c++/10.3.1/bits/stl_algobase.h ****    *  This inline function will boil down to a call to @c memmove whenever
 582:/Applications/ARM/arm-none-eabi/include/c++/10.3.1/bits/stl_algobase.h ****    *  possible.  Failing that, if random access iterators are passed, then the
 583:/Applications/ARM/arm-none-eabi/include/c++/10.3.1/bits/stl_algobase.h ****    *  loop count will be known (and therefore a candidate for compiler
 584:/Applications/ARM/arm-none-eabi/include/c++/10.3.1/bits/stl_algobase.h ****    *  optimizations such as unrolling).  Result may not be contained within
 585:/Applications/ARM/arm-none-eabi/include/c++/10.3.1/bits/stl_algobase.h ****    *  [first,last); the move_backward function should be used instead.
 586:/Applications/ARM/arm-none-eabi/include/c++/10.3.1/bits/stl_algobase.h ****    *
 587:/Applications/ARM/arm-none-eabi/include/c++/10.3.1/bits/stl_algobase.h ****    *  Note that the end of the output range is permitted to be contained
 588:/Applications/ARM/arm-none-eabi/include/c++/10.3.1/bits/stl_algobase.h ****    *  within [first,last).
 589:/Applications/ARM/arm-none-eabi/include/c++/10.3.1/bits/stl_algobase.h ****   */
 590:/Applications/ARM/arm-none-eabi/include/c++/10.3.1/bits/stl_algobase.h ****   template<typename _II, typename _OI>
 591:/Applications/ARM/arm-none-eabi/include/c++/10.3.1/bits/stl_algobase.h ****     _GLIBCXX20_CONSTEXPR
 592:/Applications/ARM/arm-none-eabi/include/c++/10.3.1/bits/stl_algobase.h ****     inline _OI
 593:/Applications/ARM/arm-none-eabi/include/c++/10.3.1/bits/stl_algobase.h ****     move(_II __first, _II __last, _OI __result)
 594:/Applications/ARM/arm-none-eabi/include/c++/10.3.1/bits/stl_algobase.h ****     {
 595:/Applications/ARM/arm-none-eabi/include/c++/10.3.1/bits/stl_algobase.h ****       // concept requirements
 596:/Applications/ARM/arm-none-eabi/include/c++/10.3.1/bits/stl_algobase.h ****       __glibcxx_function_requires(_InputIteratorConcept<_II>)
 597:/Applications/ARM/arm-none-eabi/include/c++/10.3.1/bits/stl_algobase.h ****       __glibcxx_function_requires(_OutputIteratorConcept<_OI,
 598:/Applications/ARM/arm-none-eabi/include/c++/10.3.1/bits/stl_algobase.h **** 	    typename iterator_traits<_II>::value_type>)
 599:/Applications/ARM/arm-none-eabi/include/c++/10.3.1/bits/stl_algobase.h ****       __glibcxx_requires_can_increment_range(__first, __last, __result);
 600:/Applications/ARM/arm-none-eabi/include/c++/10.3.1/bits/stl_algobase.h **** 
 601:/Applications/ARM/arm-none-eabi/include/c++/10.3.1/bits/stl_algobase.h ****       return std::__copy_move_a<true>(std::__miter_base(__first),
 602:/Applications/ARM/arm-none-eabi/include/c++/10.3.1/bits/stl_algobase.h **** 				      std::__miter_base(__last), __result);
 603:/Applications/ARM/arm-none-eabi/include/c++/10.3.1/bits/stl_algobase.h ****     }
 604:/Applications/ARM/arm-none-eabi/include/c++/10.3.1/bits/stl_algobase.h **** 
 605:/Applications/ARM/arm-none-eabi/include/c++/10.3.1/bits/stl_algobase.h **** #define _GLIBCXX_MOVE3(_Tp, _Up, _Vp) std::move(_Tp, _Up, _Vp)
 606:/Applications/ARM/arm-none-eabi/include/c++/10.3.1/bits/stl_algobase.h **** #else
 607:/Applications/ARM/arm-none-eabi/include/c++/10.3.1/bits/stl_algobase.h **** #define _GLIBCXX_MOVE3(_Tp, _Up, _Vp) std::copy(_Tp, _Up, _Vp)
 608:/Applications/ARM/arm-none-eabi/include/c++/10.3.1/bits/stl_algobase.h **** #endif
 609:/Applications/ARM/arm-none-eabi/include/c++/10.3.1/bits/stl_algobase.h **** 
 610:/Applications/ARM/arm-none-eabi/include/c++/10.3.1/bits/stl_algobase.h ****   template<bool _IsMove, bool _IsSimple, typename _Category>
 611:/Applications/ARM/arm-none-eabi/include/c++/10.3.1/bits/stl_algobase.h ****     struct __copy_move_backward
 612:/Applications/ARM/arm-none-eabi/include/c++/10.3.1/bits/stl_algobase.h ****     {
 613:/Applications/ARM/arm-none-eabi/include/c++/10.3.1/bits/stl_algobase.h ****       template<typename _BI1, typename _BI2>
 614:/Applications/ARM/arm-none-eabi/include/c++/10.3.1/bits/stl_algobase.h **** 	_GLIBCXX20_CONSTEXPR
 615:/Applications/ARM/arm-none-eabi/include/c++/10.3.1/bits/stl_algobase.h **** 	static _BI2
 616:/Applications/ARM/arm-none-eabi/include/c++/10.3.1/bits/stl_algobase.h **** 	__copy_move_b(_BI1 __first, _BI1 __last, _BI2 __result)
 617:/Applications/ARM/arm-none-eabi/include/c++/10.3.1/bits/stl_algobase.h **** 	{
ARM GAS  /var/folders/z2/7_lhr9dn53s9tj4s0rwtyswm0000gn/T//ccJ9q3ms.s 			page 65


 618:/Applications/ARM/arm-none-eabi/include/c++/10.3.1/bits/stl_algobase.h **** 	  while (__first != __last)
 619:/Applications/ARM/arm-none-eabi/include/c++/10.3.1/bits/stl_algobase.h **** 	    *--__result = *--__last;
 620:/Applications/ARM/arm-none-eabi/include/c++/10.3.1/bits/stl_algobase.h **** 	  return __result;
 621:/Applications/ARM/arm-none-eabi/include/c++/10.3.1/bits/stl_algobase.h **** 	}
 622:/Applications/ARM/arm-none-eabi/include/c++/10.3.1/bits/stl_algobase.h ****     };
 623:/Applications/ARM/arm-none-eabi/include/c++/10.3.1/bits/stl_algobase.h **** 
 624:/Applications/ARM/arm-none-eabi/include/c++/10.3.1/bits/stl_algobase.h **** #if __cplusplus >= 201103L
 625:/Applications/ARM/arm-none-eabi/include/c++/10.3.1/bits/stl_algobase.h ****   template<typename _Category>
 626:/Applications/ARM/arm-none-eabi/include/c++/10.3.1/bits/stl_algobase.h ****     struct __copy_move_backward<true, false, _Category>
 627:/Applications/ARM/arm-none-eabi/include/c++/10.3.1/bits/stl_algobase.h ****     {
 628:/Applications/ARM/arm-none-eabi/include/c++/10.3.1/bits/stl_algobase.h ****       template<typename _BI1, typename _BI2>
 629:/Applications/ARM/arm-none-eabi/include/c++/10.3.1/bits/stl_algobase.h **** 	_GLIBCXX20_CONSTEXPR
 630:/Applications/ARM/arm-none-eabi/include/c++/10.3.1/bits/stl_algobase.h **** 	static _BI2
 631:/Applications/ARM/arm-none-eabi/include/c++/10.3.1/bits/stl_algobase.h **** 	__copy_move_b(_BI1 __first, _BI1 __last, _BI2 __result)
 632:/Applications/ARM/arm-none-eabi/include/c++/10.3.1/bits/stl_algobase.h **** 	{
 633:/Applications/ARM/arm-none-eabi/include/c++/10.3.1/bits/stl_algobase.h **** 	  while (__first != __last)
 634:/Applications/ARM/arm-none-eabi/include/c++/10.3.1/bits/stl_algobase.h **** 	    *--__result = std::move(*--__last);
 635:/Applications/ARM/arm-none-eabi/include/c++/10.3.1/bits/stl_algobase.h **** 	  return __result;
 636:/Applications/ARM/arm-none-eabi/include/c++/10.3.1/bits/stl_algobase.h **** 	}
 637:/Applications/ARM/arm-none-eabi/include/c++/10.3.1/bits/stl_algobase.h ****     };
 638:/Applications/ARM/arm-none-eabi/include/c++/10.3.1/bits/stl_algobase.h **** #endif
 639:/Applications/ARM/arm-none-eabi/include/c++/10.3.1/bits/stl_algobase.h **** 
 640:/Applications/ARM/arm-none-eabi/include/c++/10.3.1/bits/stl_algobase.h ****   template<>
 641:/Applications/ARM/arm-none-eabi/include/c++/10.3.1/bits/stl_algobase.h ****     struct __copy_move_backward<false, false, random_access_iterator_tag>
 642:/Applications/ARM/arm-none-eabi/include/c++/10.3.1/bits/stl_algobase.h ****     {
 643:/Applications/ARM/arm-none-eabi/include/c++/10.3.1/bits/stl_algobase.h ****       template<typename _BI1, typename _BI2>
 644:/Applications/ARM/arm-none-eabi/include/c++/10.3.1/bits/stl_algobase.h **** 	_GLIBCXX20_CONSTEXPR
 645:/Applications/ARM/arm-none-eabi/include/c++/10.3.1/bits/stl_algobase.h **** 	static _BI2
 646:/Applications/ARM/arm-none-eabi/include/c++/10.3.1/bits/stl_algobase.h **** 	__copy_move_b(_BI1 __first, _BI1 __last, _BI2 __result)
 647:/Applications/ARM/arm-none-eabi/include/c++/10.3.1/bits/stl_algobase.h **** 	{
 648:/Applications/ARM/arm-none-eabi/include/c++/10.3.1/bits/stl_algobase.h **** 	  typename iterator_traits<_BI1>::difference_type
 649:/Applications/ARM/arm-none-eabi/include/c++/10.3.1/bits/stl_algobase.h **** 	    __n = __last - __first;
 650:/Applications/ARM/arm-none-eabi/include/c++/10.3.1/bits/stl_algobase.h **** 	  for (; __n > 0; --__n)
 651:/Applications/ARM/arm-none-eabi/include/c++/10.3.1/bits/stl_algobase.h **** 	    *--__result = *--__last;
 652:/Applications/ARM/arm-none-eabi/include/c++/10.3.1/bits/stl_algobase.h **** 	  return __result;
 653:/Applications/ARM/arm-none-eabi/include/c++/10.3.1/bits/stl_algobase.h **** 	}
 654:/Applications/ARM/arm-none-eabi/include/c++/10.3.1/bits/stl_algobase.h ****     };
 655:/Applications/ARM/arm-none-eabi/include/c++/10.3.1/bits/stl_algobase.h **** 
 656:/Applications/ARM/arm-none-eabi/include/c++/10.3.1/bits/stl_algobase.h **** #if __cplusplus >= 201103L
 657:/Applications/ARM/arm-none-eabi/include/c++/10.3.1/bits/stl_algobase.h ****   template<>
 658:/Applications/ARM/arm-none-eabi/include/c++/10.3.1/bits/stl_algobase.h ****     struct __copy_move_backward<true, false, random_access_iterator_tag>
 659:/Applications/ARM/arm-none-eabi/include/c++/10.3.1/bits/stl_algobase.h ****     {
 660:/Applications/ARM/arm-none-eabi/include/c++/10.3.1/bits/stl_algobase.h ****       template<typename _BI1, typename _BI2>
 661:/Applications/ARM/arm-none-eabi/include/c++/10.3.1/bits/stl_algobase.h **** 	_GLIBCXX20_CONSTEXPR
 662:/Applications/ARM/arm-none-eabi/include/c++/10.3.1/bits/stl_algobase.h **** 	static _BI2
 663:/Applications/ARM/arm-none-eabi/include/c++/10.3.1/bits/stl_algobase.h **** 	__copy_move_b(_BI1 __first, _BI1 __last, _BI2 __result)
 664:/Applications/ARM/arm-none-eabi/include/c++/10.3.1/bits/stl_algobase.h **** 	{
 665:/Applications/ARM/arm-none-eabi/include/c++/10.3.1/bits/stl_algobase.h **** 	  typename iterator_traits<_BI1>::difference_type
 666:/Applications/ARM/arm-none-eabi/include/c++/10.3.1/bits/stl_algobase.h **** 	    __n = __last - __first;
 667:/Applications/ARM/arm-none-eabi/include/c++/10.3.1/bits/stl_algobase.h **** 	  for (; __n > 0; --__n)
 668:/Applications/ARM/arm-none-eabi/include/c++/10.3.1/bits/stl_algobase.h **** 	    *--__result = std::move(*--__last);
 669:/Applications/ARM/arm-none-eabi/include/c++/10.3.1/bits/stl_algobase.h **** 	  return __result;
 670:/Applications/ARM/arm-none-eabi/include/c++/10.3.1/bits/stl_algobase.h **** 	}
 671:/Applications/ARM/arm-none-eabi/include/c++/10.3.1/bits/stl_algobase.h ****     };
 672:/Applications/ARM/arm-none-eabi/include/c++/10.3.1/bits/stl_algobase.h **** #endif
 673:/Applications/ARM/arm-none-eabi/include/c++/10.3.1/bits/stl_algobase.h **** 
 674:/Applications/ARM/arm-none-eabi/include/c++/10.3.1/bits/stl_algobase.h ****   template<bool _IsMove>
ARM GAS  /var/folders/z2/7_lhr9dn53s9tj4s0rwtyswm0000gn/T//ccJ9q3ms.s 			page 66


 675:/Applications/ARM/arm-none-eabi/include/c++/10.3.1/bits/stl_algobase.h ****     struct __copy_move_backward<_IsMove, true, random_access_iterator_tag>
 676:/Applications/ARM/arm-none-eabi/include/c++/10.3.1/bits/stl_algobase.h ****     {
 677:/Applications/ARM/arm-none-eabi/include/c++/10.3.1/bits/stl_algobase.h ****       template<typename _Tp>
 678:/Applications/ARM/arm-none-eabi/include/c++/10.3.1/bits/stl_algobase.h **** 	_GLIBCXX20_CONSTEXPR
 679:/Applications/ARM/arm-none-eabi/include/c++/10.3.1/bits/stl_algobase.h **** 	static _Tp*
 680:/Applications/ARM/arm-none-eabi/include/c++/10.3.1/bits/stl_algobase.h **** 	__copy_move_b(const _Tp* __first, const _Tp* __last, _Tp* __result)
 681:/Applications/ARM/arm-none-eabi/include/c++/10.3.1/bits/stl_algobase.h **** 	{
 682:/Applications/ARM/arm-none-eabi/include/c++/10.3.1/bits/stl_algobase.h **** #if __cplusplus >= 201103L
 683:/Applications/ARM/arm-none-eabi/include/c++/10.3.1/bits/stl_algobase.h **** 	  using __assignable = conditional<_IsMove,
 684:/Applications/ARM/arm-none-eabi/include/c++/10.3.1/bits/stl_algobase.h **** 					   is_move_assignable<_Tp>,
 685:/Applications/ARM/arm-none-eabi/include/c++/10.3.1/bits/stl_algobase.h **** 					   is_copy_assignable<_Tp>>;
 686:/Applications/ARM/arm-none-eabi/include/c++/10.3.1/bits/stl_algobase.h **** 	  // trivial types can have deleted assignment
 687:/Applications/ARM/arm-none-eabi/include/c++/10.3.1/bits/stl_algobase.h **** 	  static_assert( __assignable::type::value, "type is not assignable" );
 688:/Applications/ARM/arm-none-eabi/include/c++/10.3.1/bits/stl_algobase.h **** #endif
 689:/Applications/ARM/arm-none-eabi/include/c++/10.3.1/bits/stl_algobase.h **** 	  const ptrdiff_t _Num = __last - __first;
 690:/Applications/ARM/arm-none-eabi/include/c++/10.3.1/bits/stl_algobase.h **** 	  if (_Num)
 691:/Applications/ARM/arm-none-eabi/include/c++/10.3.1/bits/stl_algobase.h **** 	    __builtin_memmove(__result - _Num, __first, sizeof(_Tp) * _Num);
 692:/Applications/ARM/arm-none-eabi/include/c++/10.3.1/bits/stl_algobase.h **** 	  return __result - _Num;
 693:/Applications/ARM/arm-none-eabi/include/c++/10.3.1/bits/stl_algobase.h **** 	}
 694:/Applications/ARM/arm-none-eabi/include/c++/10.3.1/bits/stl_algobase.h ****     };
 695:/Applications/ARM/arm-none-eabi/include/c++/10.3.1/bits/stl_algobase.h **** 
 696:/Applications/ARM/arm-none-eabi/include/c++/10.3.1/bits/stl_algobase.h ****   template<bool _IsMove, typename _BI1, typename _BI2>
 697:/Applications/ARM/arm-none-eabi/include/c++/10.3.1/bits/stl_algobase.h ****     _GLIBCXX20_CONSTEXPR
 698:/Applications/ARM/arm-none-eabi/include/c++/10.3.1/bits/stl_algobase.h ****     inline _BI2
 699:/Applications/ARM/arm-none-eabi/include/c++/10.3.1/bits/stl_algobase.h ****     __copy_move_backward_a2(_BI1 __first, _BI1 __last, _BI2 __result)
 700:/Applications/ARM/arm-none-eabi/include/c++/10.3.1/bits/stl_algobase.h ****     {
 701:/Applications/ARM/arm-none-eabi/include/c++/10.3.1/bits/stl_algobase.h ****       typedef typename iterator_traits<_BI1>::iterator_category _Category;
 702:/Applications/ARM/arm-none-eabi/include/c++/10.3.1/bits/stl_algobase.h **** #ifdef __cpp_lib_is_constant_evaluated
 703:/Applications/ARM/arm-none-eabi/include/c++/10.3.1/bits/stl_algobase.h ****       if (std::is_constant_evaluated())
 704:/Applications/ARM/arm-none-eabi/include/c++/10.3.1/bits/stl_algobase.h **** 	return std::__copy_move_backward<_IsMove, false, _Category>::
 705:/Applications/ARM/arm-none-eabi/include/c++/10.3.1/bits/stl_algobase.h **** 	  __copy_move_b(__first, __last, __result);
 706:/Applications/ARM/arm-none-eabi/include/c++/10.3.1/bits/stl_algobase.h **** #endif
 707:/Applications/ARM/arm-none-eabi/include/c++/10.3.1/bits/stl_algobase.h ****       return std::__copy_move_backward<_IsMove,
 708:/Applications/ARM/arm-none-eabi/include/c++/10.3.1/bits/stl_algobase.h **** 				       __memcpyable<_BI2, _BI1>::__value,
 709:/Applications/ARM/arm-none-eabi/include/c++/10.3.1/bits/stl_algobase.h **** 				       _Category>::__copy_move_b(__first,
 710:/Applications/ARM/arm-none-eabi/include/c++/10.3.1/bits/stl_algobase.h **** 								 __last,
 711:/Applications/ARM/arm-none-eabi/include/c++/10.3.1/bits/stl_algobase.h **** 								 __result);
 712:/Applications/ARM/arm-none-eabi/include/c++/10.3.1/bits/stl_algobase.h ****     }
 713:/Applications/ARM/arm-none-eabi/include/c++/10.3.1/bits/stl_algobase.h **** 
 714:/Applications/ARM/arm-none-eabi/include/c++/10.3.1/bits/stl_algobase.h ****   template<bool _IsMove, typename _BI1, typename _BI2>
 715:/Applications/ARM/arm-none-eabi/include/c++/10.3.1/bits/stl_algobase.h ****     _GLIBCXX20_CONSTEXPR
 716:/Applications/ARM/arm-none-eabi/include/c++/10.3.1/bits/stl_algobase.h ****     inline _BI2
 717:/Applications/ARM/arm-none-eabi/include/c++/10.3.1/bits/stl_algobase.h ****     __copy_move_backward_a1(_BI1 __first, _BI1 __last, _BI2 __result)
 718:/Applications/ARM/arm-none-eabi/include/c++/10.3.1/bits/stl_algobase.h ****     { return std::__copy_move_backward_a2<_IsMove>(__first, __last, __result); }
 719:/Applications/ARM/arm-none-eabi/include/c++/10.3.1/bits/stl_algobase.h **** 
 720:/Applications/ARM/arm-none-eabi/include/c++/10.3.1/bits/stl_algobase.h ****   template<bool _IsMove,
 721:/Applications/ARM/arm-none-eabi/include/c++/10.3.1/bits/stl_algobase.h **** 	   typename _Tp, typename _Ref, typename _Ptr, typename _OI>
 722:/Applications/ARM/arm-none-eabi/include/c++/10.3.1/bits/stl_algobase.h ****     _OI
 723:/Applications/ARM/arm-none-eabi/include/c++/10.3.1/bits/stl_algobase.h ****     __copy_move_backward_a1(_GLIBCXX_STD_C::_Deque_iterator<_Tp, _Ref, _Ptr>,
 724:/Applications/ARM/arm-none-eabi/include/c++/10.3.1/bits/stl_algobase.h **** 			    _GLIBCXX_STD_C::_Deque_iterator<_Tp, _Ref, _Ptr>,
 725:/Applications/ARM/arm-none-eabi/include/c++/10.3.1/bits/stl_algobase.h **** 			    _OI);
 726:/Applications/ARM/arm-none-eabi/include/c++/10.3.1/bits/stl_algobase.h **** 
 727:/Applications/ARM/arm-none-eabi/include/c++/10.3.1/bits/stl_algobase.h ****   template<bool _IsMove,
 728:/Applications/ARM/arm-none-eabi/include/c++/10.3.1/bits/stl_algobase.h **** 	   typename _ITp, typename _IRef, typename _IPtr, typename _OTp>
 729:/Applications/ARM/arm-none-eabi/include/c++/10.3.1/bits/stl_algobase.h ****     _GLIBCXX_STD_C::_Deque_iterator<_OTp, _OTp&, _OTp*>
 730:/Applications/ARM/arm-none-eabi/include/c++/10.3.1/bits/stl_algobase.h ****     __copy_move_backward_a1(
 731:/Applications/ARM/arm-none-eabi/include/c++/10.3.1/bits/stl_algobase.h **** 			_GLIBCXX_STD_C::_Deque_iterator<_ITp, _IRef, _IPtr>,
ARM GAS  /var/folders/z2/7_lhr9dn53s9tj4s0rwtyswm0000gn/T//ccJ9q3ms.s 			page 67


 732:/Applications/ARM/arm-none-eabi/include/c++/10.3.1/bits/stl_algobase.h **** 			_GLIBCXX_STD_C::_Deque_iterator<_ITp, _IRef, _IPtr>,
 733:/Applications/ARM/arm-none-eabi/include/c++/10.3.1/bits/stl_algobase.h **** 			_GLIBCXX_STD_C::_Deque_iterator<_OTp, _OTp&, _OTp*>);
 734:/Applications/ARM/arm-none-eabi/include/c++/10.3.1/bits/stl_algobase.h **** 
 735:/Applications/ARM/arm-none-eabi/include/c++/10.3.1/bits/stl_algobase.h ****   template<bool _IsMove, typename _II, typename _Tp>
 736:/Applications/ARM/arm-none-eabi/include/c++/10.3.1/bits/stl_algobase.h ****     typename __gnu_cxx::__enable_if<
 737:/Applications/ARM/arm-none-eabi/include/c++/10.3.1/bits/stl_algobase.h ****       __is_random_access_iter<_II>::__value,
 738:/Applications/ARM/arm-none-eabi/include/c++/10.3.1/bits/stl_algobase.h ****       _GLIBCXX_STD_C::_Deque_iterator<_Tp, _Tp&, _Tp*> >::__type
 739:/Applications/ARM/arm-none-eabi/include/c++/10.3.1/bits/stl_algobase.h ****     __copy_move_backward_a1(_II, _II,
 740:/Applications/ARM/arm-none-eabi/include/c++/10.3.1/bits/stl_algobase.h **** 			    _GLIBCXX_STD_C::_Deque_iterator<_Tp, _Tp&, _Tp*>);
 741:/Applications/ARM/arm-none-eabi/include/c++/10.3.1/bits/stl_algobase.h **** 
 742:/Applications/ARM/arm-none-eabi/include/c++/10.3.1/bits/stl_algobase.h ****   template<bool _IsMove, typename _II, typename _OI>
 743:/Applications/ARM/arm-none-eabi/include/c++/10.3.1/bits/stl_algobase.h ****     _GLIBCXX20_CONSTEXPR
 744:/Applications/ARM/arm-none-eabi/include/c++/10.3.1/bits/stl_algobase.h ****     inline _OI
 745:/Applications/ARM/arm-none-eabi/include/c++/10.3.1/bits/stl_algobase.h ****     __copy_move_backward_a(_II __first, _II __last, _OI __result)
 746:/Applications/ARM/arm-none-eabi/include/c++/10.3.1/bits/stl_algobase.h ****     {
 747:/Applications/ARM/arm-none-eabi/include/c++/10.3.1/bits/stl_algobase.h ****       return std::__niter_wrap(__result,
 748:/Applications/ARM/arm-none-eabi/include/c++/10.3.1/bits/stl_algobase.h **** 		std::__copy_move_backward_a1<_IsMove>
 749:/Applications/ARM/arm-none-eabi/include/c++/10.3.1/bits/stl_algobase.h **** 		  (std::__niter_base(__first), std::__niter_base(__last),
 750:/Applications/ARM/arm-none-eabi/include/c++/10.3.1/bits/stl_algobase.h **** 		   std::__niter_base(__result)));
 751:/Applications/ARM/arm-none-eabi/include/c++/10.3.1/bits/stl_algobase.h ****     }
 752:/Applications/ARM/arm-none-eabi/include/c++/10.3.1/bits/stl_algobase.h **** 
 753:/Applications/ARM/arm-none-eabi/include/c++/10.3.1/bits/stl_algobase.h ****   template<bool _IsMove,
 754:/Applications/ARM/arm-none-eabi/include/c++/10.3.1/bits/stl_algobase.h **** 	   typename _Ite, typename _Seq, typename _Cat, typename _OI>
 755:/Applications/ARM/arm-none-eabi/include/c++/10.3.1/bits/stl_algobase.h ****     _OI
 756:/Applications/ARM/arm-none-eabi/include/c++/10.3.1/bits/stl_algobase.h ****     __copy_move_backward_a(
 757:/Applications/ARM/arm-none-eabi/include/c++/10.3.1/bits/stl_algobase.h **** 		const ::__gnu_debug::_Safe_iterator<_Ite, _Seq, _Cat>&,
 758:/Applications/ARM/arm-none-eabi/include/c++/10.3.1/bits/stl_algobase.h **** 		const ::__gnu_debug::_Safe_iterator<_Ite, _Seq, _Cat>&,
 759:/Applications/ARM/arm-none-eabi/include/c++/10.3.1/bits/stl_algobase.h **** 		_OI);
 760:/Applications/ARM/arm-none-eabi/include/c++/10.3.1/bits/stl_algobase.h **** 
 761:/Applications/ARM/arm-none-eabi/include/c++/10.3.1/bits/stl_algobase.h ****   template<bool _IsMove,
 762:/Applications/ARM/arm-none-eabi/include/c++/10.3.1/bits/stl_algobase.h **** 	   typename _II, typename _Ite, typename _Seq, typename _Cat>
 763:/Applications/ARM/arm-none-eabi/include/c++/10.3.1/bits/stl_algobase.h ****     __gnu_debug::_Safe_iterator<_Ite, _Seq, _Cat>
 764:/Applications/ARM/arm-none-eabi/include/c++/10.3.1/bits/stl_algobase.h ****     __copy_move_backward_a(_II, _II,
 765:/Applications/ARM/arm-none-eabi/include/c++/10.3.1/bits/stl_algobase.h **** 		const ::__gnu_debug::_Safe_iterator<_Ite, _Seq, _Cat>&);
 766:/Applications/ARM/arm-none-eabi/include/c++/10.3.1/bits/stl_algobase.h **** 
 767:/Applications/ARM/arm-none-eabi/include/c++/10.3.1/bits/stl_algobase.h ****   template<bool _IsMove,
 768:/Applications/ARM/arm-none-eabi/include/c++/10.3.1/bits/stl_algobase.h **** 	   typename _IIte, typename _ISeq, typename _ICat,
 769:/Applications/ARM/arm-none-eabi/include/c++/10.3.1/bits/stl_algobase.h **** 	   typename _OIte, typename _OSeq, typename _OCat>
 770:/Applications/ARM/arm-none-eabi/include/c++/10.3.1/bits/stl_algobase.h ****     ::__gnu_debug::_Safe_iterator<_OIte, _OSeq, _OCat>
 771:/Applications/ARM/arm-none-eabi/include/c++/10.3.1/bits/stl_algobase.h ****     __copy_move_backward_a(
 772:/Applications/ARM/arm-none-eabi/include/c++/10.3.1/bits/stl_algobase.h **** 		const ::__gnu_debug::_Safe_iterator<_IIte, _ISeq, _ICat>&,
 773:/Applications/ARM/arm-none-eabi/include/c++/10.3.1/bits/stl_algobase.h **** 		const ::__gnu_debug::_Safe_iterator<_IIte, _ISeq, _ICat>&,
 774:/Applications/ARM/arm-none-eabi/include/c++/10.3.1/bits/stl_algobase.h **** 		const ::__gnu_debug::_Safe_iterator<_OIte, _OSeq, _OCat>&);
 775:/Applications/ARM/arm-none-eabi/include/c++/10.3.1/bits/stl_algobase.h **** 
 776:/Applications/ARM/arm-none-eabi/include/c++/10.3.1/bits/stl_algobase.h ****   /**
 777:/Applications/ARM/arm-none-eabi/include/c++/10.3.1/bits/stl_algobase.h ****    *  @brief Copies the range [first,last) into result.
 778:/Applications/ARM/arm-none-eabi/include/c++/10.3.1/bits/stl_algobase.h ****    *  @ingroup mutating_algorithms
 779:/Applications/ARM/arm-none-eabi/include/c++/10.3.1/bits/stl_algobase.h ****    *  @param  __first  A bidirectional iterator.
 780:/Applications/ARM/arm-none-eabi/include/c++/10.3.1/bits/stl_algobase.h ****    *  @param  __last   A bidirectional iterator.
 781:/Applications/ARM/arm-none-eabi/include/c++/10.3.1/bits/stl_algobase.h ****    *  @param  __result A bidirectional iterator.
 782:/Applications/ARM/arm-none-eabi/include/c++/10.3.1/bits/stl_algobase.h ****    *  @return   result - (last - first)
 783:/Applications/ARM/arm-none-eabi/include/c++/10.3.1/bits/stl_algobase.h ****    *
 784:/Applications/ARM/arm-none-eabi/include/c++/10.3.1/bits/stl_algobase.h ****    *  The function has the same effect as copy, but starts at the end of the
 785:/Applications/ARM/arm-none-eabi/include/c++/10.3.1/bits/stl_algobase.h ****    *  range and works its way to the start, returning the start of the result.
 786:/Applications/ARM/arm-none-eabi/include/c++/10.3.1/bits/stl_algobase.h ****    *  This inline function will boil down to a call to @c memmove whenever
 787:/Applications/ARM/arm-none-eabi/include/c++/10.3.1/bits/stl_algobase.h ****    *  possible.  Failing that, if random access iterators are passed, then the
 788:/Applications/ARM/arm-none-eabi/include/c++/10.3.1/bits/stl_algobase.h ****    *  loop count will be known (and therefore a candidate for compiler
ARM GAS  /var/folders/z2/7_lhr9dn53s9tj4s0rwtyswm0000gn/T//ccJ9q3ms.s 			page 68


 789:/Applications/ARM/arm-none-eabi/include/c++/10.3.1/bits/stl_algobase.h ****    *  optimizations such as unrolling).
 790:/Applications/ARM/arm-none-eabi/include/c++/10.3.1/bits/stl_algobase.h ****    *
 791:/Applications/ARM/arm-none-eabi/include/c++/10.3.1/bits/stl_algobase.h ****    *  Result may not be in the range (first,last].  Use copy instead.  Note
 792:/Applications/ARM/arm-none-eabi/include/c++/10.3.1/bits/stl_algobase.h ****    *  that the start of the output range may overlap [first,last).
 793:/Applications/ARM/arm-none-eabi/include/c++/10.3.1/bits/stl_algobase.h ****   */
 794:/Applications/ARM/arm-none-eabi/include/c++/10.3.1/bits/stl_algobase.h ****   template<typename _BI1, typename _BI2>
 795:/Applications/ARM/arm-none-eabi/include/c++/10.3.1/bits/stl_algobase.h ****     _GLIBCXX20_CONSTEXPR
 796:/Applications/ARM/arm-none-eabi/include/c++/10.3.1/bits/stl_algobase.h ****     inline _BI2
 797:/Applications/ARM/arm-none-eabi/include/c++/10.3.1/bits/stl_algobase.h ****     copy_backward(_BI1 __first, _BI1 __last, _BI2 __result)
 798:/Applications/ARM/arm-none-eabi/include/c++/10.3.1/bits/stl_algobase.h ****     {
 799:/Applications/ARM/arm-none-eabi/include/c++/10.3.1/bits/stl_algobase.h ****       // concept requirements
 800:/Applications/ARM/arm-none-eabi/include/c++/10.3.1/bits/stl_algobase.h ****       __glibcxx_function_requires(_BidirectionalIteratorConcept<_BI1>)
 801:/Applications/ARM/arm-none-eabi/include/c++/10.3.1/bits/stl_algobase.h ****       __glibcxx_function_requires(_Mutable_BidirectionalIteratorConcept<_BI2>)
 802:/Applications/ARM/arm-none-eabi/include/c++/10.3.1/bits/stl_algobase.h ****       __glibcxx_function_requires(_ConvertibleConcept<
 803:/Applications/ARM/arm-none-eabi/include/c++/10.3.1/bits/stl_algobase.h **** 	    typename iterator_traits<_BI1>::value_type,
 804:/Applications/ARM/arm-none-eabi/include/c++/10.3.1/bits/stl_algobase.h **** 	    typename iterator_traits<_BI2>::value_type>)
 805:/Applications/ARM/arm-none-eabi/include/c++/10.3.1/bits/stl_algobase.h ****       __glibcxx_requires_can_decrement_range(__first, __last, __result);
 806:/Applications/ARM/arm-none-eabi/include/c++/10.3.1/bits/stl_algobase.h **** 
 807:/Applications/ARM/arm-none-eabi/include/c++/10.3.1/bits/stl_algobase.h ****       return std::__copy_move_backward_a<__is_move_iterator<_BI1>::__value>
 808:/Applications/ARM/arm-none-eabi/include/c++/10.3.1/bits/stl_algobase.h **** 	     (std::__miter_base(__first), std::__miter_base(__last), __result);
 809:/Applications/ARM/arm-none-eabi/include/c++/10.3.1/bits/stl_algobase.h ****     }
 810:/Applications/ARM/arm-none-eabi/include/c++/10.3.1/bits/stl_algobase.h **** 
 811:/Applications/ARM/arm-none-eabi/include/c++/10.3.1/bits/stl_algobase.h **** #if __cplusplus >= 201103L
 812:/Applications/ARM/arm-none-eabi/include/c++/10.3.1/bits/stl_algobase.h ****   /**
 813:/Applications/ARM/arm-none-eabi/include/c++/10.3.1/bits/stl_algobase.h ****    *  @brief Moves the range [first,last) into result.
 814:/Applications/ARM/arm-none-eabi/include/c++/10.3.1/bits/stl_algobase.h ****    *  @ingroup mutating_algorithms
 815:/Applications/ARM/arm-none-eabi/include/c++/10.3.1/bits/stl_algobase.h ****    *  @param  __first  A bidirectional iterator.
 816:/Applications/ARM/arm-none-eabi/include/c++/10.3.1/bits/stl_algobase.h ****    *  @param  __last   A bidirectional iterator.
 817:/Applications/ARM/arm-none-eabi/include/c++/10.3.1/bits/stl_algobase.h ****    *  @param  __result A bidirectional iterator.
 818:/Applications/ARM/arm-none-eabi/include/c++/10.3.1/bits/stl_algobase.h ****    *  @return   result - (last - first)
 819:/Applications/ARM/arm-none-eabi/include/c++/10.3.1/bits/stl_algobase.h ****    *
 820:/Applications/ARM/arm-none-eabi/include/c++/10.3.1/bits/stl_algobase.h ****    *  The function has the same effect as move, but starts at the end of the
 821:/Applications/ARM/arm-none-eabi/include/c++/10.3.1/bits/stl_algobase.h ****    *  range and works its way to the start, returning the start of the result.
 822:/Applications/ARM/arm-none-eabi/include/c++/10.3.1/bits/stl_algobase.h ****    *  This inline function will boil down to a call to @c memmove whenever
 823:/Applications/ARM/arm-none-eabi/include/c++/10.3.1/bits/stl_algobase.h ****    *  possible.  Failing that, if random access iterators are passed, then the
 824:/Applications/ARM/arm-none-eabi/include/c++/10.3.1/bits/stl_algobase.h ****    *  loop count will be known (and therefore a candidate for compiler
 825:/Applications/ARM/arm-none-eabi/include/c++/10.3.1/bits/stl_algobase.h ****    *  optimizations such as unrolling).
 826:/Applications/ARM/arm-none-eabi/include/c++/10.3.1/bits/stl_algobase.h ****    *
 827:/Applications/ARM/arm-none-eabi/include/c++/10.3.1/bits/stl_algobase.h ****    *  Result may not be in the range (first,last].  Use move instead.  Note
 828:/Applications/ARM/arm-none-eabi/include/c++/10.3.1/bits/stl_algobase.h ****    *  that the start of the output range may overlap [first,last).
 829:/Applications/ARM/arm-none-eabi/include/c++/10.3.1/bits/stl_algobase.h ****   */
 830:/Applications/ARM/arm-none-eabi/include/c++/10.3.1/bits/stl_algobase.h ****   template<typename _BI1, typename _BI2>
 831:/Applications/ARM/arm-none-eabi/include/c++/10.3.1/bits/stl_algobase.h ****     _GLIBCXX20_CONSTEXPR
 832:/Applications/ARM/arm-none-eabi/include/c++/10.3.1/bits/stl_algobase.h ****     inline _BI2
 833:/Applications/ARM/arm-none-eabi/include/c++/10.3.1/bits/stl_algobase.h ****     move_backward(_BI1 __first, _BI1 __last, _BI2 __result)
 834:/Applications/ARM/arm-none-eabi/include/c++/10.3.1/bits/stl_algobase.h ****     {
 835:/Applications/ARM/arm-none-eabi/include/c++/10.3.1/bits/stl_algobase.h ****       // concept requirements
 836:/Applications/ARM/arm-none-eabi/include/c++/10.3.1/bits/stl_algobase.h ****       __glibcxx_function_requires(_BidirectionalIteratorConcept<_BI1>)
 837:/Applications/ARM/arm-none-eabi/include/c++/10.3.1/bits/stl_algobase.h ****       __glibcxx_function_requires(_Mutable_BidirectionalIteratorConcept<_BI2>)
 838:/Applications/ARM/arm-none-eabi/include/c++/10.3.1/bits/stl_algobase.h ****       __glibcxx_function_requires(_ConvertibleConcept<
 839:/Applications/ARM/arm-none-eabi/include/c++/10.3.1/bits/stl_algobase.h **** 	    typename iterator_traits<_BI1>::value_type,
 840:/Applications/ARM/arm-none-eabi/include/c++/10.3.1/bits/stl_algobase.h **** 	    typename iterator_traits<_BI2>::value_type>)
 841:/Applications/ARM/arm-none-eabi/include/c++/10.3.1/bits/stl_algobase.h ****       __glibcxx_requires_can_decrement_range(__first, __last, __result);
 842:/Applications/ARM/arm-none-eabi/include/c++/10.3.1/bits/stl_algobase.h **** 
 843:/Applications/ARM/arm-none-eabi/include/c++/10.3.1/bits/stl_algobase.h ****       return std::__copy_move_backward_a<true>(std::__miter_base(__first),
 844:/Applications/ARM/arm-none-eabi/include/c++/10.3.1/bits/stl_algobase.h **** 					       std::__miter_base(__last),
 845:/Applications/ARM/arm-none-eabi/include/c++/10.3.1/bits/stl_algobase.h **** 					       __result);
ARM GAS  /var/folders/z2/7_lhr9dn53s9tj4s0rwtyswm0000gn/T//ccJ9q3ms.s 			page 69


 846:/Applications/ARM/arm-none-eabi/include/c++/10.3.1/bits/stl_algobase.h ****     }
 847:/Applications/ARM/arm-none-eabi/include/c++/10.3.1/bits/stl_algobase.h **** 
 848:/Applications/ARM/arm-none-eabi/include/c++/10.3.1/bits/stl_algobase.h **** #define _GLIBCXX_MOVE_BACKWARD3(_Tp, _Up, _Vp) std::move_backward(_Tp, _Up, _Vp)
 849:/Applications/ARM/arm-none-eabi/include/c++/10.3.1/bits/stl_algobase.h **** #else
 850:/Applications/ARM/arm-none-eabi/include/c++/10.3.1/bits/stl_algobase.h **** #define _GLIBCXX_MOVE_BACKWARD3(_Tp, _Up, _Vp) std::copy_backward(_Tp, _Up, _Vp)
 851:/Applications/ARM/arm-none-eabi/include/c++/10.3.1/bits/stl_algobase.h **** #endif
 852:/Applications/ARM/arm-none-eabi/include/c++/10.3.1/bits/stl_algobase.h **** 
 853:/Applications/ARM/arm-none-eabi/include/c++/10.3.1/bits/stl_algobase.h ****   template<typename _ForwardIterator, typename _Tp>
 854:/Applications/ARM/arm-none-eabi/include/c++/10.3.1/bits/stl_algobase.h ****     _GLIBCXX20_CONSTEXPR
 855:/Applications/ARM/arm-none-eabi/include/c++/10.3.1/bits/stl_algobase.h ****     inline typename
 856:/Applications/ARM/arm-none-eabi/include/c++/10.3.1/bits/stl_algobase.h ****     __gnu_cxx::__enable_if<!__is_scalar<_Tp>::__value, void>::__type
 857:/Applications/ARM/arm-none-eabi/include/c++/10.3.1/bits/stl_algobase.h ****     __fill_a1(_ForwardIterator __first, _ForwardIterator __last,
 858:/Applications/ARM/arm-none-eabi/include/c++/10.3.1/bits/stl_algobase.h **** 	      const _Tp& __value)
 859:/Applications/ARM/arm-none-eabi/include/c++/10.3.1/bits/stl_algobase.h ****     {
 860:/Applications/ARM/arm-none-eabi/include/c++/10.3.1/bits/stl_algobase.h ****       for (; __first != __last; ++__first)
 861:/Applications/ARM/arm-none-eabi/include/c++/10.3.1/bits/stl_algobase.h **** 	*__first = __value;
 862:/Applications/ARM/arm-none-eabi/include/c++/10.3.1/bits/stl_algobase.h ****     }
 863:/Applications/ARM/arm-none-eabi/include/c++/10.3.1/bits/stl_algobase.h **** 
 864:/Applications/ARM/arm-none-eabi/include/c++/10.3.1/bits/stl_algobase.h ****   template<typename _ForwardIterator, typename _Tp>
 865:/Applications/ARM/arm-none-eabi/include/c++/10.3.1/bits/stl_algobase.h ****     _GLIBCXX20_CONSTEXPR
 866:/Applications/ARM/arm-none-eabi/include/c++/10.3.1/bits/stl_algobase.h ****     inline typename
 867:/Applications/ARM/arm-none-eabi/include/c++/10.3.1/bits/stl_algobase.h ****     __gnu_cxx::__enable_if<__is_scalar<_Tp>::__value, void>::__type
 868:/Applications/ARM/arm-none-eabi/include/c++/10.3.1/bits/stl_algobase.h ****     __fill_a1(_ForwardIterator __first, _ForwardIterator __last,
 869:/Applications/ARM/arm-none-eabi/include/c++/10.3.1/bits/stl_algobase.h **** 	      const _Tp& __value)
 870:/Applications/ARM/arm-none-eabi/include/c++/10.3.1/bits/stl_algobase.h ****     {
 871:/Applications/ARM/arm-none-eabi/include/c++/10.3.1/bits/stl_algobase.h ****       const _Tp __tmp = __value;
 872:/Applications/ARM/arm-none-eabi/include/c++/10.3.1/bits/stl_algobase.h ****       for (; __first != __last; ++__first)
 873:/Applications/ARM/arm-none-eabi/include/c++/10.3.1/bits/stl_algobase.h **** 	*__first = __tmp;
 874:/Applications/ARM/arm-none-eabi/include/c++/10.3.1/bits/stl_algobase.h ****     }
 875:/Applications/ARM/arm-none-eabi/include/c++/10.3.1/bits/stl_algobase.h **** 
 876:/Applications/ARM/arm-none-eabi/include/c++/10.3.1/bits/stl_algobase.h ****   // Specialization: for char types we can use memset.
 877:/Applications/ARM/arm-none-eabi/include/c++/10.3.1/bits/stl_algobase.h ****   template<typename _Tp>
 878:/Applications/ARM/arm-none-eabi/include/c++/10.3.1/bits/stl_algobase.h ****     _GLIBCXX20_CONSTEXPR
 879:/Applications/ARM/arm-none-eabi/include/c++/10.3.1/bits/stl_algobase.h ****     inline typename
 880:/Applications/ARM/arm-none-eabi/include/c++/10.3.1/bits/stl_algobase.h ****     __gnu_cxx::__enable_if<__is_byte<_Tp>::__value, void>::__type
 881:/Applications/ARM/arm-none-eabi/include/c++/10.3.1/bits/stl_algobase.h ****     __fill_a1(_Tp* __first, _Tp* __last, const _Tp& __c)
 882:/Applications/ARM/arm-none-eabi/include/c++/10.3.1/bits/stl_algobase.h ****     {
 883:/Applications/ARM/arm-none-eabi/include/c++/10.3.1/bits/stl_algobase.h ****       const _Tp __tmp = __c;
 884:/Applications/ARM/arm-none-eabi/include/c++/10.3.1/bits/stl_algobase.h **** #if __cpp_lib_is_constant_evaluated
 885:/Applications/ARM/arm-none-eabi/include/c++/10.3.1/bits/stl_algobase.h ****       if (std::is_constant_evaluated())
 886:/Applications/ARM/arm-none-eabi/include/c++/10.3.1/bits/stl_algobase.h **** 	{
 887:/Applications/ARM/arm-none-eabi/include/c++/10.3.1/bits/stl_algobase.h **** 	  for (; __first != __last; ++__first)
 888:/Applications/ARM/arm-none-eabi/include/c++/10.3.1/bits/stl_algobase.h **** 	    *__first = __tmp;
 889:/Applications/ARM/arm-none-eabi/include/c++/10.3.1/bits/stl_algobase.h **** 	  return;
 890:/Applications/ARM/arm-none-eabi/include/c++/10.3.1/bits/stl_algobase.h **** 	}
 891:/Applications/ARM/arm-none-eabi/include/c++/10.3.1/bits/stl_algobase.h **** #endif
 892:/Applications/ARM/arm-none-eabi/include/c++/10.3.1/bits/stl_algobase.h ****       if (const size_t __len = __last - __first)
 893:/Applications/ARM/arm-none-eabi/include/c++/10.3.1/bits/stl_algobase.h **** 	__builtin_memset(__first, static_cast<unsigned char>(__tmp), __len);
 894:/Applications/ARM/arm-none-eabi/include/c++/10.3.1/bits/stl_algobase.h ****     }
 895:/Applications/ARM/arm-none-eabi/include/c++/10.3.1/bits/stl_algobase.h **** 
 896:/Applications/ARM/arm-none-eabi/include/c++/10.3.1/bits/stl_algobase.h ****   template<typename _Ite, typename _Cont, typename _Tp>
 897:/Applications/ARM/arm-none-eabi/include/c++/10.3.1/bits/stl_algobase.h ****     _GLIBCXX20_CONSTEXPR
 898:/Applications/ARM/arm-none-eabi/include/c++/10.3.1/bits/stl_algobase.h ****     inline void
 899:/Applications/ARM/arm-none-eabi/include/c++/10.3.1/bits/stl_algobase.h ****     __fill_a1(::__gnu_cxx::__normal_iterator<_Ite, _Cont> __first,
 900:/Applications/ARM/arm-none-eabi/include/c++/10.3.1/bits/stl_algobase.h **** 	      ::__gnu_cxx::__normal_iterator<_Ite, _Cont> __last,
 901:/Applications/ARM/arm-none-eabi/include/c++/10.3.1/bits/stl_algobase.h **** 	      const _Tp& __value)
 902:/Applications/ARM/arm-none-eabi/include/c++/10.3.1/bits/stl_algobase.h ****     { std::__fill_a1(__first.base(), __last.base(), __value); }
ARM GAS  /var/folders/z2/7_lhr9dn53s9tj4s0rwtyswm0000gn/T//ccJ9q3ms.s 			page 70


 903:/Applications/ARM/arm-none-eabi/include/c++/10.3.1/bits/stl_algobase.h **** 
 904:/Applications/ARM/arm-none-eabi/include/c++/10.3.1/bits/stl_algobase.h ****   template<typename _Tp, typename _VTp>
 905:/Applications/ARM/arm-none-eabi/include/c++/10.3.1/bits/stl_algobase.h ****     void
 906:/Applications/ARM/arm-none-eabi/include/c++/10.3.1/bits/stl_algobase.h ****     __fill_a1(const _GLIBCXX_STD_C::_Deque_iterator<_Tp, _Tp&, _Tp*>&,
 907:/Applications/ARM/arm-none-eabi/include/c++/10.3.1/bits/stl_algobase.h **** 	      const _GLIBCXX_STD_C::_Deque_iterator<_Tp, _Tp&, _Tp*>&,
 908:/Applications/ARM/arm-none-eabi/include/c++/10.3.1/bits/stl_algobase.h **** 	      const _VTp&);
 909:/Applications/ARM/arm-none-eabi/include/c++/10.3.1/bits/stl_algobase.h **** 
 910:/Applications/ARM/arm-none-eabi/include/c++/10.3.1/bits/stl_algobase.h ****   template<typename _FIte, typename _Tp>
 911:/Applications/ARM/arm-none-eabi/include/c++/10.3.1/bits/stl_algobase.h ****     _GLIBCXX20_CONSTEXPR
 912:/Applications/ARM/arm-none-eabi/include/c++/10.3.1/bits/stl_algobase.h ****     inline void
 913:/Applications/ARM/arm-none-eabi/include/c++/10.3.1/bits/stl_algobase.h ****     __fill_a(_FIte __first, _FIte __last, const _Tp& __value)
 914:/Applications/ARM/arm-none-eabi/include/c++/10.3.1/bits/stl_algobase.h ****     { std::__fill_a1(__first, __last, __value); }
 915:/Applications/ARM/arm-none-eabi/include/c++/10.3.1/bits/stl_algobase.h **** 
 916:/Applications/ARM/arm-none-eabi/include/c++/10.3.1/bits/stl_algobase.h ****   template<typename _Ite, typename _Seq, typename _Cat, typename _Tp>
 917:/Applications/ARM/arm-none-eabi/include/c++/10.3.1/bits/stl_algobase.h ****     void
 918:/Applications/ARM/arm-none-eabi/include/c++/10.3.1/bits/stl_algobase.h ****     __fill_a(const ::__gnu_debug::_Safe_iterator<_Ite, _Seq, _Cat>&,
 919:/Applications/ARM/arm-none-eabi/include/c++/10.3.1/bits/stl_algobase.h **** 	     const ::__gnu_debug::_Safe_iterator<_Ite, _Seq, _Cat>&,
 920:/Applications/ARM/arm-none-eabi/include/c++/10.3.1/bits/stl_algobase.h **** 	     const _Tp&);
 921:/Applications/ARM/arm-none-eabi/include/c++/10.3.1/bits/stl_algobase.h **** 
 922:/Applications/ARM/arm-none-eabi/include/c++/10.3.1/bits/stl_algobase.h ****   /**
 923:/Applications/ARM/arm-none-eabi/include/c++/10.3.1/bits/stl_algobase.h ****    *  @brief Fills the range [first,last) with copies of value.
 924:/Applications/ARM/arm-none-eabi/include/c++/10.3.1/bits/stl_algobase.h ****    *  @ingroup mutating_algorithms
 925:/Applications/ARM/arm-none-eabi/include/c++/10.3.1/bits/stl_algobase.h ****    *  @param  __first  A forward iterator.
 926:/Applications/ARM/arm-none-eabi/include/c++/10.3.1/bits/stl_algobase.h ****    *  @param  __last   A forward iterator.
 927:/Applications/ARM/arm-none-eabi/include/c++/10.3.1/bits/stl_algobase.h ****    *  @param  __value  A reference-to-const of arbitrary type.
 928:/Applications/ARM/arm-none-eabi/include/c++/10.3.1/bits/stl_algobase.h ****    *  @return   Nothing.
 929:/Applications/ARM/arm-none-eabi/include/c++/10.3.1/bits/stl_algobase.h ****    *
 930:/Applications/ARM/arm-none-eabi/include/c++/10.3.1/bits/stl_algobase.h ****    *  This function fills a range with copies of the same value.  For char
 931:/Applications/ARM/arm-none-eabi/include/c++/10.3.1/bits/stl_algobase.h ****    *  types filling contiguous areas of memory, this becomes an inline call
 932:/Applications/ARM/arm-none-eabi/include/c++/10.3.1/bits/stl_algobase.h ****    *  to @c memset or @c wmemset.
 933:/Applications/ARM/arm-none-eabi/include/c++/10.3.1/bits/stl_algobase.h ****   */
 934:/Applications/ARM/arm-none-eabi/include/c++/10.3.1/bits/stl_algobase.h ****   template<typename _ForwardIterator, typename _Tp>
 935:/Applications/ARM/arm-none-eabi/include/c++/10.3.1/bits/stl_algobase.h ****     _GLIBCXX20_CONSTEXPR
 936:/Applications/ARM/arm-none-eabi/include/c++/10.3.1/bits/stl_algobase.h ****     inline void
 937:/Applications/ARM/arm-none-eabi/include/c++/10.3.1/bits/stl_algobase.h ****     fill(_ForwardIterator __first, _ForwardIterator __last, const _Tp& __value)
 1265              		.loc 18 937 5 is_stmt 1 view .LVU355
 1266              	.LBB575:
 1267              	.LBI575:
 913:/Applications/ARM/arm-none-eabi/include/c++/10.3.1/bits/stl_algobase.h ****     { std::__fill_a1(__first, __last, __value); }
 1268              		.loc 18 913 5 view .LVU356
 1269              	.LBB576:
 1270              	.LBI576:
 868:/Applications/ARM/arm-none-eabi/include/c++/10.3.1/bits/stl_algobase.h **** 	      const _Tp& __value)
 1271              		.loc 18 868 5 view .LVU357
 1272              	.LBB577:
 872:/Applications/ARM/arm-none-eabi/include/c++/10.3.1/bits/stl_algobase.h **** 	*__first = __tmp;
 1273              		.loc 18 872 22 view .LVU358
 1274 0002 00F12801 		add	r1, r0, #40
 1275              	.LVL75:
 872:/Applications/ARM/arm-none-eabi/include/c++/10.3.1/bits/stl_algobase.h **** 	*__first = __tmp;
 1276              		.loc 18 872 22 is_stmt 0 view .LVU359
 1277              	.LBE577:
 1278              	.LBE576:
 1279              	.LBE575:
 1280              	.LBE574:
 1281              	.LBB581:
 1282              	.LBB573:
ARM GAS  /var/folders/z2/7_lhr9dn53s9tj4s0rwtyswm0000gn/T//ccJ9q3ms.s 			page 71


 1283              	.LBB572:
 1284              		.loc 16 235 33 view .LVU360
 1285 0006 0246     		mov	r2, r0
 1286              	.LVL76:
 1287              	.L36:
 1288              		.loc 16 235 33 view .LVU361
 1289              	.LBE572:
 1290              	.LBE573:
 1291              	.LBE581:
 1292              	.LBB582:
 1293              	.LBB580:
 1294              	.LBB579:
 1295              	.LBB578:
 873:/Applications/ARM/arm-none-eabi/include/c++/10.3.1/bits/stl_algobase.h ****     }
 1296              		.loc 18 873 11 view .LVU362
 1297 0008 4FF07E5C 		mov	ip, #1065353216
 1298 000c 42F804CB 		str	ip, [r2], #4	@ float
 1299              	.LVL77:
 872:/Applications/ARM/arm-none-eabi/include/c++/10.3.1/bits/stl_algobase.h **** 	*__first = __tmp;
 1300              		.loc 18 872 7 is_stmt 1 view .LVU363
 872:/Applications/ARM/arm-none-eabi/include/c++/10.3.1/bits/stl_algobase.h **** 	*__first = __tmp;
 1301              		.loc 18 872 22 view .LVU364
 1302 0010 8A42     		cmp	r2, r1
 1303 0012 F9D1     		bne	.L36
 1304 0014 DFED057A 		vldr.32	s15, .L40
 1305              	.LVL78:
 1306              	.L37:
 872:/Applications/ARM/arm-none-eabi/include/c++/10.3.1/bits/stl_algobase.h **** 	*__first = __tmp;
 1307              		.loc 18 872 22 is_stmt 0 view .LVU365
 1308              	.LBE578:
 1309              	.LBE579:
 1310              	.LBE580:
 1311              	.LBE582:
 1312              	.LBB583:
 1313              	.LBB584:
 1314              		.loc 17 141 9 view .LVU366
 1315 0018 B3EC017A 		vldmia.32	r3!, {s14}
 1316              	.LVL79:
 140:/Applications/ARM/arm-none-eabi/include/c++/10.3.1/bits/stl_numeric.h **** 	__init = _GLIBCXX_MOVE_IF_20(__init) + *__first;
 1317              		.loc 17 140 22 view .LVU367
 1318 001c 8B42     		cmp	r3, r1
 1319              		.loc 17 141 9 view .LVU368
 1320 001e 77EE877A 		vadd.f32	s15, s15, s14
 1321              	.LVL80:
 140:/Applications/ARM/arm-none-eabi/include/c++/10.3.1/bits/stl_numeric.h **** 	__init = _GLIBCXX_MOVE_IF_20(__init) + *__first;
 1322              		.loc 17 140 7 is_stmt 1 view .LVU369
 140:/Applications/ARM/arm-none-eabi/include/c++/10.3.1/bits/stl_numeric.h **** 	__init = _GLIBCXX_MOVE_IF_20(__init) + *__first;
 1323              		.loc 17 140 22 view .LVU370
 1324 0022 F9D1     		bne	.L37
 1325              	.LVL81:
 140:/Applications/ARM/arm-none-eabi/include/c++/10.3.1/bits/stl_numeric.h **** 	__init = _GLIBCXX_MOVE_IF_20(__init) + *__first;
 1326              		.loc 17 140 22 is_stmt 0 view .LVU371
 1327              	.LBE584:
 1328              	.LBE583:
  77:shaper.h      ****     }
 1329              		.loc 14 77 19 view .LVU372
 1330 0024 C0ED0A7A 		vstr.32	s15, [r0, #40]
ARM GAS  /var/folders/z2/7_lhr9dn53s9tj4s0rwtyswm0000gn/T//ccJ9q3ms.s 			page 72


  78:shaper.h      **** 
 1331              		.loc 14 78 5 view .LVU373
 1332 0028 7047     		bx	lr
 1333              	.L41:
 1334 002a 00BF     		.align	2
 1335              	.L40:
 1336 002c 00000000 		.word	0
 1337              		.cfi_endproc
 1338              	.LFE5097:
 1340              		.section	.text.startup.main,"ax",%progbits
 1341              		.align	1
 1342              		.p2align 2,,3
 1343              		.global	main
 1344              		.syntax unified
 1345              		.thumb
 1346              		.thumb_func
 1348              	main:
 1349              	.LFB4784:
  81:chebyshev.cpp **** 
  82:chebyshev.cpp **** int main(void)
  83:chebyshev.cpp **** {
 1350              		.loc 13 83 1 is_stmt 1 view -0
 1351              		.cfi_startproc
 1352              		@ args = 0, pretend = 0, frame = 0
 1353              		@ frame_needed = 0, uses_anonymous_args = 0
  84:chebyshev.cpp ****     hw.Init();
 1354              		.loc 13 84 5 view .LVU375
  83:chebyshev.cpp ****     hw.Init();
 1355              		.loc 13 83 1 is_stmt 0 view .LVU376
 1356 0000 70B5     		push	{r4, r5, r6, lr}
 1357              		.cfi_def_cfa_offset 16
 1358              		.cfi_offset 4, -16
 1359              		.cfi_offset 5, -12
 1360              		.cfi_offset 6, -8
 1361              		.cfi_offset 14, -4
 1362              		.loc 13 84 12 view .LVU377
 1363 0002 0021     		movs	r1, #0
 1364 0004 3248     		ldr	r0, .L47+8
 1365 0006 FFF7FEFF 		bl	_ZN5daisy10Tusenskona4InitEb
 1366              	.LVL82:
  85:chebyshev.cpp ****     hw.SetAudioBlockSize(48); // number of samples handled per callback
 1367              		.loc 13 85 5 is_stmt 1 view .LVU378
 1368              		.loc 13 85 25 is_stmt 0 view .LVU379
 1369 000a 3021     		movs	r1, #48
 1370 000c 3048     		ldr	r0, .L47+8
 1371              	.LBB595:
 1372              	.LBB596:
  57:../..//DaisySP//Source/Synthesis/oscillator.h ****         phase_inc_ = CalcPhaseInc(freq_);
 1373              		.loc 12 57 20 view .LVU380
 1374 000e 0025     		movs	r5, #0
 1375              	.LBE596:
 1376              	.LBE595:
 1377              		.loc 13 85 25 view .LVU381
 1378 0010 FFF7FEFF 		bl	_ZN5daisy10Tusenskona17SetAudioBlockSizeEj
 1379              	.LVL83:
  86:chebyshev.cpp ****     hw.SetAudioSampleRate(SaiHandle::Config::SampleRate::SAI_48KHZ);
 1380              		.loc 13 86 5 is_stmt 1 view .LVU382
ARM GAS  /var/folders/z2/7_lhr9dn53s9tj4s0rwtyswm0000gn/T//ccJ9q3ms.s 			page 73


 1381              		.loc 13 86 26 is_stmt 0 view .LVU383
 1382 0014 0321     		movs	r1, #3
 1383 0016 2E48     		ldr	r0, .L47+8
 1384              	.LBB601:
 1385              	.LBB597:
  59:../..//DaisySP//Source/Synthesis/oscillator.h ****         eoc_       = true;
 1386              		.loc 12 59 20 view .LVU384
 1387 0018 0024     		movs	r4, #0
 1388              	.LBE597:
 1389              	.LBE601:
 1390              		.loc 13 86 26 view .LVU385
 1391 001a FFF7FEFF 		bl	_ZN5daisy10Tusenskona18SetAudioSampleRateENS_9SaiHandle6Config10SampleRateE
 1392              	.LVL84:
  87:chebyshev.cpp ****     shaper.init();
 1393              		.loc 13 87 5 is_stmt 1 view .LVU386
 1394              		.loc 13 87 16 is_stmt 0 view .LVU387
 1395 001e 2D48     		ldr	r0, .L47+12
 1396              	.LBB602:
 1397              	.LBB598:
  52:../..//DaisySP//Source/Synthesis/oscillator.h ****         sr_recip_  = 1.0f / sample_rate;
 1398              		.loc 12 52 20 view .LVU388
 1399 0020 2D4E     		ldr	r6, .L47+16
 1400              	.LBE598:
 1401              	.LBE602:
 1402              		.loc 13 87 16 view .LVU389
 1403 0022 FFF7FEFF 		bl	_ZN7daisysp6ShaperILj512EE4initEv
 1404              	.LVL85:
  88:chebyshev.cpp ****     shaper2.init();
 1405              		.loc 13 88 5 is_stmt 1 view .LVU390
 1406              		.loc 13 88 17 is_stmt 0 view .LVU391
 1407 0026 2D48     		ldr	r0, .L47+20
 1408 0028 FFF7FEFF 		bl	_ZN7daisysp6ShaperILj512EE4initEv
 1409              	.LVL86:
  89:chebyshev.cpp ****     sine.Init(48000);
 1410              		.loc 13 89 5 is_stmt 1 view .LVU392
 1411              	.LBB603:
 1412              	.LBI595:
  50:../..//DaisySP//Source/Synthesis/oscillator.h ****     {
 1413              		.loc 12 50 10 view .LVU393
 1414              	.LBB599:
  52:../..//DaisySP//Source/Synthesis/oscillator.h ****         sr_recip_  = 1.0f / sample_rate;
 1415              		.loc 12 52 9 view .LVU394
  55:../..//DaisySP//Source/Synthesis/oscillator.h ****         pw_        = 0.5f;
 1416              		.loc 12 55 20 is_stmt 0 view .LVU395
 1417 002c 4FF07C53 		mov	r3, #1056964608
  52:../..//DaisySP//Source/Synthesis/oscillator.h ****         sr_recip_  = 1.0f / sample_rate;
 1418              		.loc 12 52 20 view .LVU396
 1419 0030 2B49     		ldr	r1, .L47+24
  58:../..//DaisySP//Source/Synthesis/oscillator.h ****         waveform_  = WAVE_SIN;
 1420              		.loc 12 58 34 view .LVU397
 1421 0032 3046     		mov	r0, r6
  53:../..//DaisySP//Source/Synthesis/oscillator.h ****         freq_      = 100.0f;
 1422              		.loc 12 53 20 view .LVU398
 1423 0034 2B4A     		ldr	r2, .L47+28
  54:../..//DaisySP//Source/Synthesis/oscillator.h ****         amp_       = 0.5f;
 1424              		.loc 12 54 20 view .LVU399
 1425 0036 9FED2C0A 		vldr.32	s0, .L47+32
ARM GAS  /var/folders/z2/7_lhr9dn53s9tj4s0rwtyswm0000gn/T//ccJ9q3ms.s 			page 74


  57:../..//DaisySP//Source/Synthesis/oscillator.h ****         phase_inc_ = CalcPhaseInc(freq_);
 1426              		.loc 12 57 20 view .LVU400
 1427 003a B561     		str	r5, [r6, #24]	@ float
  52:../..//DaisySP//Source/Synthesis/oscillator.h ****         sr_recip_  = 1.0f / sample_rate;
 1428              		.loc 12 52 20 view .LVU401
 1429 003c 3161     		str	r1, [r6, #16]	@ float
  53:../..//DaisySP//Source/Synthesis/oscillator.h ****         freq_      = 100.0f;
 1430              		.loc 12 53 9 is_stmt 1 view .LVU402
  53:../..//DaisySP//Source/Synthesis/oscillator.h ****         freq_      = 100.0f;
 1431              		.loc 12 53 20 is_stmt 0 view .LVU403
 1432 003e 7261     		str	r2, [r6, #20]	@ float
  54:../..//DaisySP//Source/Synthesis/oscillator.h ****         amp_       = 0.5f;
 1433              		.loc 12 54 9 is_stmt 1 view .LVU404
  55:../..//DaisySP//Source/Synthesis/oscillator.h ****         pw_        = 0.5f;
 1434              		.loc 12 55 20 is_stmt 0 view .LVU405
 1435 0040 7360     		str	r3, [r6, #4]	@ float
  56:../..//DaisySP//Source/Synthesis/oscillator.h ****         phase_     = 0.0f;
 1436              		.loc 12 56 20 view .LVU406
 1437 0042 F360     		str	r3, [r6, #12]	@ float
  54:../..//DaisySP//Source/Synthesis/oscillator.h ****         amp_       = 0.5f;
 1438              		.loc 12 54 20 view .LVU407
 1439 0044 86ED020A 		vstr.32	s0, [r6, #8]
  55:../..//DaisySP//Source/Synthesis/oscillator.h ****         pw_        = 0.5f;
 1440              		.loc 12 55 9 is_stmt 1 view .LVU408
  56:../..//DaisySP//Source/Synthesis/oscillator.h ****         phase_     = 0.0f;
 1441              		.loc 12 56 9 view .LVU409
  57:../..//DaisySP//Source/Synthesis/oscillator.h ****         phase_inc_ = CalcPhaseInc(freq_);
 1442              		.loc 12 57 9 view .LVU410
  58:../..//DaisySP//Source/Synthesis/oscillator.h ****         waveform_  = WAVE_SIN;
 1443              		.loc 12 58 9 view .LVU411
  58:../..//DaisySP//Source/Synthesis/oscillator.h ****         waveform_  = WAVE_SIN;
 1444              		.loc 12 58 34 is_stmt 0 view .LVU412
 1445 0048 FFF7FEFF 		bl	_ZN7daisysp10Oscillator12CalcPhaseIncEf
 1446              	.LVL87:
 1447 004c F0EE407A 		vmov.f32	s15, s0
  61:../..//DaisySP//Source/Synthesis/oscillator.h ****     }
 1448              		.loc 12 61 20 view .LVU413
 1449 0050 40F20113 		movw	r3, #257
 1450              	.LBE599:
 1451              	.LBE603:
 1452              	.LBB604:
 1453              	.LBB605:
  69:../..//DaisySP//Source/Synthesis/oscillator.h ****         phase_inc_ = CalcPhaseInc(f);
 1454              		.loc 12 69 20 view .LVU414
 1455 0054 9FED250A 		vldr.32	s0, .L47+36
 1456              		.loc 12 70 34 view .LVU415
 1457 0058 3046     		mov	r0, r6
 1458              	.LBE605:
 1459              	.LBE604:
 1460              	.LBB608:
 1461              	.LBB600:
  61:../..//DaisySP//Source/Synthesis/oscillator.h ****     }
 1462              		.loc 12 61 20 view .LVU416
 1463 005a 3385     		strh	r3, [r6, #40]	@ movhi
  58:../..//DaisySP//Source/Synthesis/oscillator.h ****         waveform_  = WAVE_SIN;
 1464              		.loc 12 58 20 view .LVU417
 1465 005c C6ED077A 		vstr.32	s15, [r6, #28]
ARM GAS  /var/folders/z2/7_lhr9dn53s9tj4s0rwtyswm0000gn/T//ccJ9q3ms.s 			page 75


  59:../..//DaisySP//Source/Synthesis/oscillator.h ****         eoc_       = true;
 1466              		.loc 12 59 9 is_stmt 1 view .LVU418
  59:../..//DaisySP//Source/Synthesis/oscillator.h ****         eoc_       = true;
 1467              		.loc 12 59 20 is_stmt 0 view .LVU419
 1468 0060 3470     		strb	r4, [r6]
  60:../..//DaisySP//Source/Synthesis/oscillator.h ****         eor_       = true;
 1469              		.loc 12 60 9 is_stmt 1 view .LVU420
  61:../..//DaisySP//Source/Synthesis/oscillator.h ****     }
 1470              		.loc 12 61 9 view .LVU421
 1471              	.LVL88:
  61:../..//DaisySP//Source/Synthesis/oscillator.h ****     }
 1472              		.loc 12 61 9 is_stmt 0 view .LVU422
 1473              	.LBE600:
 1474              	.LBE608:
  90:chebyshev.cpp ****     sine.SetFreq(40);
 1475              		.loc 13 90 5 is_stmt 1 view .LVU423
 1476              	.LBB609:
 1477              	.LBI604:
  67:../..//DaisySP//Source/Synthesis/oscillator.h ****     {
 1478              		.loc 12 67 17 view .LVU424
 1479              	.LBB606:
  69:../..//DaisySP//Source/Synthesis/oscillator.h ****         phase_inc_ = CalcPhaseInc(f);
 1480              		.loc 12 69 9 view .LVU425
  69:../..//DaisySP//Source/Synthesis/oscillator.h ****         phase_inc_ = CalcPhaseInc(f);
 1481              		.loc 12 69 20 is_stmt 0 view .LVU426
 1482 0062 86ED020A 		vstr.32	s0, [r6, #8]
 1483              		.loc 12 70 9 is_stmt 1 view .LVU427
 1484              		.loc 12 70 34 is_stmt 0 view .LVU428
 1485 0066 FFF7FEFF 		bl	_ZN7daisysp10Oscillator12CalcPhaseIncEf
 1486              	.LVL89:
 1487              	.LBE606:
 1488              	.LBE609:
 1489              	.LBB610:
 1490              	.LBB611:
  71:../..//DaisySP//Source/Synthesis/oscillator.h ****     }
  72:../..//DaisySP//Source/Synthesis/oscillator.h **** 
  73:../..//DaisySP//Source/Synthesis/oscillator.h **** 
  74:../..//DaisySP//Source/Synthesis/oscillator.h ****     /** Sets the amplitude of the waveform.
  75:../..//DaisySP//Source/Synthesis/oscillator.h ****     */
  76:../..//DaisySP//Source/Synthesis/oscillator.h ****     inline void SetAmp(const float a) { amp_ = a; }
 1491              		.loc 12 76 46 view .LVU429
 1492 006a 4FF07E53 		mov	r3, #1065353216
 1493              	.LBE611:
 1494              	.LBE610:
 1495              	.LBB613:
 1496              	.LBB614:
  77:../..//DaisySP//Source/Synthesis/oscillator.h ****     /** Sets the waveform to be synthesized by the Process() function.
  78:../..//DaisySP//Source/Synthesis/oscillator.h ****     */
  79:../..//DaisySP//Source/Synthesis/oscillator.h ****     inline void SetWaveform(const uint8_t wf)
  80:../..//DaisySP//Source/Synthesis/oscillator.h ****     {
  81:../..//DaisySP//Source/Synthesis/oscillator.h ****         waveform_ = wf < WAVE_LAST ? wf : WAVE_SIN;
  82:../..//DaisySP//Source/Synthesis/oscillator.h ****     }
  83:../..//DaisySP//Source/Synthesis/oscillator.h ****     /** Sets the pulse width for WAVE_SQUARE and WAVE_POLYBLEP_SQUARE (range 0 - 1)
  84:../..//DaisySP//Source/Synthesis/oscillator.h ****      */
  85:../..//DaisySP//Source/Synthesis/oscillator.h ****     inline void SetPw(const float pw) { pw_ = fclamp(pw, 0.0f, 1.0f); }
  86:../..//DaisySP//Source/Synthesis/oscillator.h **** 
  87:../..//DaisySP//Source/Synthesis/oscillator.h ****     /** Returns true if cycle is at end of rise. Set during call to Process.
ARM GAS  /var/folders/z2/7_lhr9dn53s9tj4s0rwtyswm0000gn/T//ccJ9q3ms.s 			page 76


  88:../..//DaisySP//Source/Synthesis/oscillator.h ****     */
  89:../..//DaisySP//Source/Synthesis/oscillator.h ****     inline bool IsEOR() { return eor_; }
  90:../..//DaisySP//Source/Synthesis/oscillator.h **** 
  91:../..//DaisySP//Source/Synthesis/oscillator.h ****     /** Returns true if cycle is at end of cycle. Set during call to Process.
  92:../..//DaisySP//Source/Synthesis/oscillator.h ****     */
  93:../..//DaisySP//Source/Synthesis/oscillator.h ****     inline bool IsEOC() { return eoc_; }
  94:../..//DaisySP//Source/Synthesis/oscillator.h **** 
  95:../..//DaisySP//Source/Synthesis/oscillator.h ****     /** Returns true if cycle rising.
  96:../..//DaisySP//Source/Synthesis/oscillator.h ****     */
  97:../..//DaisySP//Source/Synthesis/oscillator.h ****     inline bool IsRising() { return phase_ < 0.5f; }
  98:../..//DaisySP//Source/Synthesis/oscillator.h **** 
  99:../..//DaisySP//Source/Synthesis/oscillator.h ****     /** Returns true if cycle falling.
 100:../..//DaisySP//Source/Synthesis/oscillator.h ****     */
 101:../..//DaisySP//Source/Synthesis/oscillator.h ****     inline bool IsFalling() { return phase_ >= 0.5f; }
 102:../..//DaisySP//Source/Synthesis/oscillator.h **** 
 103:../..//DaisySP//Source/Synthesis/oscillator.h ****     /** Processes the waveform to be generated, returning one sample. This should be called once pe
 104:../..//DaisySP//Source/Synthesis/oscillator.h ****     */
 105:../..//DaisySP//Source/Synthesis/oscillator.h ****     float Process();
 106:../..//DaisySP//Source/Synthesis/oscillator.h **** 
 107:../..//DaisySP//Source/Synthesis/oscillator.h **** 
 108:../..//DaisySP//Source/Synthesis/oscillator.h ****     /** Adds a value 0.0-1.0 (equivalent to 0.0-TWO_PI) to the current phase. Useful for PM and "FM
 109:../..//DaisySP//Source/Synthesis/oscillator.h ****     */
 110:../..//DaisySP//Source/Synthesis/oscillator.h ****     void PhaseAdd(float _phase) { phase_ += _phase; }
 111:../..//DaisySP//Source/Synthesis/oscillator.h ****     /** Resets the phase to the input argument. If no argumeNt is present, it will reset phase to 0
 112:../..//DaisySP//Source/Synthesis/oscillator.h ****     */
 113:../..//DaisySP//Source/Synthesis/oscillator.h ****     void Reset(float _phase = 0.0f) { phase_ = _phase; }
 1497              		.loc 12 113 46 view .LVU430
 1498 006e B561     		str	r5, [r6, #24]	@ float
 1499 0070 1F4D     		ldr	r5, .L47+40
 1500              	.LBE614:
 1501              	.LBE613:
 1502              	.LBB616:
 1503              	.LBB607:
  70:../..//DaisySP//Source/Synthesis/oscillator.h ****     }
 1504              		.loc 12 70 20 view .LVU431
 1505 0072 86ED070A 		vstr.32	s0, [r6, #28]
 1506              	.LVL90:
  70:../..//DaisySP//Source/Synthesis/oscillator.h ****     }
 1507              		.loc 12 70 20 view .LVU432
 1508              	.LBE607:
 1509              	.LBE616:
  91:chebyshev.cpp ****     sine.SetAmp(1.f);
 1510              		.loc 13 91 5 is_stmt 1 view .LVU433
 1511              	.LBB617:
 1512              	.LBI610:
  76:../..//DaisySP//Source/Synthesis/oscillator.h ****     /** Sets the waveform to be synthesized by the Process() function.
 1513              		.loc 12 76 17 view .LVU434
 1514              	.LBB612:
  76:../..//DaisySP//Source/Synthesis/oscillator.h ****     /** Sets the waveform to be synthesized by the Process() function.
 1515              		.loc 12 76 41 view .LVU435
  76:../..//DaisySP//Source/Synthesis/oscillator.h ****     /** Sets the waveform to be synthesized by the Process() function.
 1516              		.loc 12 76 46 is_stmt 0 view .LVU436
 1517 0076 7360     		str	r3, [r6, #4]	@ float
 1518              	.LVL91:
  76:../..//DaisySP//Source/Synthesis/oscillator.h ****     /** Sets the waveform to be synthesized by the Process() function.
 1519              		.loc 12 76 46 view .LVU437
 1520              	.LBE612:
ARM GAS  /var/folders/z2/7_lhr9dn53s9tj4s0rwtyswm0000gn/T//ccJ9q3ms.s 			page 77


 1521              	.LBE617:
  92:chebyshev.cpp ****     sine.Reset();
 1522              		.loc 13 92 5 is_stmt 1 view .LVU438
 1523              	.LBB618:
 1524              	.LBI613:
 1525              		.loc 12 113 10 view .LVU439
 1526              	.LBB615:
 1527              		.loc 12 113 39 view .LVU440
 1528              		.loc 12 113 39 is_stmt 0 view .LVU441
 1529              	.LBE615:
 1530              	.LBE618:
  93:chebyshev.cpp ****     constexpr float maxn = 512.f; 
 1531              		.loc 13 93 5 is_stmt 1 view .LVU442
  94:chebyshev.cpp ****     for (int i = 0; i < 512; ++i) {
 1532              		.loc 13 94 5 view .LVU443
 1533              	.LBB619:
 1534              		.loc 13 94 23 view .LVU444
 1535              	.L43:
 1536              	.LBB620:
  95:chebyshev.cpp ****         float index = static_cast<float>(i)/maxn;
 1537              		.loc 13 95 9 discriminator 2 view .LVU445
  96:chebyshev.cpp ****         waver[i] = expf(-powf(mcon::e*(index-0.5)*4, 2));
 1538              		.loc 13 96 9 discriminator 2 view .LVU446
  95:chebyshev.cpp ****         float index = static_cast<float>(i)/maxn;
 1539              		.loc 13 95 15 is_stmt 0 discriminator 2 view .LVU447
 1540 0078 00EE104A 		vmov	s0, r4	@ int
 1541              		.loc 13 96 45 discriminator 2 view .LVU448
 1542 007c B6EE005B 		vmov.f64	d5, #5.0e-1
 1543              		.loc 13 96 50 discriminator 2 view .LVU449
 1544 0080 B1EE007B 		vmov.f64	d7, #4.0e+0
 1545              	.LBE620:
  94:chebyshev.cpp ****     for (int i = 0; i < 512; ++i) {
 1546              		.loc 13 94 5 discriminator 2 view .LVU450
 1547 0084 0134     		adds	r4, r4, #1
 1548              	.LVL92:
 1549              	.LBB621:
  95:chebyshev.cpp ****         float index = static_cast<float>(i)/maxn;
 1550              		.loc 13 95 15 discriminator 2 view .LVU451
 1551 0086 BAEEEB0A 		vcvt.f32.s32	s0, s0, #9
 1552              	.LVL93:
 1553              		.loc 13 96 38 discriminator 2 view .LVU452
 1554 008a 9FED0F6B 		vldr.64	d6, .L47
 1555              		.loc 13 96 40 discriminator 2 view .LVU453
 1556 008e B7EEC00A 		vcvt.f64.f32	d0, s0
 1557              	.LVL94:
 1558              		.loc 13 96 45 discriminator 2 view .LVU454
 1559 0092 30EE450B 		vsub.f64	d0, d0, d5
 1560              		.loc 13 96 38 discriminator 2 view .LVU455
 1561 0096 20EE060B 		vmul.f64	d0, d0, d6
 1562              		.loc 13 96 50 discriminator 2 view .LVU456
 1563 009a 20EE070B 		vmul.f64	d0, d0, d7
 1564              		.loc 13 96 30 discriminator 2 view .LVU457
 1565 009e B7EEC00B 		vcvt.f32.f64	s0, d0
 1566              		.loc 13 96 24 discriminator 2 view .LVU458
 1567 00a2 20EE400A 		vnmul.f32	s0, s0, s0
 1568 00a6 FFF7FEFF 		bl	expf
 1569              	.LVL95:
ARM GAS  /var/folders/z2/7_lhr9dn53s9tj4s0rwtyswm0000gn/T//ccJ9q3ms.s 			page 78


 1570              	.LBE621:
  94:chebyshev.cpp ****     for (int i = 0; i < 512; ++i) {
 1571              		.loc 13 94 23 discriminator 2 view .LVU459
 1572 00aa B4F5007F 		cmp	r4, #512
 1573              	.LBB622:
 1574              		.loc 13 96 18 discriminator 2 view .LVU460
 1575 00ae A5EC010A 		vstmia.32	r5!, {s0}
 1576              	.LBE622:
  94:chebyshev.cpp ****     for (int i = 0; i < 512; ++i) {
 1577              		.loc 13 94 5 is_stmt 1 discriminator 2 view .LVU461
 1578              	.LVL96:
  94:chebyshev.cpp ****     for (int i = 0; i < 512; ++i) {
 1579              		.loc 13 94 23 discriminator 2 view .LVU462
 1580 00b2 E1D1     		bne	.L43
 1581              	.LBE619:
  97:chebyshev.cpp ****     } 
  98:chebyshev.cpp ****  
  99:chebyshev.cpp ****     hw.StartAdc();
 1582              		.loc 13 99 5 view .LVU463
 1583              		.loc 13 99 16 is_stmt 0 view .LVU464
 1584 00b4 0648     		ldr	r0, .L47+8
 1585 00b6 FFF7FEFF 		bl	_ZN5daisy10Tusenskona8StartAdcEv
 1586              	.LVL97:
 100:chebyshev.cpp ****     hw.StartAudio(AudioCallback);
 1587              		.loc 13 100 5 is_stmt 1 view .LVU465
 1588              		.loc 13 100 18 is_stmt 0 view .LVU466
 1589 00ba 0E49     		ldr	r1, .L47+44
 1590 00bc 0448     		ldr	r0, .L47+8
 1591 00be FFF7FEFF 		bl	_ZN5daisy10Tusenskona10StartAudioEPFvPKPKfPPfjE
 1592              	.LVL98:
 1593              	.L44:
 101:chebyshev.cpp ****     while(1) { 
 1594              		.loc 13 101 5 is_stmt 1 discriminator 1 view .LVU467
 102:chebyshev.cpp ****         UpdateLed();
 1595              		.loc 13 102 9 discriminator 1 view .LVU468
 1596              		.loc 13 102 18 is_stmt 0 discriminator 1 view .LVU469
 1597 00c2 FFF7FEFF 		bl	_Z9UpdateLedv
 1598              	.LVL99:
 101:chebyshev.cpp ****     while(1) { 
 1599              		.loc 13 101 5 is_stmt 1 discriminator 1 view .LVU470
 1600 00c6 FCE7     		b	.L44
 1601              	.L48:
 1602              		.align	3
 1603              	.L47:
 1604 00c8 00000080 		.word	-2147483648
 1605 00cc 0ABF0540 		.word	1074118410
 1606 00d0 00000000 		.word	.LANCHOR0
 1607 00d4 00000000 		.word	.LANCHOR18
 1608 00d8 00000000 		.word	.LANCHOR2
 1609 00dc 00000000 		.word	.LANCHOR19
 1610 00e0 00803B47 		.word	1195081728
 1611 00e4 3EC3AE37 		.word	934200126
 1612 00e8 0000C842 		.word	1120403456
 1613 00ec 00002042 		.word	1109393408
 1614 00f0 00000000 		.word	.LANCHOR20
 1615 00f4 00000000 		.word	_Z13AudioCallbackPKPKfPPfj
 1616              		.cfi_endproc
ARM GAS  /var/folders/z2/7_lhr9dn53s9tj4s0rwtyswm0000gn/T//ccJ9q3ms.s 			page 79


 1617              	.LFE4784:
 1619              		.section	.text.startup._GLOBAL__sub_I_hw,"ax",%progbits
 1620              		.align	1
 1621              		.p2align 2,,3
 1622              		.syntax unified
 1623              		.thumb
 1624              		.thumb_func
 1626              	_GLOBAL__sub_I_hw:
 1627              	.LFB5366:
 103:chebyshev.cpp ****     }
 104:chebyshev.cpp **** }
 1628              		.loc 13 104 1 view -0
 1629              		.cfi_startproc
 1630              		@ args = 0, pretend = 0, frame = 0
 1631              		@ frame_needed = 0, uses_anonymous_args = 0
 1632              	.LBB674:
 1633              	.LBI674:
 1634              		.loc 13 104 1 view .LVU472
 1635              	.LVL100:
 1636              	.LBB675:
 1637              	.LBB676:
 1638              	.LBI676:
  30:../../tusenskona/src/tusenskona.h ****     ~Tusenskona() {}
 1639              		.loc 1 30 5 view .LVU473
 1640              	.LBB677:
 1641              	.LBB678:
 1642              	.LBI678:
  21:../../libDaisy//src/daisy_seed.h ****     ~DaisySeed() {}
 1643              		.loc 7 21 5 view .LVU474
 1644              	.LBB679:
 1645              	.LBB680:
 1646              	.LBI680:
 1647              		.file 20 "../../libDaisy//src/per/qspi.h"
   1:../../libDaisy//src/per/qspi.h **** #ifndef DSY_QSPI
   2:../../libDaisy//src/per/qspi.h **** #define DSY_QSPI /**< Macro */
   3:../../libDaisy//src/per/qspi.h **** 
   4:../../libDaisy//src/per/qspi.h **** #ifndef UNIT_TEST // for unit tests, a dummy implementation
   5:../../libDaisy//src/per/qspi.h **** 
   6:../../libDaisy//src/per/qspi.h **** #include <cstdint>
   7:../../libDaisy//src/per/qspi.h **** #include "daisy_core.h" // Added for dsy_gpio_pin typedef
   8:../../libDaisy//src/per/qspi.h **** 
   9:../../libDaisy//src/per/qspi.h **** #define DSY_QSPI_TEXT       \
  10:../../libDaisy//src/per/qspi.h ****     __attribute__((section( \
  11:../../libDaisy//src/per/qspi.h ****         ".qspiflash_text"))) /**< used for reading memory in memory_mapped mode. */
  12:../../libDaisy//src/per/qspi.h **** #define DSY_QSPI_DATA       \
  13:../../libDaisy//src/per/qspi.h ****     __attribute__((section( \
  14:../../libDaisy//src/per/qspi.h ****         ".qspiflash_data"))) /**< used for reading memory in memory_mapped mode. */
  15:../../libDaisy//src/per/qspi.h **** #define DSY_QSPI_BSS        \
  16:../../libDaisy//src/per/qspi.h ****     __attribute__((section( \
  17:../../libDaisy//src/per/qspi.h ****         ".qspiflash_bss"))) /**< used for reading memory in memory_mapped mode. */
  18:../../libDaisy//src/per/qspi.h **** 
  19:../../libDaisy//src/per/qspi.h **** namespace daisy
  20:../../libDaisy//src/per/qspi.h **** {
  21:../../libDaisy//src/per/qspi.h **** /** @addtogroup serial
  22:../../libDaisy//src/per/qspi.h **** @{
  23:../../libDaisy//src/per/qspi.h **** */
  24:../../libDaisy//src/per/qspi.h **** 
ARM GAS  /var/folders/z2/7_lhr9dn53s9tj4s0rwtyswm0000gn/T//ccJ9q3ms.s 			page 80


  25:../../libDaisy//src/per/qspi.h **** /** 
  26:../../libDaisy//src/per/qspi.h ****  Driver for QSPI peripheral to interface with external flash memory. \n 
  27:../../libDaisy//src/per/qspi.h ****     Currently supported QSPI Devices: \n 
  28:../../libDaisy//src/per/qspi.h ****     * IS25LP080D
  29:../../libDaisy//src/per/qspi.h **** */
  30:../../libDaisy//src/per/qspi.h **** class QSPIHandle
  31:../../libDaisy//src/per/qspi.h **** {
  32:../../libDaisy//src/per/qspi.h ****   public:
  33:../../libDaisy//src/per/qspi.h ****     enum Result
  34:../../libDaisy//src/per/qspi.h ****     {
  35:../../libDaisy//src/per/qspi.h ****         OK = 0,
  36:../../libDaisy//src/per/qspi.h ****         ERR
  37:../../libDaisy//src/per/qspi.h ****     };
  38:../../libDaisy//src/per/qspi.h **** 
  39:../../libDaisy//src/per/qspi.h ****     /** Indicates the current status of the module. 
  40:../../libDaisy//src/per/qspi.h ****          *  Warnings are indicated by a leading W.
  41:../../libDaisy//src/per/qspi.h ****          *  Errors are indicated by a leading E and cause an immediate exit.
  42:../../libDaisy//src/per/qspi.h ****          * 
  43:../../libDaisy//src/per/qspi.h ****          *  \param GOOD - No errors have been reported.
  44:../../libDaisy//src/per/qspi.h ****          *  \param E_HAL_ERROR - HAL code did not return HAL_OK.
  45:../../libDaisy//src/per/qspi.h ****          *  \param E_SWITCHING_MODES - An error was encountered while switching QSPI peripheral mod
  46:../../libDaisy//src/per/qspi.h ****          *  \param E_INVALID_MODE - QSPI should not be written to while the program is executing fr
  47:../../libDaisy//src/per/qspi.h ****          */
  48:../../libDaisy//src/per/qspi.h ****     enum Status
  49:../../libDaisy//src/per/qspi.h ****     {
  50:../../libDaisy//src/per/qspi.h ****         GOOD = 0,
  51:../../libDaisy//src/per/qspi.h ****         E_HAL_ERROR,
  52:../../libDaisy//src/per/qspi.h ****         E_SWITCHING_MODES,
  53:../../libDaisy//src/per/qspi.h ****         E_INVALID_MODE,
  54:../../libDaisy//src/per/qspi.h ****     };
  55:../../libDaisy//src/per/qspi.h **** 
  56:../../libDaisy//src/per/qspi.h ****     /** Configuration structure for interfacing with QSPI Driver */
  57:../../libDaisy//src/per/qspi.h ****     struct Config
  58:../../libDaisy//src/per/qspi.h ****     {
  59:../../libDaisy//src/per/qspi.h ****         /** Flash Devices supported. (Both of these are more-or-less the same, just different sizes
  60:../../libDaisy//src/per/qspi.h ****         enum Device
  61:../../libDaisy//src/per/qspi.h ****         {
  62:../../libDaisy//src/per/qspi.h ****             IS25LP080D,  /**< & */
  63:../../libDaisy//src/per/qspi.h ****             IS25LP064A,  /**< & */
  64:../../libDaisy//src/per/qspi.h ****             DEVICE_LAST, /**< & */
  65:../../libDaisy//src/per/qspi.h ****         };
  66:../../libDaisy//src/per/qspi.h **** 
  67:../../libDaisy//src/per/qspi.h ****         /** 
  68:../../libDaisy//src/per/qspi.h ****         Modes of operation.
  69:../../libDaisy//src/per/qspi.h ****         Memory Mapped mode: QSPI configured so that the QSPI can be
  70:../../libDaisy//src/per/qspi.h ****         read from starting address 0x90000000. Writing is not
  71:../../libDaisy//src/per/qspi.h ****         possible in this mode. \n 
  72:../../libDaisy//src/per/qspi.h ****         Indirect Polling mode: Device driver enabled. 
  73:../../libDaisy//src/per/qspi.h ****         */
  74:../../libDaisy//src/per/qspi.h ****         enum Mode
  75:../../libDaisy//src/per/qspi.h ****         {
  76:../../libDaisy//src/per/qspi.h ****             MEMORY_MAPPED,    /**< & */
  77:../../libDaisy//src/per/qspi.h ****             INDIRECT_POLLING, /**< & */
  78:../../libDaisy//src/per/qspi.h ****             MODE_LAST,
  79:../../libDaisy//src/per/qspi.h ****         };
  80:../../libDaisy//src/per/qspi.h **** 
  81:../../libDaisy//src/per/qspi.h ****         //SCK,  CE# (active low)
ARM GAS  /var/folders/z2/7_lhr9dn53s9tj4s0rwtyswm0000gn/T//ccJ9q3ms.s 			page 81


  82:../../libDaisy//src/per/qspi.h ****         struct
  83:../../libDaisy//src/per/qspi.h ****         {
  84:../../libDaisy//src/per/qspi.h ****             dsy_gpio_pin io0; /**< & */
  85:../../libDaisy//src/per/qspi.h ****             dsy_gpio_pin io1; /**< & */
  86:../../libDaisy//src/per/qspi.h ****             dsy_gpio_pin io2; /**< & */
  87:../../libDaisy//src/per/qspi.h ****             dsy_gpio_pin io3; /**< & */
  88:../../libDaisy//src/per/qspi.h ****             dsy_gpio_pin clk; /**< & */
  89:../../libDaisy//src/per/qspi.h ****             dsy_gpio_pin ncs; /**< & */
  90:../../libDaisy//src/per/qspi.h ****         } pin_config;
  91:../../libDaisy//src/per/qspi.h **** 
  92:../../libDaisy//src/per/qspi.h ****         Device device;
  93:../../libDaisy//src/per/qspi.h ****         Mode   mode;
  94:../../libDaisy//src/per/qspi.h ****     };
  95:../../libDaisy//src/per/qspi.h **** 
  96:../../libDaisy//src/per/qspi.h ****     /** 
  97:../../libDaisy//src/per/qspi.h ****         Initializes QSPI peripheral, and Resets, and prepares memory for access.
  98:../../libDaisy//src/per/qspi.h ****         \param config should be populated with the mode, device and pin_config before calling this 
  99:../../libDaisy//src/per/qspi.h ****         \return Result::OK or Result::ERR
 100:../../libDaisy//src/per/qspi.h ****         */
 101:../../libDaisy//src/per/qspi.h ****     Result Init(const Config& config);
 102:../../libDaisy//src/per/qspi.h **** 
 103:../../libDaisy//src/per/qspi.h ****     /** Returns the current config. */
 104:../../libDaisy//src/per/qspi.h ****     const Config& GetConfig() const;
 105:../../libDaisy//src/per/qspi.h **** 
 106:../../libDaisy//src/per/qspi.h ****     // Couldn't this just be called before anything else in init? That
 107:../../libDaisy//src/per/qspi.h ****     // would make manually calling it unnecessary.
 108:../../libDaisy//src/per/qspi.h ****     /** 
 109:../../libDaisy//src/per/qspi.h ****         Deinitializes the peripheral
 110:../../libDaisy//src/per/qspi.h ****         This should be called before reinitializing QSPI in a different mode.
 111:../../libDaisy//src/per/qspi.h ****         \return Result::OK or Result::ERR
 112:../../libDaisy//src/per/qspi.h ****         */
 113:../../libDaisy//src/per/qspi.h ****     Result DeInit();
 114:../../libDaisy//src/per/qspi.h **** 
 115:../../libDaisy//src/per/qspi.h ****     /** 
 116:../../libDaisy//src/per/qspi.h ****         Writes a single page to to the specified address on the QSPI chip.
 117:../../libDaisy//src/per/qspi.h ****         For IS25LP*, page size is 256 bytes.
 118:../../libDaisy//src/per/qspi.h ****         \param address Address to write to
 119:../../libDaisy//src/per/qspi.h ****         \param size Buffer size
 120:../../libDaisy//src/per/qspi.h ****         \param buffer Buffer to write
 121:../../libDaisy//src/per/qspi.h ****         \return Result::OK or Result::ERR
 122:../../libDaisy//src/per/qspi.h ****         */
 123:../../libDaisy//src/per/qspi.h ****     Result WritePage(uint32_t address, uint32_t size, uint8_t* buffer);
 124:../../libDaisy//src/per/qspi.h **** 
 125:../../libDaisy//src/per/qspi.h ****     /** 
 126:../../libDaisy//src/per/qspi.h ****         Writes data in buffer to to the QSPI. Starting at address to address+size 
 127:../../libDaisy//src/per/qspi.h ****         \param address Address to write to
 128:../../libDaisy//src/per/qspi.h ****         \param size Buffer size
 129:../../libDaisy//src/per/qspi.h ****         \param buffer Buffer to write
 130:../../libDaisy//src/per/qspi.h ****         \return Result::OK or Result::ERR
 131:../../libDaisy//src/per/qspi.h ****         */
 132:../../libDaisy//src/per/qspi.h ****     Result Write(uint32_t address, uint32_t size, uint8_t* buffer);
 133:../../libDaisy//src/per/qspi.h **** 
 134:../../libDaisy//src/per/qspi.h ****     /** 
 135:../../libDaisy//src/per/qspi.h ****         Erases the area specified on the chip.
 136:../../libDaisy//src/per/qspi.h ****         Erasures will happen by 4K, 32K or 64K increments.
 137:../../libDaisy//src/per/qspi.h ****         Smallest erase possible is 4kB at a time. (on IS25LP*)
 138:../../libDaisy//src/per/qspi.h ****         \param start_addr Address to begin erasing from
ARM GAS  /var/folders/z2/7_lhr9dn53s9tj4s0rwtyswm0000gn/T//ccJ9q3ms.s 			page 82


 139:../../libDaisy//src/per/qspi.h ****         \param end_addr  Address to stop erasing at
 140:../../libDaisy//src/per/qspi.h ****         \return Result::OK or Result::ERR
 141:../../libDaisy//src/per/qspi.h ****         */
 142:../../libDaisy//src/per/qspi.h ****     Result Erase(uint32_t start_addr, uint32_t end_addr);
 143:../../libDaisy//src/per/qspi.h **** 
 144:../../libDaisy//src/per/qspi.h ****     /**  
 145:../../libDaisy//src/per/qspi.h ****          Erases a single sector of the chip.  
 146:../../libDaisy//src/per/qspi.h ****         TODO: Document the size of this function. 
 147:../../libDaisy//src/per/qspi.h ****         \param address Address of sector to erase
 148:../../libDaisy//src/per/qspi.h ****         \return Result::OK or Result::ERR
 149:../../libDaisy//src/per/qspi.h ****         */
 150:../../libDaisy//src/per/qspi.h ****     Result EraseSector(uint32_t address);
 151:../../libDaisy//src/per/qspi.h **** 
 152:../../libDaisy//src/per/qspi.h ****     /** Returns the current class status. Useful for debugging.
 153:../../libDaisy//src/per/qspi.h ****      *  \returns Status
 154:../../libDaisy//src/per/qspi.h ****      */
 155:../../libDaisy//src/per/qspi.h ****     Status GetStatus();
 156:../../libDaisy//src/per/qspi.h **** 
 157:../../libDaisy//src/per/qspi.h ****     /** Returns a pointer to the actual memory used 
 158:../../libDaisy//src/per/qspi.h ****      *  The memory at this address is read-only
 159:../../libDaisy//src/per/qspi.h ****      *  to write to it use the Write function.
 160:../../libDaisy//src/per/qspi.h ****      * 
 161:../../libDaisy//src/per/qspi.h ****      *  \param offset returns the pointer starting this 
 162:../../libDaisy//src/per/qspi.h ****      *                many bytes into the memory
 163:../../libDaisy//src/per/qspi.h ****     */
 164:../../libDaisy//src/per/qspi.h ****     void* GetData(uint32_t offset = 0);
 165:../../libDaisy//src/per/qspi.h **** 
 166:../../libDaisy//src/per/qspi.h ****     QSPIHandle() : pimpl_(nullptr) {}
 1648              		.loc 20 166 5 view .LVU475
 1649              	.LBE680:
 1650              	.LBE679:
 1651              	.LBE678:
 1652              	.LBE677:
 1653              	.LBE676:
 1654              	.LBE675:
 1655              	.LBE674:
 1656              		.loc 13 104 1 is_stmt 0 view .LVU476
 1657 0000 08B5     		push	{r3, lr}
 1658              		.cfi_def_cfa_offset 8
 1659              		.cfi_offset 3, -8
 1660              		.cfi_offset 14, -4
 1661              	.LBB726:
 1662              	.LBB724:
 1663              	.LBB719:
 1664              	.LBB717:
 1665              	.LBB701:
 1666              	.LBB699:
 1667              	.LBB685:
 1668              	.LBB681:
 1669              	.LBB682:
 1670              		.loc 20 166 34 view .LVU477
 1671 0002 0848     		ldr	r0, .L51
 1672 0004 0023     		movs	r3, #0
 1673              	.LBE682:
 1674              	.LBE681:
 1675              	.LBE685:
 1676              	.LBE699:
ARM GAS  /var/folders/z2/7_lhr9dn53s9tj4s0rwtyswm0000gn/T//ccJ9q3ms.s 			page 83


 1677              	.LBE701:
 1678              	.LBE717:
 1679              	.LBE719:
  12:chebyshev.cpp **** 
 1680              		.loc 13 12 12 view .LVU478
 1681 0006 084A     		ldr	r2, .L51+4
 1682 0008 0849     		ldr	r1, .L51+8
 1683              	.LBB720:
 1684              	.LBB718:
 1685              	.LBB702:
 1686              	.LBB700:
 1687              	.LBB686:
 1688              	.LBB684:
 1689              	.LBB683:
 1690              		.loc 20 166 34 view .LVU479
 1691 000a 0360     		str	r3, [r0]
 1692              	.LVL101:
 1693              		.loc 20 166 34 view .LVU480
 1694              	.LBE683:
 1695              	.LBE684:
 1696              	.LBE686:
 1697              	.LBB687:
 1698              	.LBI687:
  87:../../libDaisy//src/hid/audio.h ****     ~AudioHandle() {}
 1699              		.loc 11 87 5 is_stmt 1 view .LVU481
 1700              	.LBB688:
 1701              	.LBB689:
  87:../../libDaisy//src/hid/audio.h ****     ~AudioHandle() {}
 1702              		.loc 11 87 35 is_stmt 0 view .LVU482
 1703 000c 4361     		str	r3, [r0, #20]
 1704              	.LVL102:
  87:../../libDaisy//src/hid/audio.h ****     ~AudioHandle() {}
 1705              		.loc 11 87 35 view .LVU483
 1706              	.LBE689:
 1707              	.LBE688:
 1708              	.LBE687:
 1709              	.LBB690:
 1710              	.LBI690:
 109:../../libDaisy//src/per/adc.h ****     ~AdcHandle() {}
 1711              		.loc 10 109 5 is_stmt 1 view .LVU484
 109:../../libDaisy//src/per/adc.h ****     ~AdcHandle() {}
 1712              		.loc 10 109 5 is_stmt 0 view .LVU485
 1713              	.LBE690:
 1714              	.LBB691:
 1715              	.LBI691:
 1716              		.file 21 "../../libDaisy//src/per/dac.h"
   1:../../libDaisy//src/per/dac.h **** #pragma once
   2:../../libDaisy//src/per/dac.h **** #ifndef DSY_DAC_H
   3:../../libDaisy//src/per/dac.h **** #define DSY_DAC_H
   4:../../libDaisy//src/per/dac.h **** 
   5:../../libDaisy//src/per/dac.h **** #include "daisy_core.h"
   6:../../libDaisy//src/per/dac.h **** 
   7:../../libDaisy//src/per/dac.h **** namespace daisy
   8:../../libDaisy//src/per/dac.h **** {
   9:../../libDaisy//src/per/dac.h **** /** @brief DAC handle for Built-in DAC Peripheral 
  10:../../libDaisy//src/per/dac.h ****  *  @ingroup per_analog
  11:../../libDaisy//src/per/dac.h ****  ** 
ARM GAS  /var/folders/z2/7_lhr9dn53s9tj4s0rwtyswm0000gn/T//ccJ9q3ms.s 			page 84


  12:../../libDaisy//src/per/dac.h ****  ** For now only Normal Mode is supported,
  13:../../libDaisy//src/per/dac.h ****  ** Sample and hold mode provides reduced power consumption, but requires a bit more setup.
  14:../../libDaisy//src/per/dac.h ****  **
  15:../../libDaisy//src/per/dac.h ****  ** For now connecting the DAC through other internal peripherals is also not supported.
  16:../../libDaisy//src/per/dac.h ****  **
  17:../../libDaisy//src/per/dac.h ****  ** Since the DAC channels have dedicated pins we don't need to pass in a pin config like with
  18:../../libDaisy//src/per/dac.h ****  ** other modules. However, it is still important to not try to use the DAC pins for anything else.
  19:../../libDaisy//src/per/dac.h ****  ** DAC Channel 1 is on PA4, and DAC Channel 2 is on PA5
  20:../../libDaisy//src/per/dac.h ****  ***/
  21:../../libDaisy//src/per/dac.h **** class DacHandle
  22:../../libDaisy//src/per/dac.h **** {
  23:../../libDaisy//src/per/dac.h ****   public:
  24:../../libDaisy//src/per/dac.h ****     /** Return Values for the DacHandle class */
  25:../../libDaisy//src/per/dac.h ****     enum class Result
  26:../../libDaisy//src/per/dac.h ****     {
  27:../../libDaisy//src/per/dac.h ****         OK,
  28:../../libDaisy//src/per/dac.h ****         ERR,
  29:../../libDaisy//src/per/dac.h ****     };
  30:../../libDaisy//src/per/dac.h **** 
  31:../../libDaisy//src/per/dac.h ****     /** Selects which channel(s) will be configured for use. */
  32:../../libDaisy//src/per/dac.h ****     enum class Channel
  33:../../libDaisy//src/per/dac.h ****     {
  34:../../libDaisy//src/per/dac.h ****         ONE,
  35:../../libDaisy//src/per/dac.h ****         TWO,
  36:../../libDaisy//src/per/dac.h ****         BOTH,
  37:../../libDaisy//src/per/dac.h ****     };
  38:../../libDaisy//src/per/dac.h **** 
  39:../../libDaisy//src/per/dac.h ****     /** Sets the Mode for the DAC channels.
  40:../../libDaisy//src/per/dac.h ****      **
  41:../../libDaisy//src/per/dac.h ****      ** Polling mode uses the blocking mode to transmit a single value at a time.
  42:../../libDaisy//src/per/dac.h ****      **
  43:../../libDaisy//src/per/dac.h ****      ** DMA mode uses a buffer, and periodically transmits it triggering a 
  44:../../libDaisy//src/per/dac.h ****      ** callback to fill the buffer when it is ready for more samples.
  45:../../libDaisy//src/per/dac.h ****      ***/
  46:../../libDaisy//src/per/dac.h ****     enum class Mode
  47:../../libDaisy//src/per/dac.h ****     {
  48:../../libDaisy//src/per/dac.h ****         POLLING,
  49:../../libDaisy//src/per/dac.h ****         DMA,
  50:../../libDaisy//src/per/dac.h ****     };
  51:../../libDaisy//src/per/dac.h **** 
  52:../../libDaisy//src/per/dac.h ****     /** Sets the number of bits per sample transmitted out of the DAC.
  53:../../libDaisy//src/per/dac.h ****      ** The output range will be: 0V - VDDA
  54:../../libDaisy//src/per/dac.h ****      ** The resolution will be roughly: bitdepth / (VDDA - 0V) 
  55:../../libDaisy//src/per/dac.h ****      ***/
  56:../../libDaisy//src/per/dac.h ****     enum class BitDepth
  57:../../libDaisy//src/per/dac.h ****     {
  58:../../libDaisy//src/per/dac.h ****         BITS_8,
  59:../../libDaisy//src/per/dac.h ****         BITS_12
  60:../../libDaisy//src/per/dac.h ****     };
  61:../../libDaisy//src/per/dac.h **** 
  62:../../libDaisy//src/per/dac.h ****     /** Sets whether the DAC output is buffered for higher drive ability. */
  63:../../libDaisy//src/per/dac.h ****     enum class BufferState
  64:../../libDaisy//src/per/dac.h ****     {
  65:../../libDaisy//src/per/dac.h ****         ENABLED,
  66:../../libDaisy//src/per/dac.h ****         DISABLED,
  67:../../libDaisy//src/per/dac.h ****     };
  68:../../libDaisy//src/per/dac.h **** 
ARM GAS  /var/folders/z2/7_lhr9dn53s9tj4s0rwtyswm0000gn/T//ccJ9q3ms.s 			page 85


  69:../../libDaisy//src/per/dac.h ****     /** Configuration structure for initializing the DAC structure. */
  70:../../libDaisy//src/per/dac.h ****     struct Config
  71:../../libDaisy//src/per/dac.h ****     {
  72:../../libDaisy//src/per/dac.h ****         /** Target Samplerate in Hz used to configure the internal 
  73:../../libDaisy//src/per/dac.h ****          ** timebase for DMA mode. Does nothing in POLLING mode.
  74:../../libDaisy//src/per/dac.h ****          ** If the value is 0 at Init time this will default to 48000Hz 
  75:../../libDaisy//src/per/dac.h ****          ** otherwise the driver will attempt meet the target.*/
  76:../../libDaisy//src/per/dac.h ****         uint32_t target_samplerate;
  77:../../libDaisy//src/per/dac.h **** 
  78:../../libDaisy//src/per/dac.h ****         Channel     chn;
  79:../../libDaisy//src/per/dac.h ****         Mode        mode;
  80:../../libDaisy//src/per/dac.h ****         BitDepth    bitdepth;
  81:../../libDaisy//src/per/dac.h ****         BufferState buff_state;
  82:../../libDaisy//src/per/dac.h ****     };
  83:../../libDaisy//src/per/dac.h **** 
  84:../../libDaisy//src/per/dac.h ****     DacHandle() : pimpl_(nullptr) {}
 1717              		.loc 21 84 5 is_stmt 1 view .LVU486
 1718              	.LBB692:
 1719              	.LBB693:
 1720              		.loc 21 84 33 is_stmt 0 view .LVU487
 1721 000e 0362     		str	r3, [r0, #32]
 1722              	.LVL103:
 1723              		.loc 21 84 33 view .LVU488
 1724              	.LBE693:
 1725              	.LBE692:
 1726              	.LBE691:
 1727              	.LBB694:
 1728              	.LBI694:
  40:../../libDaisy//src/hid/usb.h **** 
 1729              		.loc 9 40 5 is_stmt 1 view .LVU489
  40:../../libDaisy//src/hid/usb.h **** 
 1730              		.loc 9 40 5 is_stmt 0 view .LVU490
 1731              	.LBE694:
 1732              	.LBB695:
 1733              	.LBI695:
  96:../../libDaisy//src/sys/system.h ****     ~System() {}
 1734              		.loc 8 96 5 is_stmt 1 view .LVU491
  96:../../libDaisy//src/sys/system.h ****     ~System() {}
 1735              		.loc 8 96 5 is_stmt 0 view .LVU492
 1736              	.LBE695:
 1737              	.LBB696:
 1738              	.LBI696:
 1739              		.file 22 "../../libDaisy//src/per/sai.h"
   1:../../libDaisy//src/per/sai.h **** #pragma once
   2:../../libDaisy//src/per/sai.h **** #ifndef DSY_SAI_H
   3:../../libDaisy//src/per/sai.h **** #define DSY_SAI_H
   4:../../libDaisy//src/per/sai.h **** 
   5:../../libDaisy//src/per/sai.h **** #include "daisy_core.h"
   6:../../libDaisy//src/per/sai.h **** 
   7:../../libDaisy//src/per/sai.h **** namespace daisy
   8:../../libDaisy//src/per/sai.h **** {
   9:../../libDaisy//src/per/sai.h **** /** 
  10:../../libDaisy//src/per/sai.h ****  * Support for I2S Audio Protocol with different bit-depth, samplerate options
  11:../../libDaisy//src/per/sai.h ****  * Allows for master or slave, as well as freedom of selecting direction, 
  12:../../libDaisy//src/per/sai.h ****  * and other behavior for each peripheral, and block.
  13:../../libDaisy//src/per/sai.h ****  * 
  14:../../libDaisy//src/per/sai.h ****  * DMA Transfer commands must use buffers located within non-cached memory or use cache maintenance
ARM GAS  /var/folders/z2/7_lhr9dn53s9tj4s0rwtyswm0000gn/T//ccJ9q3ms.s 			page 86


  15:../../libDaisy//src/per/sai.h ****  * To declare an unitialized global element in the DMA memory section:
  16:../../libDaisy//src/per/sai.h ****  *    int32_t DSY_DMA_BUFFER_SECTOR my_buffer[96];
  17:../../libDaisy//src/per/sai.h ****  *
  18:../../libDaisy//src/per/sai.h ****  * Callback functions will be called once per half of the buffer. In the above example, 
  19:../../libDaisy//src/per/sai.h ****  * the callback function would be called once for every 48 samples.
  20:../../libDaisy//src/per/sai.h ****  * 
  21:../../libDaisy//src/per/sai.h ****  * Use SAI Handle like this:
  22:../../libDaisy//src/per/sai.h ****  * 
  23:../../libDaisy//src/per/sai.h ****  *  SaiHandle::Config sai_config;
  24:../../libDaisy//src/per/sai.h ****  *  sai_config.periph          = SaiHandle::Config::Peripheral::SAI_1;
  25:../../libDaisy//src/per/sai.h ****  *  sai_config.sr              = SaiHandle::Config::SampleRate::SAI_48KHZ;
  26:../../libDaisy//src/per/sai.h ****  *  sai_config.bit_depth       = SaiHandle::Config::BitDepth::SAI_24BIT;
  27:../../libDaisy//src/per/sai.h ****  *  sai_config.a_sync          = SaiHandle::Config::Sync::MASTER;
  28:../../libDaisy//src/per/sai.h ****  *  sai_config.b_sync          = SaiHandle::Config::Sync::SLAVE;
  29:../../libDaisy//src/per/sai.h ****  *  sai_config.a_dir           = SaiHandle::Config::Direction::RECEIVE;
  30:../../libDaisy//src/per/sai.h ****  *  sai_config.b_dir           = SaiHandle::Config::Direction::TRANSMIT;
  31:../../libDaisy//src/per/sai.h ****  *  sai_config.pin_config.fs   = {DSY_GPIOE, 4};
  32:../../libDaisy//src/per/sai.h ****  *  sai_config.pin_config.mclk = {DSY_GPIOE, 2};
  33:../../libDaisy//src/per/sai.h ****  *  sai_config.pin_config.sck  = {DSY_GPIOE, 5};
  34:../../libDaisy//src/per/sai.h ****  *  sai_config.pin_config.sa   = {DSY_GPIOE, 6};
  35:../../libDaisy//src/per/sai.h ****  *  sai_config.pin_config.sb   = {DSY_GPIOE, 3};
  36:../../libDaisy//src/per/sai.h ****  *  // Then Initialize
  37:../../libDaisy//src/per/sai.h ****  *  SaiHandle sai;
  38:../../libDaisy//src/per/sai.h ****  *  sai.Init(sai_config);
  39:../../libDaisy//src/per/sai.h ****  *  // Now you can use it:
  40:../../libDaisy//src/per/sai.h ****  *  sai.StartDma(. . .);
  41:../../libDaisy//src/per/sai.h ****  */
  42:../../libDaisy//src/per/sai.h **** class SaiHandle
  43:../../libDaisy//src/per/sai.h **** {
  44:../../libDaisy//src/per/sai.h ****   public:
  45:../../libDaisy//src/per/sai.h ****     /** Contains settings for initialising an SAI Interface */
  46:../../libDaisy//src/per/sai.h ****     struct Config
  47:../../libDaisy//src/per/sai.h ****     {
  48:../../libDaisy//src/per/sai.h ****         /** Specifies the internal peripheral to use (mapped to different hardware pins) */
  49:../../libDaisy//src/per/sai.h ****         enum class Peripheral
  50:../../libDaisy//src/per/sai.h ****         {
  51:../../libDaisy//src/per/sai.h ****             SAI_1,
  52:../../libDaisy//src/per/sai.h ****             SAI_2,
  53:../../libDaisy//src/per/sai.h ****         };
  54:../../libDaisy//src/per/sai.h **** 
  55:../../libDaisy//src/per/sai.h ****         /** Rate at which samples will be streaming to/from the device. */
  56:../../libDaisy//src/per/sai.h ****         enum class SampleRate
  57:../../libDaisy//src/per/sai.h ****         {
  58:../../libDaisy//src/per/sai.h ****             SAI_8KHZ,
  59:../../libDaisy//src/per/sai.h ****             SAI_16KHZ,
  60:../../libDaisy//src/per/sai.h ****             SAI_32KHZ,
  61:../../libDaisy//src/per/sai.h ****             SAI_48KHZ,
  62:../../libDaisy//src/per/sai.h ****             SAI_96KHZ,
  63:../../libDaisy//src/per/sai.h ****         };
  64:../../libDaisy//src/per/sai.h **** 
  65:../../libDaisy//src/per/sai.h ****         /** Bit Depth that the hardware expects to be transferred to/from the device. */
  66:../../libDaisy//src/per/sai.h ****         enum class BitDepth
  67:../../libDaisy//src/per/sai.h ****         {
  68:../../libDaisy//src/per/sai.h ****             SAI_16BIT,
  69:../../libDaisy//src/per/sai.h ****             SAI_24BIT,
  70:../../libDaisy//src/per/sai.h ****             SAI_32BIT,
  71:../../libDaisy//src/per/sai.h ****         };
ARM GAS  /var/folders/z2/7_lhr9dn53s9tj4s0rwtyswm0000gn/T//ccJ9q3ms.s 			page 87


  72:../../libDaisy//src/per/sai.h **** 
  73:../../libDaisy//src/per/sai.h ****         /** Specifies whether a particular block is the master or the slave 
  74:../../libDaisy//src/per/sai.h ****          ** If both are set to slave, no MCLK signal will be used, and it is
  75:../../libDaisy//src/per/sai.h ****          ** expected that the codec will have its own xtal.
  76:../../libDaisy//src/per/sai.h ****          */
  77:../../libDaisy//src/per/sai.h ****         enum class Sync
  78:../../libDaisy//src/per/sai.h ****         {
  79:../../libDaisy//src/per/sai.h ****             MASTER,
  80:../../libDaisy//src/per/sai.h ****             SLAVE,
  81:../../libDaisy//src/per/sai.h ****         };
  82:../../libDaisy//src/per/sai.h **** 
  83:../../libDaisy//src/per/sai.h ****         /** Specifies the direction for each peripheral block. */
  84:../../libDaisy//src/per/sai.h ****         enum class Direction
  85:../../libDaisy//src/per/sai.h ****         {
  86:../../libDaisy//src/per/sai.h ****             TRANSMIT,
  87:../../libDaisy//src/per/sai.h ****             RECEIVE,
  88:../../libDaisy//src/per/sai.h ****         };
  89:../../libDaisy//src/per/sai.h **** 
  90:../../libDaisy//src/per/sai.h ****         Peripheral periph;
  91:../../libDaisy//src/per/sai.h ****         struct
  92:../../libDaisy//src/per/sai.h ****         {
  93:../../libDaisy//src/per/sai.h ****             dsy_gpio_pin mclk, fs, sck, sa, sb;
  94:../../libDaisy//src/per/sai.h ****         } pin_config;
  95:../../libDaisy//src/per/sai.h ****         SampleRate sr;
  96:../../libDaisy//src/per/sai.h ****         BitDepth   bit_depth;
  97:../../libDaisy//src/per/sai.h ****         Sync       a_sync, b_sync;
  98:../../libDaisy//src/per/sai.h ****         Direction  a_dir, b_dir;
  99:../../libDaisy//src/per/sai.h ****     };
 100:../../libDaisy//src/per/sai.h **** 
 101:../../libDaisy//src/per/sai.h ****     /** Return values for SAI functions */
 102:../../libDaisy//src/per/sai.h ****     enum class Result
 103:../../libDaisy//src/per/sai.h ****     {
 104:../../libDaisy//src/per/sai.h ****         OK,
 105:../../libDaisy//src/per/sai.h ****         ERR,
 106:../../libDaisy//src/per/sai.h ****     };
 107:../../libDaisy//src/per/sai.h **** 
 108:../../libDaisy//src/per/sai.h ****     SaiHandle() : pimpl_(nullptr) {}
 1740              		.loc 22 108 5 is_stmt 1 view .LVU493
 1741              	.LBB697:
 1742              	.LBB698:
 1743              		.loc 22 108 33 is_stmt 0 view .LVU494
 1744 0010 C363     		str	r3, [r0, #60]
 1745              	.LVL104:
 1746              		.loc 22 108 33 view .LVU495
 1747              	.LBE698:
 1748              	.LBE697:
 1749              	.LBE696:
 1750              	.LBE700:
 1751              	.LBE702:
 1752              	.LBB703:
 1753              	.LBI703:
  20:../../libDaisy//src/hid/encoder.h ****     ~Encoder() {}
 1754              		.loc 6 20 5 is_stmt 1 view .LVU496
 1755              	.LBB704:
 1756              	.LBB705:
 1757              	.LBI705:
  41:../../libDaisy//src/hid/switch.h ****     ~Switch() {}
ARM GAS  /var/folders/z2/7_lhr9dn53s9tj4s0rwtyswm0000gn/T//ccJ9q3ms.s 			page 88


 1758              		.loc 4 41 5 view .LVU497
  41:../../libDaisy//src/hid/switch.h ****     ~Switch() {}
 1759              		.loc 4 41 5 is_stmt 0 view .LVU498
 1760              	.LBE705:
 1761              	.LBE704:
 1762              	.LBE703:
 1763              	.LBB706:
 1764              	.LBI706:
  21:../../libDaisy//src/hid/ctrl.h ****     /** destructor */
 1765              		.loc 5 21 5 is_stmt 1 view .LVU499
  21:../../libDaisy//src/hid/ctrl.h ****     /** destructor */
 1766              		.loc 5 21 5 is_stmt 0 view .LVU500
 1767              	.LBE706:
 1768              	.LBB707:
 1769              	.LBI707:
  21:../../libDaisy//src/hid/ctrl.h ****     /** destructor */
 1770              		.loc 5 21 5 is_stmt 1 view .LVU501
  21:../../libDaisy//src/hid/ctrl.h ****     /** destructor */
 1771              		.loc 5 21 5 is_stmt 0 view .LVU502
 1772              	.LBE707:
 1773              	.LBB708:
 1774              	.LBI708:
  21:../../libDaisy//src/hid/ctrl.h ****     /** destructor */
 1775              		.loc 5 21 5 is_stmt 1 view .LVU503
  21:../../libDaisy//src/hid/ctrl.h ****     /** destructor */
 1776              		.loc 5 21 5 is_stmt 0 view .LVU504
 1777              	.LBE708:
 1778              	.LBB709:
 1779              	.LBI709:
  21:../../libDaisy//src/hid/ctrl.h ****     /** destructor */
 1780              		.loc 5 21 5 is_stmt 1 view .LVU505
  21:../../libDaisy//src/hid/ctrl.h ****     /** destructor */
 1781              		.loc 5 21 5 is_stmt 0 view .LVU506
 1782              	.LBE709:
 1783              	.LBB710:
 1784              	.LBI710:
  41:../../libDaisy//src/hid/switch.h ****     ~Switch() {}
 1785              		.loc 4 41 5 is_stmt 1 view .LVU507
  41:../../libDaisy//src/hid/switch.h ****     ~Switch() {}
 1786              		.loc 4 41 5 is_stmt 0 view .LVU508
 1787              	.LBE710:
 1788              	.LBB711:
 1789              	.LBI711:
  41:../../libDaisy//src/hid/switch.h ****     ~Switch() {}
 1790              		.loc 4 41 5 is_stmt 1 view .LVU509
  41:../../libDaisy//src/hid/switch.h ****     ~Switch() {}
 1791              		.loc 4 41 5 is_stmt 0 view .LVU510
 1792              	.LBE711:
 1793              	.LBB712:
 1794              	.LBI712:
  17:../../libDaisy//src/hid/rgb_led.h ****     ~RgbLed() {}
 1795              		.loc 2 17 5 is_stmt 1 view .LVU511
 1796              	.LBB713:
 1797              	.LBB714:
 1798              	.LBI714:
  24:../../libDaisy//src/hid/led.h ****     ~Led() {}
 1799              		.loc 3 24 5 view .LVU512
ARM GAS  /var/folders/z2/7_lhr9dn53s9tj4s0rwtyswm0000gn/T//ccJ9q3ms.s 			page 89


  24:../../libDaisy//src/hid/led.h ****     ~Led() {}
 1800              		.loc 3 24 5 is_stmt 0 view .LVU513
 1801              	.LBE714:
 1802              	.LBB715:
 1803              	.LBI715:
  24:../../libDaisy//src/hid/led.h ****     ~Led() {}
 1804              		.loc 3 24 5 is_stmt 1 view .LVU514
  24:../../libDaisy//src/hid/led.h ****     ~Led() {}
 1805              		.loc 3 24 5 is_stmt 0 view .LVU515
 1806              	.LBE715:
 1807              	.LBB716:
 1808              	.LBI716:
  24:../../libDaisy//src/hid/led.h ****     ~Led() {}
 1809              		.loc 3 24 5 is_stmt 1 view .LVU516
  24:../../libDaisy//src/hid/led.h ****     ~Led() {}
 1810              		.loc 3 24 5 is_stmt 0 view .LVU517
 1811              	.LBE716:
 1812              	.LBE713:
 1813              	.LBE712:
 1814              	.LBE718:
 1815              	.LBE720:
  12:chebyshev.cpp **** 
 1816              		.loc 13 12 12 view .LVU518
 1817 0012 FFF7FEFF 		bl	__aeabi_atexit
 1818              	.LVL105:
 1819              	.LBB721:
 1820              	.LBI721:
  70:shaper.h      ****         static_assert(not (N & (N - 1)), "N not power of 2");
 1821              		.loc 14 70 5 is_stmt 1 view .LVU519
  70:shaper.h      ****         static_assert(not (N & (N - 1)), "N not power of 2");
 1822              		.loc 14 70 5 is_stmt 0 view .LVU520
 1823              	.LBE721:
 1824              	.LBB722:
 1825              	.LBI722:
  70:shaper.h      ****         static_assert(not (N & (N - 1)), "N not power of 2");
 1826              		.loc 14 70 5 is_stmt 1 view .LVU521
  70:shaper.h      ****         static_assert(not (N & (N - 1)), "N not power of 2");
 1827              		.loc 14 70 5 is_stmt 0 view .LVU522
 1828              	.LBE722:
 1829              	.LBB723:
 1830              	.LBI723:
  23:../..//DaisySP//Source/Synthesis/oscillator.h ****     ~Oscillator() {}
 1831              		.loc 12 23 5 is_stmt 1 view .LVU523
  23:../..//DaisySP//Source/Synthesis/oscillator.h ****     ~Oscillator() {}
 1832              		.loc 12 23 5 is_stmt 0 view .LVU524
 1833              	.LBE723:
  19:chebyshev.cpp **** 
 1834              		.loc 13 19 12 view .LVU525
 1835 0016 044A     		ldr	r2, .L51+4
 1836 0018 0549     		ldr	r1, .L51+12
 1837 001a 0648     		ldr	r0, .L51+16
 1838              	.LBE724:
 1839              	.LBE726:
 1840              		.loc 13 104 1 view .LVU526
 1841 001c BDE80840 		pop	{r3, lr}
 1842              		.cfi_restore 14
 1843              		.cfi_restore 3
ARM GAS  /var/folders/z2/7_lhr9dn53s9tj4s0rwtyswm0000gn/T//ccJ9q3ms.s 			page 90


 1844              		.cfi_def_cfa_offset 0
 1845              	.LBB727:
 1846              	.LBB725:
  19:chebyshev.cpp **** 
 1847              		.loc 13 19 12 view .LVU527
 1848 0020 FFF7FEBF 		b	__aeabi_atexit
 1849              	.LVL106:
 1850              	.L52:
 1851              		.align	2
 1852              	.L51:
 1853 0024 00000000 		.word	.LANCHOR0
 1854 0028 00000000 		.word	__dso_handle
 1855 002c 00000000 		.word	_ZN5daisy10TusenskonaD1Ev
 1856 0030 00000000 		.word	_ZN7daisysp10OscillatorD1Ev
 1857 0034 00000000 		.word	.LANCHOR2
 1858              	.LBE725:
 1859              	.LBE727:
 1860              		.cfi_endproc
 1861              	.LFE5366:
 1863              		.section	.init_array,"aw",%init_array
 1864              		.align	2
 1865 0000 00000000 		.word	_GLOBAL__sub_I_hw(target1)
 1866              		.global	z
 1867              		.global	inc2
 1868              		.global	inc
 1869              		.global	ph2
 1870              		.global	ph
 1871              		.global	y
 1872              		.global	x
 1873              		.global	waver
 1874              		.global	sine
 1875              		.global	shaper2
 1876              		.global	shaper
 1877              		.global	freq
 1878              		.global	hw
 1879              		.section	.bss.hw,"aw",%nobits
 1880              		.align	2
 1881              		.set	.LANCHOR0,. + 0
 1884              	hw:
 1885 0000 00000000 		.space	372
 1885      00000000 
 1885      00000000 
 1885      00000000 
 1885      00000000 
 1886              		.section	.bss.ph,"aw",%nobits
 1887              		.align	2
 1888              		.set	.LANCHOR6,. + 0
 1891              	ph:
 1892 0000 00000000 		.space	4
 1893              		.section	.bss.ph2,"aw",%nobits
 1894              		.align	2
 1895              		.set	.LANCHOR7,. + 0
 1898              	ph2:
 1899 0000 00000000 		.space	4
 1900              		.section	.bss.shaper,"aw",%nobits
 1901              		.align	2
 1902              		.set	.LANCHOR18,. + 0
ARM GAS  /var/folders/z2/7_lhr9dn53s9tj4s0rwtyswm0000gn/T//ccJ9q3ms.s 			page 91


 1905              	shaper:
 1906 0000 00000000 		.space	44
 1906      00000000 
 1906      00000000 
 1906      00000000 
 1906      00000000 
 1907              		.section	.bss.shaper2,"aw",%nobits
 1908              		.align	2
 1909              		.set	.LANCHOR19,. + 0
 1912              	shaper2:
 1913 0000 00000000 		.space	44
 1913      00000000 
 1913      00000000 
 1913      00000000 
 1913      00000000 
 1914              		.section	.bss.sine,"aw",%nobits
 1915              		.align	2
 1916              		.set	.LANCHOR2,. + 0
 1919              	sine:
 1920 0000 00000000 		.space	44
 1920      00000000 
 1920      00000000 
 1920      00000000 
 1920      00000000 
 1921              		.section	.bss.waver,"aw",%nobits
 1922              		.align	2
 1923              		.set	.LANCHOR20,. + 0
 1926              	waver:
 1927 0000 00000000 		.space	2048
 1927      00000000 
 1927      00000000 
 1927      00000000 
 1927      00000000 
 1928              		.section	.bss.x,"aw",%nobits
 1929              		.align	2
 1932              	x:
 1933 0000 00000000 		.space	4
 1934              		.section	.bss.y,"aw",%nobits
 1935              		.align	2
 1938              	y:
 1939 0000 00000000 		.space	4
 1940              		.section	.bss.z,"aw",%nobits
 1941              		.align	2
 1942              		.set	.LANCHOR5,. + 0
 1945              	z:
 1946 0000 00000000 		.space	4
 1947              		.section	.data.freq,"aw"
 1948              		.align	2
 1949              		.set	.LANCHOR1,. + 0
 1952              	freq:
 1953 0000 0000DC43 		.word	1138491392
 1954              		.section	.data.inc,"aw"
 1955              		.align	2
 1956              		.set	.LANCHOR3,. + 0
 1959              	inc:
 1960 0000 ACC52737 		.word	925353388
 1961              		.section	.data.inc2,"aw"
ARM GAS  /var/folders/z2/7_lhr9dn53s9tj4s0rwtyswm0000gn/T//ccJ9q3ms.s 			page 92


 1962              		.align	2
 1963              		.set	.LANCHOR4,. + 0
 1966              	inc2:
 1967 0000 17B7D138 		.word	953267991
 1968              		.section	.rodata._ZN7daisyspL2c1E,"a"
 1969              		.align	2
 1970              		.set	.LANCHOR8,. + 0
 1973              	_ZN7daisyspL2c1E:
 1974 0000 000080BF 		.word	-1082130432
 1975 0004 80FF7EBF 		.word	-1082196096
 1976 0008 FFFE7DBF 		.word	-1082261761
 1977 000c 7FFE7CBF 		.word	-1082327425
 1978 0010 FFFD7BBF 		.word	-1082393089
 1979 0014 7FFD7ABF 		.word	-1082458753
 1980 0018 FEFC79BF 		.word	-1082524418
 1981 001c 7EFC78BF 		.word	-1082590082
 1982 0020 FEFB77BF 		.word	-1082655746
 1983 0024 7EFB76BF 		.word	-1082721410
 1984 0028 FDFA75BF 		.word	-1082787075
 1985 002c 7DFA74BF 		.word	-1082852739
 1986 0030 FDF973BF 		.word	-1082918403
 1987 0034 7DF972BF 		.word	-1082984067
 1988 0038 FCF871BF 		.word	-1083049732
 1989 003c 7CF870BF 		.word	-1083115396
 1990 0040 FCF76FBF 		.word	-1083181060
 1991 0044 7CF76EBF 		.word	-1083246724
 1992 0048 FBF66DBF 		.word	-1083312389
 1993 004c 7BF66CBF 		.word	-1083378053
 1994 0050 FBF56BBF 		.word	-1083443717
 1995 0054 7BF56ABF 		.word	-1083509381
 1996 0058 FAF469BF 		.word	-1083575046
 1997 005c 7AF468BF 		.word	-1083640710
 1998 0060 FAF367BF 		.word	-1083706374
 1999 0064 7AF366BF 		.word	-1083772038
 2000 0068 F9F265BF 		.word	-1083837703
 2001 006c 79F264BF 		.word	-1083903367
 2002 0070 F9F163BF 		.word	-1083969031
 2003 0074 79F162BF 		.word	-1084034695
 2004 0078 F8F061BF 		.word	-1084100360
 2005 007c 78F060BF 		.word	-1084166024
 2006 0080 F8EF5FBF 		.word	-1084231688
 2007 0084 78EF5EBF 		.word	-1084297352
 2008 0088 F7EE5DBF 		.word	-1084363017
 2009 008c 77EE5CBF 		.word	-1084428681
 2010 0090 F7ED5BBF 		.word	-1084494345
 2011 0094 77ED5ABF 		.word	-1084560009
 2012 0098 F6EC59BF 		.word	-1084625674
 2013 009c 76EC58BF 		.word	-1084691338
 2014 00a0 F6EB57BF 		.word	-1084757002
 2015 00a4 76EB56BF 		.word	-1084822666
 2016 00a8 F5EA55BF 		.word	-1084888331
 2017 00ac 75EA54BF 		.word	-1084953995
 2018 00b0 F5E953BF 		.word	-1085019659
 2019 00b4 75E952BF 		.word	-1085085323
 2020 00b8 F4E851BF 		.word	-1085150988
 2021 00bc 74E850BF 		.word	-1085216652
 2022 00c0 F4E74FBF 		.word	-1085282316
ARM GAS  /var/folders/z2/7_lhr9dn53s9tj4s0rwtyswm0000gn/T//ccJ9q3ms.s 			page 93


 2023 00c4 74E74EBF 		.word	-1085347980
 2024 00c8 F3E64DBF 		.word	-1085413645
 2025 00cc 73E64CBF 		.word	-1085479309
 2026 00d0 F3E54BBF 		.word	-1085544973
 2027 00d4 73E54ABF 		.word	-1085610637
 2028 00d8 F2E449BF 		.word	-1085676302
 2029 00dc 72E448BF 		.word	-1085741966
 2030 00e0 F2E347BF 		.word	-1085807630
 2031 00e4 72E346BF 		.word	-1085873294
 2032 00e8 F1E245BF 		.word	-1085938959
 2033 00ec 71E244BF 		.word	-1086004623
 2034 00f0 F1E143BF 		.word	-1086070287
 2035 00f4 71E142BF 		.word	-1086135951
 2036 00f8 F0E041BF 		.word	-1086201616
 2037 00fc 70E040BF 		.word	-1086267280
 2038 0100 F0DF3FBF 		.word	-1086332944
 2039 0104 70DF3EBF 		.word	-1086398608
 2040 0108 EFDE3DBF 		.word	-1086464273
 2041 010c 6FDE3CBF 		.word	-1086529937
 2042 0110 EFDD3BBF 		.word	-1086595601
 2043 0114 6FDD3ABF 		.word	-1086661265
 2044 0118 EEDC39BF 		.word	-1086726930
 2045 011c 6EDC38BF 		.word	-1086792594
 2046 0120 EEDB37BF 		.word	-1086858258
 2047 0124 6EDB36BF 		.word	-1086923922
 2048 0128 EDDA35BF 		.word	-1086989587
 2049 012c 6DDA34BF 		.word	-1087055251
 2050 0130 EDD933BF 		.word	-1087120915
 2051 0134 6DD932BF 		.word	-1087186579
 2052 0138 ECD831BF 		.word	-1087252244
 2053 013c 6CD830BF 		.word	-1087317908
 2054 0140 ECD72FBF 		.word	-1087383572
 2055 0144 6CD72EBF 		.word	-1087449236
 2056 0148 EBD62DBF 		.word	-1087514901
 2057 014c 6BD62CBF 		.word	-1087580565
 2058 0150 EBD52BBF 		.word	-1087646229
 2059 0154 6BD52ABF 		.word	-1087711893
 2060 0158 EAD429BF 		.word	-1087777558
 2061 015c 6AD428BF 		.word	-1087843222
 2062 0160 EAD327BF 		.word	-1087908886
 2063 0164 6AD326BF 		.word	-1087974550
 2064 0168 E9D225BF 		.word	-1088040215
 2065 016c 69D224BF 		.word	-1088105879
 2066 0170 E9D123BF 		.word	-1088171543
 2067 0174 69D122BF 		.word	-1088237207
 2068 0178 E8D021BF 		.word	-1088302872
 2069 017c 68D020BF 		.word	-1088368536
 2070 0180 E8CF1FBF 		.word	-1088434200
 2071 0184 68CF1EBF 		.word	-1088499864
 2072 0188 E7CE1DBF 		.word	-1088565529
 2073 018c 67CE1CBF 		.word	-1088631193
 2074 0190 E7CD1BBF 		.word	-1088696857
 2075 0194 67CD1ABF 		.word	-1088762521
 2076 0198 E6CC19BF 		.word	-1088828186
 2077 019c 66CC18BF 		.word	-1088893850
 2078 01a0 E6CB17BF 		.word	-1088959514
 2079 01a4 66CB16BF 		.word	-1089025178
ARM GAS  /var/folders/z2/7_lhr9dn53s9tj4s0rwtyswm0000gn/T//ccJ9q3ms.s 			page 94


 2080 01a8 E5CA15BF 		.word	-1089090843
 2081 01ac 65CA14BF 		.word	-1089156507
 2082 01b0 E5C913BF 		.word	-1089222171
 2083 01b4 65C912BF 		.word	-1089287835
 2084 01b8 E4C811BF 		.word	-1089353500
 2085 01bc 64C810BF 		.word	-1089419164
 2086 01c0 E4C70FBF 		.word	-1089484828
 2087 01c4 64C70EBF 		.word	-1089550492
 2088 01c8 E3C60DBF 		.word	-1089616157
 2089 01cc 63C60CBF 		.word	-1089681821
 2090 01d0 E3C50BBF 		.word	-1089747485
 2091 01d4 63C50ABF 		.word	-1089813149
 2092 01d8 E2C409BF 		.word	-1089878814
 2093 01dc 62C408BF 		.word	-1089944478
 2094 01e0 E2C307BF 		.word	-1090010142
 2095 01e4 62C306BF 		.word	-1090075806
 2096 01e8 E1C205BF 		.word	-1090141471
 2097 01ec 61C204BF 		.word	-1090207135
 2098 01f0 E1C103BF 		.word	-1090272799
 2099 01f4 61C102BF 		.word	-1090338463
 2100 01f8 E0C001BF 		.word	-1090404128
 2101 01fc 60C000BF 		.word	-1090469792
 2102 0200 C07FFFBE 		.word	-1090551872
 2103 0204 BF7EFDBE 		.word	-1090683201
 2104 0208 BF7DFBBE 		.word	-1090814529
 2105 020c BE7CF9BE 		.word	-1090945858
 2106 0210 BE7BF7BE 		.word	-1091077186
 2107 0214 BD7AF5BE 		.word	-1091208515
 2108 0218 BD79F3BE 		.word	-1091339843
 2109 021c BC78F1BE 		.word	-1091471172
 2110 0220 BC77EFBE 		.word	-1091602500
 2111 0224 BB76EDBE 		.word	-1091733829
 2112 0228 BB75EBBE 		.word	-1091865157
 2113 022c BA74E9BE 		.word	-1091996486
 2114 0230 BA73E7BE 		.word	-1092127814
 2115 0234 B972E5BE 		.word	-1092259143
 2116 0238 B971E3BE 		.word	-1092390471
 2117 023c B870E1BE 		.word	-1092521800
 2118 0240 B86FDFBE 		.word	-1092653128
 2119 0244 B76EDDBE 		.word	-1092784457
 2120 0248 B76DDBBE 		.word	-1092915785
 2121 024c B66CD9BE 		.word	-1093047114
 2122 0250 B66BD7BE 		.word	-1093178442
 2123 0254 B56AD5BE 		.word	-1093309771
 2124 0258 B569D3BE 		.word	-1093441099
 2125 025c B468D1BE 		.word	-1093572428
 2126 0260 B467CFBE 		.word	-1093703756
 2127 0264 B366CDBE 		.word	-1093835085
 2128 0268 B365CBBE 		.word	-1093966413
 2129 026c B264C9BE 		.word	-1094097742
 2130 0270 B263C7BE 		.word	-1094229070
 2131 0274 B162C5BE 		.word	-1094360399
 2132 0278 B161C3BE 		.word	-1094491727
 2133 027c B060C1BE 		.word	-1094623056
 2134 0280 B05FBFBE 		.word	-1094754384
 2135 0284 AF5EBDBE 		.word	-1094885713
 2136 0288 AF5DBBBE 		.word	-1095017041
ARM GAS  /var/folders/z2/7_lhr9dn53s9tj4s0rwtyswm0000gn/T//ccJ9q3ms.s 			page 95


 2137 028c AE5CB9BE 		.word	-1095148370
 2138 0290 AE5BB7BE 		.word	-1095279698
 2139 0294 AD5AB5BE 		.word	-1095411027
 2140 0298 AD59B3BE 		.word	-1095542355
 2141 029c AC58B1BE 		.word	-1095673684
 2142 02a0 AC57AFBE 		.word	-1095805012
 2143 02a4 AB56ADBE 		.word	-1095936341
 2144 02a8 AB55ABBE 		.word	-1096067669
 2145 02ac AA54A9BE 		.word	-1096198998
 2146 02b0 AA53A7BE 		.word	-1096330326
 2147 02b4 A952A5BE 		.word	-1096461655
 2148 02b8 A951A3BE 		.word	-1096592983
 2149 02bc A850A1BE 		.word	-1096724312
 2150 02c0 A84F9FBE 		.word	-1096855640
 2151 02c4 A74E9DBE 		.word	-1096986969
 2152 02c8 A74D9BBE 		.word	-1097118297
 2153 02cc A64C99BE 		.word	-1097249626
 2154 02d0 A64B97BE 		.word	-1097380954
 2155 02d4 A54A95BE 		.word	-1097512283
 2156 02d8 A54993BE 		.word	-1097643611
 2157 02dc A44891BE 		.word	-1097774940
 2158 02e0 A4478FBE 		.word	-1097906268
 2159 02e4 A3468DBE 		.word	-1098037597
 2160 02e8 A3458BBE 		.word	-1098168925
 2161 02ec A24489BE 		.word	-1098300254
 2162 02f0 A24387BE 		.word	-1098431582
 2163 02f4 A14285BE 		.word	-1098562911
 2164 02f8 A14183BE 		.word	-1098694239
 2165 02fc A04081BE 		.word	-1098825568
 2166 0300 407F7EBE 		.word	-1099006144
 2167 0304 3F7D7ABE 		.word	-1099268801
 2168 0308 3E7B76BE 		.word	-1099531458
 2169 030c 3D7972BE 		.word	-1099794115
 2170 0310 3C776EBE 		.word	-1100056772
 2171 0314 3B756ABE 		.word	-1100319429
 2172 0318 3A7366BE 		.word	-1100582086
 2173 031c 397162BE 		.word	-1100844743
 2174 0320 386F5EBE 		.word	-1101107400
 2175 0324 376D5ABE 		.word	-1101370057
 2176 0328 366B56BE 		.word	-1101632714
 2177 032c 356952BE 		.word	-1101895371
 2178 0330 34674EBE 		.word	-1102158028
 2179 0334 33654ABE 		.word	-1102420685
 2180 0338 326346BE 		.word	-1102683342
 2181 033c 316142BE 		.word	-1102945999
 2182 0340 305F3EBE 		.word	-1103208656
 2183 0344 2F5D3ABE 		.word	-1103471313
 2184 0348 2E5B36BE 		.word	-1103733970
 2185 034c 2D5932BE 		.word	-1103996627
 2186 0350 2C572EBE 		.word	-1104259284
 2187 0354 2B552ABE 		.word	-1104521941
 2188 0358 2A5326BE 		.word	-1104784598
 2189 035c 295122BE 		.word	-1105047255
 2190 0360 284F1EBE 		.word	-1105309912
 2191 0364 274D1ABE 		.word	-1105572569
 2192 0368 264B16BE 		.word	-1105835226
 2193 036c 254912BE 		.word	-1106097883
ARM GAS  /var/folders/z2/7_lhr9dn53s9tj4s0rwtyswm0000gn/T//ccJ9q3ms.s 			page 96


 2194 0370 24470EBE 		.word	-1106360540
 2195 0374 23450ABE 		.word	-1106623197
 2196 0378 224306BE 		.word	-1106885854
 2197 037c 214102BE 		.word	-1107148511
 2198 0380 3F7EFCBD 		.word	-1107526081
 2199 0384 3D7AF4BD 		.word	-1108051395
 2200 0388 3B76ECBD 		.word	-1108576709
 2201 038c 3972E4BD 		.word	-1109102023
 2202 0390 376EDCBD 		.word	-1109627337
 2203 0394 356AD4BD 		.word	-1110152651
 2204 0398 3366CCBD 		.word	-1110677965
 2205 039c 3162C4BD 		.word	-1111203279
 2206 03a0 2F5EBCBD 		.word	-1111728593
 2207 03a4 2D5AB4BD 		.word	-1112253907
 2208 03a8 2B56ACBD 		.word	-1112779221
 2209 03ac 2952A4BD 		.word	-1113304535
 2210 03b0 274E9CBD 		.word	-1113829849
 2211 03b4 254A94BD 		.word	-1114355163
 2212 03b8 23468CBD 		.word	-1114880477
 2213 03bc 214284BD 		.word	-1115405791
 2214 03c0 3E7C78BD 		.word	-1116177346
 2215 03c4 3A7468BD 		.word	-1117227974
 2216 03c8 366C58BD 		.word	-1118278602
 2217 03cc 326448BD 		.word	-1119329230
 2218 03d0 2E5C38BD 		.word	-1120379858
 2219 03d4 2A5428BD 		.word	-1121430486
 2220 03d8 264C18BD 		.word	-1122481114
 2221 03dc 224408BD 		.word	-1123531742
 2222 03e0 3C78F0BC 		.word	-1125091268
 2223 03e4 3468D0BC 		.word	-1127192524
 2224 03e8 2C58B0BC 		.word	-1129293780
 2225 03ec 244890BC 		.word	-1131395036
 2226 03f0 387060BC 		.word	-1134530504
 2227 03f4 285020BC 		.word	-1138733016
 2228 03f8 3060C0BB 		.word	-1145020368
 2229 03fc 204000BB 		.word	-1157611488
 2230 0400 2040003B 		.word	989872160
 2231 0404 3060C03B 		.word	1002463280
 2232 0408 2850203C 		.word	1008750632
 2233 040c 3870603C 		.word	1012953144
 2234 0410 2448903C 		.word	1016088612
 2235 0414 2C58B03C 		.word	1018189868
 2236 0418 3468D03C 		.word	1020291124
 2237 041c 3C78F03C 		.word	1022392380
 2238 0420 2244083D 		.word	1023951906
 2239 0424 264C183D 		.word	1025002534
 2240 0428 2A54283D 		.word	1026053162
 2241 042c 2E5C383D 		.word	1027103790
 2242 0430 3264483D 		.word	1028154418
 2243 0434 366C583D 		.word	1029205046
 2244 0438 3A74683D 		.word	1030255674
 2245 043c 3E7C783D 		.word	1031306302
 2246 0440 2142843D 		.word	1032077857
 2247 0444 23468C3D 		.word	1032603171
 2248 0448 254A943D 		.word	1033128485
 2249 044c 274E9C3D 		.word	1033653799
 2250 0450 2952A43D 		.word	1034179113
ARM GAS  /var/folders/z2/7_lhr9dn53s9tj4s0rwtyswm0000gn/T//ccJ9q3ms.s 			page 97


 2251 0454 2B56AC3D 		.word	1034704427
 2252 0458 2D5AB43D 		.word	1035229741
 2253 045c 2F5EBC3D 		.word	1035755055
 2254 0460 3162C43D 		.word	1036280369
 2255 0464 3366CC3D 		.word	1036805683
 2256 0468 356AD43D 		.word	1037330997
 2257 046c 376EDC3D 		.word	1037856311
 2258 0470 3972E43D 		.word	1038381625
 2259 0474 3B76EC3D 		.word	1038906939
 2260 0478 3D7AF43D 		.word	1039432253
 2261 047c 3F7EFC3D 		.word	1039957567
 2262 0480 2141023E 		.word	1040335137
 2263 0484 2243063E 		.word	1040597794
 2264 0488 23450A3E 		.word	1040860451
 2265 048c 24470E3E 		.word	1041123108
 2266 0490 2549123E 		.word	1041385765
 2267 0494 264B163E 		.word	1041648422
 2268 0498 274D1A3E 		.word	1041911079
 2269 049c 284F1E3E 		.word	1042173736
 2270 04a0 2951223E 		.word	1042436393
 2271 04a4 2A53263E 		.word	1042699050
 2272 04a8 2B552A3E 		.word	1042961707
 2273 04ac 2C572E3E 		.word	1043224364
 2274 04b0 2D59323E 		.word	1043487021
 2275 04b4 2E5B363E 		.word	1043749678
 2276 04b8 2F5D3A3E 		.word	1044012335
 2277 04bc 305F3E3E 		.word	1044274992
 2278 04c0 3161423E 		.word	1044537649
 2279 04c4 3263463E 		.word	1044800306
 2280 04c8 33654A3E 		.word	1045062963
 2281 04cc 34674E3E 		.word	1045325620
 2282 04d0 3569523E 		.word	1045588277
 2283 04d4 366B563E 		.word	1045850934
 2284 04d8 376D5A3E 		.word	1046113591
 2285 04dc 386F5E3E 		.word	1046376248
 2286 04e0 3971623E 		.word	1046638905
 2287 04e4 3A73663E 		.word	1046901562
 2288 04e8 3B756A3E 		.word	1047164219
 2289 04ec 3C776E3E 		.word	1047426876
 2290 04f0 3D79723E 		.word	1047689533
 2291 04f4 3E7B763E 		.word	1047952190
 2292 04f8 3F7D7A3E 		.word	1048214847
 2293 04fc 407F7E3E 		.word	1048477504
 2294 0500 A040813E 		.word	1048658080
 2295 0504 A141833E 		.word	1048789409
 2296 0508 A142853E 		.word	1048920737
 2297 050c A243873E 		.word	1049052066
 2298 0510 A244893E 		.word	1049183394
 2299 0514 A3458B3E 		.word	1049314723
 2300 0518 A3468D3E 		.word	1049446051
 2301 051c A4478F3E 		.word	1049577380
 2302 0520 A448913E 		.word	1049708708
 2303 0524 A549933E 		.word	1049840037
 2304 0528 A54A953E 		.word	1049971365
 2305 052c A64B973E 		.word	1050102694
 2306 0530 A64C993E 		.word	1050234022
 2307 0534 A74D9B3E 		.word	1050365351
ARM GAS  /var/folders/z2/7_lhr9dn53s9tj4s0rwtyswm0000gn/T//ccJ9q3ms.s 			page 98


 2308 0538 A74E9D3E 		.word	1050496679
 2309 053c A84F9F3E 		.word	1050628008
 2310 0540 A850A13E 		.word	1050759336
 2311 0544 A951A33E 		.word	1050890665
 2312 0548 A952A53E 		.word	1051021993
 2313 054c AA53A73E 		.word	1051153322
 2314 0550 AA54A93E 		.word	1051284650
 2315 0554 AB55AB3E 		.word	1051415979
 2316 0558 AB56AD3E 		.word	1051547307
 2317 055c AC57AF3E 		.word	1051678636
 2318 0560 AC58B13E 		.word	1051809964
 2319 0564 AD59B33E 		.word	1051941293
 2320 0568 AD5AB53E 		.word	1052072621
 2321 056c AE5BB73E 		.word	1052203950
 2322 0570 AE5CB93E 		.word	1052335278
 2323 0574 AF5DBB3E 		.word	1052466607
 2324 0578 AF5EBD3E 		.word	1052597935
 2325 057c B05FBF3E 		.word	1052729264
 2326 0580 B060C13E 		.word	1052860592
 2327 0584 B161C33E 		.word	1052991921
 2328 0588 B162C53E 		.word	1053123249
 2329 058c B263C73E 		.word	1053254578
 2330 0590 B264C93E 		.word	1053385906
 2331 0594 B365CB3E 		.word	1053517235
 2332 0598 B366CD3E 		.word	1053648563
 2333 059c B467CF3E 		.word	1053779892
 2334 05a0 B468D13E 		.word	1053911220
 2335 05a4 B569D33E 		.word	1054042549
 2336 05a8 B56AD53E 		.word	1054173877
 2337 05ac B66BD73E 		.word	1054305206
 2338 05b0 B66CD93E 		.word	1054436534
 2339 05b4 B76DDB3E 		.word	1054567863
 2340 05b8 B76EDD3E 		.word	1054699191
 2341 05bc B86FDF3E 		.word	1054830520
 2342 05c0 B870E13E 		.word	1054961848
 2343 05c4 B971E33E 		.word	1055093177
 2344 05c8 B972E53E 		.word	1055224505
 2345 05cc BA73E73E 		.word	1055355834
 2346 05d0 BA74E93E 		.word	1055487162
 2347 05d4 BB75EB3E 		.word	1055618491
 2348 05d8 BB76ED3E 		.word	1055749819
 2349 05dc BC77EF3E 		.word	1055881148
 2350 05e0 BC78F13E 		.word	1056012476
 2351 05e4 BD79F33E 		.word	1056143805
 2352 05e8 BD7AF53E 		.word	1056275133
 2353 05ec BE7BF73E 		.word	1056406462
 2354 05f0 BE7CF93E 		.word	1056537790
 2355 05f4 BF7DFB3E 		.word	1056669119
 2356 05f8 BF7EFD3E 		.word	1056800447
 2357 05fc C07FFF3E 		.word	1056931776
 2358 0600 60C0003F 		.word	1057013856
 2359 0604 E0C0013F 		.word	1057079520
 2360 0608 61C1023F 		.word	1057145185
 2361 060c E1C1033F 		.word	1057210849
 2362 0610 61C2043F 		.word	1057276513
 2363 0614 E1C2053F 		.word	1057342177
 2364 0618 62C3063F 		.word	1057407842
ARM GAS  /var/folders/z2/7_lhr9dn53s9tj4s0rwtyswm0000gn/T//ccJ9q3ms.s 			page 99


 2365 061c E2C3073F 		.word	1057473506
 2366 0620 62C4083F 		.word	1057539170
 2367 0624 E2C4093F 		.word	1057604834
 2368 0628 63C50A3F 		.word	1057670499
 2369 062c E3C50B3F 		.word	1057736163
 2370 0630 63C60C3F 		.word	1057801827
 2371 0634 E3C60D3F 		.word	1057867491
 2372 0638 64C70E3F 		.word	1057933156
 2373 063c E4C70F3F 		.word	1057998820
 2374 0640 64C8103F 		.word	1058064484
 2375 0644 E4C8113F 		.word	1058130148
 2376 0648 65C9123F 		.word	1058195813
 2377 064c E5C9133F 		.word	1058261477
 2378 0650 65CA143F 		.word	1058327141
 2379 0654 E5CA153F 		.word	1058392805
 2380 0658 66CB163F 		.word	1058458470
 2381 065c E6CB173F 		.word	1058524134
 2382 0660 66CC183F 		.word	1058589798
 2383 0664 E6CC193F 		.word	1058655462
 2384 0668 67CD1A3F 		.word	1058721127
 2385 066c E7CD1B3F 		.word	1058786791
 2386 0670 67CE1C3F 		.word	1058852455
 2387 0674 E7CE1D3F 		.word	1058918119
 2388 0678 68CF1E3F 		.word	1058983784
 2389 067c E8CF1F3F 		.word	1059049448
 2390 0680 68D0203F 		.word	1059115112
 2391 0684 E8D0213F 		.word	1059180776
 2392 0688 69D1223F 		.word	1059246441
 2393 068c E9D1233F 		.word	1059312105
 2394 0690 69D2243F 		.word	1059377769
 2395 0694 E9D2253F 		.word	1059443433
 2396 0698 6AD3263F 		.word	1059509098
 2397 069c EAD3273F 		.word	1059574762
 2398 06a0 6AD4283F 		.word	1059640426
 2399 06a4 EAD4293F 		.word	1059706090
 2400 06a8 6BD52A3F 		.word	1059771755
 2401 06ac EBD52B3F 		.word	1059837419
 2402 06b0 6BD62C3F 		.word	1059903083
 2403 06b4 EBD62D3F 		.word	1059968747
 2404 06b8 6CD72E3F 		.word	1060034412
 2405 06bc ECD72F3F 		.word	1060100076
 2406 06c0 6CD8303F 		.word	1060165740
 2407 06c4 ECD8313F 		.word	1060231404
 2408 06c8 6DD9323F 		.word	1060297069
 2409 06cc EDD9333F 		.word	1060362733
 2410 06d0 6DDA343F 		.word	1060428397
 2411 06d4 EDDA353F 		.word	1060494061
 2412 06d8 6EDB363F 		.word	1060559726
 2413 06dc EEDB373F 		.word	1060625390
 2414 06e0 6EDC383F 		.word	1060691054
 2415 06e4 EEDC393F 		.word	1060756718
 2416 06e8 6FDD3A3F 		.word	1060822383
 2417 06ec EFDD3B3F 		.word	1060888047
 2418 06f0 6FDE3C3F 		.word	1060953711
 2419 06f4 EFDE3D3F 		.word	1061019375
 2420 06f8 70DF3E3F 		.word	1061085040
 2421 06fc F0DF3F3F 		.word	1061150704
ARM GAS  /var/folders/z2/7_lhr9dn53s9tj4s0rwtyswm0000gn/T//ccJ9q3ms.s 			page 100


 2422 0700 70E0403F 		.word	1061216368
 2423 0704 F0E0413F 		.word	1061282032
 2424 0708 71E1423F 		.word	1061347697
 2425 070c F1E1433F 		.word	1061413361
 2426 0710 71E2443F 		.word	1061479025
 2427 0714 F1E2453F 		.word	1061544689
 2428 0718 72E3463F 		.word	1061610354
 2429 071c F2E3473F 		.word	1061676018
 2430 0720 72E4483F 		.word	1061741682
 2431 0724 F2E4493F 		.word	1061807346
 2432 0728 73E54A3F 		.word	1061873011
 2433 072c F3E54B3F 		.word	1061938675
 2434 0730 73E64C3F 		.word	1062004339
 2435 0734 F3E64D3F 		.word	1062070003
 2436 0738 74E74E3F 		.word	1062135668
 2437 073c F4E74F3F 		.word	1062201332
 2438 0740 74E8503F 		.word	1062266996
 2439 0744 F4E8513F 		.word	1062332660
 2440 0748 75E9523F 		.word	1062398325
 2441 074c F5E9533F 		.word	1062463989
 2442 0750 75EA543F 		.word	1062529653
 2443 0754 F5EA553F 		.word	1062595317
 2444 0758 76EB563F 		.word	1062660982
 2445 075c F6EB573F 		.word	1062726646
 2446 0760 76EC583F 		.word	1062792310
 2447 0764 F6EC593F 		.word	1062857974
 2448 0768 77ED5A3F 		.word	1062923639
 2449 076c F7ED5B3F 		.word	1062989303
 2450 0770 77EE5C3F 		.word	1063054967
 2451 0774 F7EE5D3F 		.word	1063120631
 2452 0778 78EF5E3F 		.word	1063186296
 2453 077c F8EF5F3F 		.word	1063251960
 2454 0780 78F0603F 		.word	1063317624
 2455 0784 F8F0613F 		.word	1063383288
 2456 0788 79F1623F 		.word	1063448953
 2457 078c F9F1633F 		.word	1063514617
 2458 0790 79F2643F 		.word	1063580281
 2459 0794 F9F2653F 		.word	1063645945
 2460 0798 7AF3663F 		.word	1063711610
 2461 079c FAF3673F 		.word	1063777274
 2462 07a0 7AF4683F 		.word	1063842938
 2463 07a4 FAF4693F 		.word	1063908602
 2464 07a8 7BF56A3F 		.word	1063974267
 2465 07ac FBF56B3F 		.word	1064039931
 2466 07b0 7BF66C3F 		.word	1064105595
 2467 07b4 FBF66D3F 		.word	1064171259
 2468 07b8 7CF76E3F 		.word	1064236924
 2469 07bc FCF76F3F 		.word	1064302588
 2470 07c0 7CF8703F 		.word	1064368252
 2471 07c4 FCF8713F 		.word	1064433916
 2472 07c8 7DF9723F 		.word	1064499581
 2473 07cc FDF9733F 		.word	1064565245
 2474 07d0 7DFA743F 		.word	1064630909
 2475 07d4 FDFA753F 		.word	1064696573
 2476 07d8 7EFB763F 		.word	1064762238
 2477 07dc FEFB773F 		.word	1064827902
 2478 07e0 7EFC783F 		.word	1064893566
ARM GAS  /var/folders/z2/7_lhr9dn53s9tj4s0rwtyswm0000gn/T//ccJ9q3ms.s 			page 101


 2479 07e4 FEFC793F 		.word	1064959230
 2480 07e8 7FFD7A3F 		.word	1065024895
 2481 07ec FFFD7B3F 		.word	1065090559
 2482 07f0 7FFE7C3F 		.word	1065156223
 2483 07f4 FFFE7D3F 		.word	1065221887
 2484 07f8 80FF7E3F 		.word	1065287552
 2485 07fc 0000803F 		.word	1065353216
 2486              		.section	.rodata._ZN7daisyspL2c2E,"a"
 2487              		.align	2
 2488              		.set	.LANCHOR9,. + 0
 2491              	_ZN7daisyspL2c2E:
 2492 0000 0000803F 		.word	1065353216
 2493 0004 01007C3F 		.word	1065091073
 2494 0008 0604783F 		.word	1064829958
 2495 000c 0F0C743F 		.word	1064569871
 2496 0010 1C18703F 		.word	1064310812
 2497 0014 2D286C3F 		.word	1064052781
 2498 0018 423C683F 		.word	1063795778
 2499 001c 5B54643F 		.word	1063539803
 2500 0020 7870603F 		.word	1063284856
 2501 0024 99905C3F 		.word	1063030937
 2502 0028 BFB4583F 		.word	1062778047
 2503 002c E8DC543F 		.word	1062526184
 2504 0030 1509513F 		.word	1062275349
 2505 0034 46394D3F 		.word	1062025542
 2506 0038 7B6D493F 		.word	1061776763
 2507 003c B4A5453F 		.word	1061529012
 2508 0040 F1E1413F 		.word	1061282289
 2509 0044 33223E3F 		.word	1061036595
 2510 0048 78663A3F 		.word	1060791928
 2511 004c C1AE363F 		.word	1060548289
 2512 0050 0EFB323F 		.word	1060305678
 2513 0054 604B2F3F 		.word	1060064096
 2514 0058 B59F2B3F 		.word	1059823541
 2515 005c 0EF8273F 		.word	1059584014
 2516 0060 6B54243F 		.word	1059345515
 2517 0064 CDB4203F 		.word	1059108045
 2518 0068 32191D3F 		.word	1058871602
 2519 006c 9B81193F 		.word	1058636187
 2520 0070 09EE153F 		.word	1058401801
 2521 0074 7A5E123F 		.word	1058168442
 2522 0078 EFD20E3F 		.word	1057936111
 2523 007c 694B0B3F 		.word	1057704809
 2524 0080 E6C7073F 		.word	1057474534
 2525 0084 6748043F 		.word	1057245287
 2526 0088 EDCC003F 		.word	1057017069
 2527 008c ECAAFA3E 		.word	1056615148
 2528 0090 07C4F33E 		.word	1056162823
 2529 0094 2AE5EC3E 		.word	1055712554
 2530 0098 550EE63E 		.word	1055264341
 2531 009c 883FDF3E 		.word	1054818184
 2532 00a0 C378D83E 		.word	1054374083
 2533 00a4 06BAD13E 		.word	1053932038
 2534 00a8 5103CB3E 		.word	1053492049
 2535 00ac A454C43E 		.word	1053054116
 2536 00b0 FFADBD3E 		.word	1052618239
 2537 00b4 620FB73E 		.word	1052184418
ARM GAS  /var/folders/z2/7_lhr9dn53s9tj4s0rwtyswm0000gn/T//ccJ9q3ms.s 			page 102


 2538 00b8 CD78B03E 		.word	1051752653
 2539 00bc 40EAA93E 		.word	1051322944
 2540 00c0 BB63A33E 		.word	1050895291
 2541 00c4 3EE59C3E 		.word	1050469694
 2542 00c8 C96E963E 		.word	1050046153
 2543 00cc 5C00903E 		.word	1049624668
 2544 00d0 F899893E 		.word	1049205240
 2545 00d4 9B3B833E 		.word	1048787867
 2546 00d8 8CCA793E 		.word	1048169100
 2547 00dc F32D6D3E 		.word	1047342579
 2548 00e0 69A1603E 		.word	1046520169
 2549 00e4 F024543E 		.word	1045701872
 2550 00e8 87B8473E 		.word	1044887687
 2551 00ec 2D5C3B3E 		.word	1044077613
 2552 00f0 E40F2F3E 		.word	1043271652
 2553 00f4 ABD3223E 		.word	1042469803
 2554 00f8 82A7163E 		.word	1041672066
 2555 00fc 698B0A3E 		.word	1040878441
 2556 0100 BFFEFC3D 		.word	1039990463
 2557 0104 CE06E53D 		.word	1038419662
 2558 0108 FC2ECD3D 		.word	1036857084
 2559 010c 4A77B53D 		.word	1035302730
 2560 0110 B8DF9D3D 		.word	1033756600
 2561 0114 4768863D 		.word	1032218695
 2562 0118 EA215E3D 		.word	1029579242
 2563 011c 88B32F3D 		.word	1026536328
 2564 0120 6585013D 		.word	1023509861
 2565 0124 052FA73C 		.word	1017589509
 2566 0128 82A7173C 		.word	1008183170
 2567 012c 3470F0BA 		.word	-1158647756
 2568 0130 8EC252BC 		.word	-1135426930
 2569 0134 0A3BC3BC 		.word	-1128056054
 2570 0138 274A0EBD 		.word	-1123136985
 2571 013c 88B63ABD 		.word	-1120225656
 2572 0140 A9E266BD 		.word	-1117330775
 2573 0144 456789BD 		.word	-1115068603
 2574 0148 153D9FBD 		.word	-1113637611
 2575 014c C6F2B4BD 		.word	-1112214842
 2576 0150 5688CABD 		.word	-1110800298
 2577 0154 C6FDDFBD 		.word	-1109393978
 2578 0158 1653F5BD 		.word	-1107995882
 2579 015c 234405BE 		.word	-1106951133
 2580 0160 ABCE0FBE 		.word	-1106260309
 2581 0164 23491ABE 		.word	-1105573597
 2582 0168 8AB324BE 		.word	-1104890998
 2583 016c E20D2FBE 		.word	-1104212510
 2584 0170 2A5839BE 		.word	-1103538134
 2585 0174 619243BE 		.word	-1102867871
 2586 0178 89BC4DBE 		.word	-1102201719
 2587 017c A1D657BE 		.word	-1101539679
 2588 0180 A8E061BE 		.word	-1100881752
 2589 0184 A0DA6BBE 		.word	-1100227936
 2590 0188 87C475BE 		.word	-1099578233
 2591 018c 5E9E7FBE 		.word	-1098932642
 2592 0190 13B484BE 		.word	-1098599405
 2593 0194 EF9089BE 		.word	-1098280721
 2594 0198 C2658EBE 		.word	-1097964094
ARM GAS  /var/folders/z2/7_lhr9dn53s9tj4s0rwtyswm0000gn/T//ccJ9q3ms.s 			page 103


 2595 019c 8E3293BE 		.word	-1097649522
 2596 01a0 51F797BE 		.word	-1097337007
 2597 01a4 0DB49CBE 		.word	-1097026547
 2598 01a8 C068A1BE 		.word	-1096718144
 2599 01ac 6C15A6BE 		.word	-1096411796
 2600 01b0 0FBAAABE 		.word	-1096107505
 2601 01b4 AB56AFBE 		.word	-1095805269
 2602 01b8 3EEBB3BE 		.word	-1095505090
 2603 01bc CA77B8BE 		.word	-1095206966
 2604 01c0 4DFCBCBE 		.word	-1094910899
 2605 01c4 C878C1BE 		.word	-1094616888
 2606 01c8 3CEDC5BE 		.word	-1094324932
 2607 01cc A759CABE 		.word	-1094035033
 2608 01d0 0ABECEBE 		.word	-1093747190
 2609 01d4 661AD3BE 		.word	-1093461402
 2610 01d8 B96ED7BE 		.word	-1093177671
 2611 01dc 04BBDBBE 		.word	-1092895996
 2612 01e0 47FFDFBE 		.word	-1092616377
 2613 01e4 823BE4BE 		.word	-1092338814
 2614 01e8 B66FE8BE 		.word	-1092063306
 2615 01ec E19BECBE 		.word	-1091789855
 2616 01f0 04C0F0BE 		.word	-1091518460
 2617 01f4 1FDCF4BE 		.word	-1091249121
 2618 01f8 32F0F8BE 		.word	-1090981838
 2619 01fc 3DFCFCBE 		.word	-1090716611
 2620 0200 208000BF 		.word	-1090486240
 2621 0204 1D7E02BF 		.word	-1090355683
 2622 0208 177804BF 		.word	-1090226153
 2623 020c 0C6E06BF 		.word	-1090097652
 2624 0210 FE5F08BF 		.word	-1089970178
 2625 0214 EB4D0ABF 		.word	-1089843733
 2626 0218 D5370CBF 		.word	-1089718315
 2627 021c BA1D0EBF 		.word	-1089593926
 2628 0220 9CFF0FBF 		.word	-1089470564
 2629 0224 79DD11BF 		.word	-1089348231
 2630 0228 52B713BF 		.word	-1089226926
 2631 022c 288D15BF 		.word	-1089106648
 2632 0230 F95E17BF 		.word	-1088987399
 2633 0234 C62C19BF 		.word	-1088869178
 2634 0238 90F61ABF 		.word	-1088751984
 2635 023c 55BC1CBF 		.word	-1088635819
 2636 0240 167E1EBF 		.word	-1088520682
 2637 0244 D43B20BF 		.word	-1088406572
 2638 0248 8DF521BF 		.word	-1088293491
 2639 024c 42AB23BF 		.word	-1088181438
 2640 0250 F45C25BF 		.word	-1088070412
 2641 0254 A10A27BF 		.word	-1087960415
 2642 0258 4AB428BF 		.word	-1087851446
 2643 025c EF592ABF 		.word	-1087743505
 2644 0260 91FB2BBF 		.word	-1087636591
 2645 0264 2E992DBF 		.word	-1087530706
 2646 0268 C7322FBF 		.word	-1087425849
 2647 026c 5CC830BF 		.word	-1087322020
 2648 0270 ED5932BF 		.word	-1087219219
 2649 0274 7BE733BF 		.word	-1087117445
 2650 0278 047135BF 		.word	-1087016700
 2651 027c 89F636BF 		.word	-1086916983
ARM GAS  /var/folders/z2/7_lhr9dn53s9tj4s0rwtyswm0000gn/T//ccJ9q3ms.s 			page 104


 2652 0280 0A7838BF 		.word	-1086818294
 2653 0284 87F539BF 		.word	-1086720633
 2654 0288 006F3BBF 		.word	-1086624000
 2655 028c 75E43CBF 		.word	-1086528395
 2656 0290 E6553EBF 		.word	-1086433818
 2657 0294 53C33FBF 		.word	-1086340269
 2658 0298 BC2C41BF 		.word	-1086247748
 2659 029c 219242BF 		.word	-1086156255
 2660 02a0 83F343BF 		.word	-1086065789
 2661 02a4 E05045BF 		.word	-1085976352
 2662 02a8 39AA46BF 		.word	-1085887943
 2663 02ac 8EFF47BF 		.word	-1085800562
 2664 02b0 DF5049BF 		.word	-1085714209
 2665 02b4 2C9E4ABF 		.word	-1085628884
 2666 02b8 74E74BBF 		.word	-1085544588
 2667 02bc B92C4DBF 		.word	-1085461319
 2668 02c0 FA6D4EBF 		.word	-1085379078
 2669 02c4 37AB4FBF 		.word	-1085297865
 2670 02c8 70E450BF 		.word	-1085217680
 2671 02cc A51952BF 		.word	-1085138523
 2672 02d0 D64A53BF 		.word	-1085060394
 2673 02d4 037854BF 		.word	-1084983293
 2674 02d8 2CA155BF 		.word	-1084907220
 2675 02dc 51C656BF 		.word	-1084832175
 2676 02e0 71E757BF 		.word	-1084758159
 2677 02e4 8E0459BF 		.word	-1084685170
 2678 02e8 A71D5ABF 		.word	-1084613209
 2679 02ec BC325BBF 		.word	-1084542276
 2680 02f0 CD435CBF 		.word	-1084472371
 2681 02f4 DA505DBF 		.word	-1084403494
 2682 02f8 E2595EBF 		.word	-1084335646
 2683 02fc E75E5FBF 		.word	-1084268825
 2684 0300 E85F60BF 		.word	-1084203032
 2685 0304 E55C61BF 		.word	-1084138267
 2686 0308 DD5562BF 		.word	-1084074531
 2687 030c D24A63BF 		.word	-1084011822
 2688 0310 C33B64BF 		.word	-1083950141
 2689 0314 AF2865BF 		.word	-1083889489
 2690 0318 981166BF 		.word	-1083829864
 2691 031c 7DF666BF 		.word	-1083771267
 2692 0320 5DD767BF 		.word	-1083713699
 2693 0324 3AB468BF 		.word	-1083657158
 2694 0328 138D69BF 		.word	-1083601645
 2695 032c E7616ABF 		.word	-1083547161
 2696 0330 B8326BBF 		.word	-1083493704
 2697 0334 85FF6BBF 		.word	-1083441275
 2698 0338 4DC86CBF 		.word	-1083389875
 2699 033c 128D6DBF 		.word	-1083339502
 2700 0340 D24D6EBF 		.word	-1083290158
 2701 0344 8F0A6FBF 		.word	-1083241841
 2702 0348 47C36FBF 		.word	-1083194553
 2703 034c FC7770BF 		.word	-1083148292
 2704 0350 AC2871BF 		.word	-1083103060
 2705 0354 59D571BF 		.word	-1083058855
 2706 0358 017E72BF 		.word	-1083015679
 2707 035c A62273BF 		.word	-1082973530
 2708 0360 46C373BF 		.word	-1082932410
ARM GAS  /var/folders/z2/7_lhr9dn53s9tj4s0rwtyswm0000gn/T//ccJ9q3ms.s 			page 105


 2709 0364 E35F74BF 		.word	-1082892317
 2710 0368 7BF874BF 		.word	-1082853253
 2711 036c 108D75BF 		.word	-1082815216
 2712 0370 A01D76BF 		.word	-1082778208
 2713 0374 2DAA76BF 		.word	-1082742227
 2714 0378 B53277BF 		.word	-1082707275
 2715 037c 39B777BF 		.word	-1082673351
 2716 0380 BA3778BF 		.word	-1082640454
 2717 0384 36B478BF 		.word	-1082608586
 2718 0388 AE2C79BF 		.word	-1082577746
 2719 038c 23A179BF 		.word	-1082547933
 2720 0390 93117ABF 		.word	-1082519149
 2721 0394 FF7D7ABF 		.word	-1082491393
 2722 0398 68E67ABF 		.word	-1082464664
 2723 039c CC4A7BBF 		.word	-1082438964
 2724 03a0 2CAB7BBF 		.word	-1082414292
 2725 03a4 89077CBF 		.word	-1082390647
 2726 03a8 E15F7CBF 		.word	-1082368031
 2727 03ac 35B47CBF 		.word	-1082346443
 2728 03b0 85047DBF 		.word	-1082325883
 2729 03b4 D1507DBF 		.word	-1082306351
 2730 03b8 1A997DBF 		.word	-1082287846
 2731 03bc 5EDD7DBF 		.word	-1082270370
 2732 03c0 9E1D7EBF 		.word	-1082253922
 2733 03c4 DA597EBF 		.word	-1082238502
 2734 03c8 12927EBF 		.word	-1082224110
 2735 03cc 47C67EBF 		.word	-1082210745
 2736 03d0 77F67EBF 		.word	-1082198409
 2737 03d4 A3227FBF 		.word	-1082187101
 2738 03d8 CB4A7FBF 		.word	-1082176821
 2739 03dc EF6E7FBF 		.word	-1082167569
 2740 03e0 0F8F7FBF 		.word	-1082159345
 2741 03e4 2BAB7FBF 		.word	-1082152149
 2742 03e8 43C37FBF 		.word	-1082145981
 2743 03ec 57D77FBF 		.word	-1082140841
 2744 03f0 67E77FBF 		.word	-1082136729
 2745 03f4 73F37FBF 		.word	-1082133645
 2746 03f8 7BFB7FBF 		.word	-1082131589
 2747 03fc 7FFF7FBF 		.word	-1082130561
 2748 0400 7FFF7FBF 		.word	-1082130561
 2749 0404 7BFB7FBF 		.word	-1082131589
 2750 0408 73F37FBF 		.word	-1082133645
 2751 040c 67E77FBF 		.word	-1082136729
 2752 0410 57D77FBF 		.word	-1082140841
 2753 0414 43C37FBF 		.word	-1082145981
 2754 0418 2BAB7FBF 		.word	-1082152149
 2755 041c 0F8F7FBF 		.word	-1082159345
 2756 0420 EF6E7FBF 		.word	-1082167569
 2757 0424 CB4A7FBF 		.word	-1082176821
 2758 0428 A3227FBF 		.word	-1082187101
 2759 042c 77F67EBF 		.word	-1082198409
 2760 0430 47C67EBF 		.word	-1082210745
 2761 0434 12927EBF 		.word	-1082224110
 2762 0438 DA597EBF 		.word	-1082238502
 2763 043c 9E1D7EBF 		.word	-1082253922
 2764 0440 5EDD7DBF 		.word	-1082270370
 2765 0444 1A997DBF 		.word	-1082287846
ARM GAS  /var/folders/z2/7_lhr9dn53s9tj4s0rwtyswm0000gn/T//ccJ9q3ms.s 			page 106


 2766 0448 D1507DBF 		.word	-1082306351
 2767 044c 85047DBF 		.word	-1082325883
 2768 0450 35B47CBF 		.word	-1082346443
 2769 0454 E15F7CBF 		.word	-1082368031
 2770 0458 89077CBF 		.word	-1082390647
 2771 045c 2CAB7BBF 		.word	-1082414292
 2772 0460 CC4A7BBF 		.word	-1082438964
 2773 0464 68E67ABF 		.word	-1082464664
 2774 0468 FF7D7ABF 		.word	-1082491393
 2775 046c 93117ABF 		.word	-1082519149
 2776 0470 23A179BF 		.word	-1082547933
 2777 0474 AE2C79BF 		.word	-1082577746
 2778 0478 36B478BF 		.word	-1082608586
 2779 047c BA3778BF 		.word	-1082640454
 2780 0480 39B777BF 		.word	-1082673351
 2781 0484 B53277BF 		.word	-1082707275
 2782 0488 2DAA76BF 		.word	-1082742227
 2783 048c A01D76BF 		.word	-1082778208
 2784 0490 108D75BF 		.word	-1082815216
 2785 0494 7BF874BF 		.word	-1082853253
 2786 0498 E35F74BF 		.word	-1082892317
 2787 049c 46C373BF 		.word	-1082932410
 2788 04a0 A62273BF 		.word	-1082973530
 2789 04a4 017E72BF 		.word	-1083015679
 2790 04a8 59D571BF 		.word	-1083058855
 2791 04ac AC2871BF 		.word	-1083103060
 2792 04b0 FC7770BF 		.word	-1083148292
 2793 04b4 47C36FBF 		.word	-1083194553
 2794 04b8 8F0A6FBF 		.word	-1083241841
 2795 04bc D24D6EBF 		.word	-1083290158
 2796 04c0 128D6DBF 		.word	-1083339502
 2797 04c4 4DC86CBF 		.word	-1083389875
 2798 04c8 85FF6BBF 		.word	-1083441275
 2799 04cc B8326BBF 		.word	-1083493704
 2800 04d0 E7616ABF 		.word	-1083547161
 2801 04d4 138D69BF 		.word	-1083601645
 2802 04d8 3AB468BF 		.word	-1083657158
 2803 04dc 5DD767BF 		.word	-1083713699
 2804 04e0 7DF666BF 		.word	-1083771267
 2805 04e4 981166BF 		.word	-1083829864
 2806 04e8 AF2865BF 		.word	-1083889489
 2807 04ec C33B64BF 		.word	-1083950141
 2808 04f0 D24A63BF 		.word	-1084011822
 2809 04f4 DD5562BF 		.word	-1084074531
 2810 04f8 E55C61BF 		.word	-1084138267
 2811 04fc E85F60BF 		.word	-1084203032
 2812 0500 E75E5FBF 		.word	-1084268825
 2813 0504 E2595EBF 		.word	-1084335646
 2814 0508 DA505DBF 		.word	-1084403494
 2815 050c CD435CBF 		.word	-1084472371
 2816 0510 BC325BBF 		.word	-1084542276
 2817 0514 A71D5ABF 		.word	-1084613209
 2818 0518 8E0459BF 		.word	-1084685170
 2819 051c 71E757BF 		.word	-1084758159
 2820 0520 51C656BF 		.word	-1084832175
 2821 0524 2CA155BF 		.word	-1084907220
 2822 0528 037854BF 		.word	-1084983293
ARM GAS  /var/folders/z2/7_lhr9dn53s9tj4s0rwtyswm0000gn/T//ccJ9q3ms.s 			page 107


 2823 052c D64A53BF 		.word	-1085060394
 2824 0530 A51952BF 		.word	-1085138523
 2825 0534 70E450BF 		.word	-1085217680
 2826 0538 37AB4FBF 		.word	-1085297865
 2827 053c FA6D4EBF 		.word	-1085379078
 2828 0540 B92C4DBF 		.word	-1085461319
 2829 0544 74E74BBF 		.word	-1085544588
 2830 0548 2C9E4ABF 		.word	-1085628884
 2831 054c DF5049BF 		.word	-1085714209
 2832 0550 8EFF47BF 		.word	-1085800562
 2833 0554 39AA46BF 		.word	-1085887943
 2834 0558 E05045BF 		.word	-1085976352
 2835 055c 83F343BF 		.word	-1086065789
 2836 0560 219242BF 		.word	-1086156255
 2837 0564 BC2C41BF 		.word	-1086247748
 2838 0568 53C33FBF 		.word	-1086340269
 2839 056c E6553EBF 		.word	-1086433818
 2840 0570 75E43CBF 		.word	-1086528395
 2841 0574 006F3BBF 		.word	-1086624000
 2842 0578 87F539BF 		.word	-1086720633
 2843 057c 0A7838BF 		.word	-1086818294
 2844 0580 89F636BF 		.word	-1086916983
 2845 0584 047135BF 		.word	-1087016700
 2846 0588 7BE733BF 		.word	-1087117445
 2847 058c ED5932BF 		.word	-1087219219
 2848 0590 5CC830BF 		.word	-1087322020
 2849 0594 C7322FBF 		.word	-1087425849
 2850 0598 2E992DBF 		.word	-1087530706
 2851 059c 91FB2BBF 		.word	-1087636591
 2852 05a0 EF592ABF 		.word	-1087743505
 2853 05a4 4AB428BF 		.word	-1087851446
 2854 05a8 A10A27BF 		.word	-1087960415
 2855 05ac F45C25BF 		.word	-1088070412
 2856 05b0 42AB23BF 		.word	-1088181438
 2857 05b4 8DF521BF 		.word	-1088293491
 2858 05b8 D43B20BF 		.word	-1088406572
 2859 05bc 167E1EBF 		.word	-1088520682
 2860 05c0 55BC1CBF 		.word	-1088635819
 2861 05c4 90F61ABF 		.word	-1088751984
 2862 05c8 C62C19BF 		.word	-1088869178
 2863 05cc F95E17BF 		.word	-1088987399
 2864 05d0 288D15BF 		.word	-1089106648
 2865 05d4 52B713BF 		.word	-1089226926
 2866 05d8 79DD11BF 		.word	-1089348231
 2867 05dc 9CFF0FBF 		.word	-1089470564
 2868 05e0 BA1D0EBF 		.word	-1089593926
 2869 05e4 D5370CBF 		.word	-1089718315
 2870 05e8 EB4D0ABF 		.word	-1089843733
 2871 05ec FE5F08BF 		.word	-1089970178
 2872 05f0 0C6E06BF 		.word	-1090097652
 2873 05f4 177804BF 		.word	-1090226153
 2874 05f8 1D7E02BF 		.word	-1090355683
 2875 05fc 208000BF 		.word	-1090486240
 2876 0600 3DFCFCBE 		.word	-1090716611
 2877 0604 32F0F8BE 		.word	-1090981838
 2878 0608 1FDCF4BE 		.word	-1091249121
 2879 060c 04C0F0BE 		.word	-1091518460
ARM GAS  /var/folders/z2/7_lhr9dn53s9tj4s0rwtyswm0000gn/T//ccJ9q3ms.s 			page 108


 2880 0610 E19BECBE 		.word	-1091789855
 2881 0614 B66FE8BE 		.word	-1092063306
 2882 0618 823BE4BE 		.word	-1092338814
 2883 061c 47FFDFBE 		.word	-1092616377
 2884 0620 04BBDBBE 		.word	-1092895996
 2885 0624 B96ED7BE 		.word	-1093177671
 2886 0628 661AD3BE 		.word	-1093461402
 2887 062c 0ABECEBE 		.word	-1093747190
 2888 0630 A759CABE 		.word	-1094035033
 2889 0634 3CEDC5BE 		.word	-1094324932
 2890 0638 C878C1BE 		.word	-1094616888
 2891 063c 4DFCBCBE 		.word	-1094910899
 2892 0640 CA77B8BE 		.word	-1095206966
 2893 0644 3EEBB3BE 		.word	-1095505090
 2894 0648 AB56AFBE 		.word	-1095805269
 2895 064c 0FBAAABE 		.word	-1096107505
 2896 0650 6C15A6BE 		.word	-1096411796
 2897 0654 C068A1BE 		.word	-1096718144
 2898 0658 0DB49CBE 		.word	-1097026547
 2899 065c 51F797BE 		.word	-1097337007
 2900 0660 8E3293BE 		.word	-1097649522
 2901 0664 C2658EBE 		.word	-1097964094
 2902 0668 EF9089BE 		.word	-1098280721
 2903 066c 13B484BE 		.word	-1098599405
 2904 0670 5E9E7FBE 		.word	-1098932642
 2905 0674 87C475BE 		.word	-1099578233
 2906 0678 A0DA6BBE 		.word	-1100227936
 2907 067c A8E061BE 		.word	-1100881752
 2908 0680 A1D657BE 		.word	-1101539679
 2909 0684 89BC4DBE 		.word	-1102201719
 2910 0688 619243BE 		.word	-1102867871
 2911 068c 2A5839BE 		.word	-1103538134
 2912 0690 E20D2FBE 		.word	-1104212510
 2913 0694 8AB324BE 		.word	-1104890998
 2914 0698 23491ABE 		.word	-1105573597
 2915 069c ABCE0FBE 		.word	-1106260309
 2916 06a0 234405BE 		.word	-1106951133
 2917 06a4 1653F5BD 		.word	-1107995882
 2918 06a8 C6FDDFBD 		.word	-1109393978
 2919 06ac 5688CABD 		.word	-1110800298
 2920 06b0 C6F2B4BD 		.word	-1112214842
 2921 06b4 153D9FBD 		.word	-1113637611
 2922 06b8 456789BD 		.word	-1115068603
 2923 06bc A9E266BD 		.word	-1117330775
 2924 06c0 88B63ABD 		.word	-1120225656
 2925 06c4 274A0EBD 		.word	-1123136985
 2926 06c8 0A3BC3BC 		.word	-1128056054
 2927 06cc 8EC252BC 		.word	-1135426930
 2928 06d0 3470F0BA 		.word	-1158647756
 2929 06d4 82A7173C 		.word	1008183170
 2930 06d8 052FA73C 		.word	1017589509
 2931 06dc 6585013D 		.word	1023509861
 2932 06e0 88B32F3D 		.word	1026536328
 2933 06e4 EA215E3D 		.word	1029579242
 2934 06e8 4768863D 		.word	1032218695
 2935 06ec B8DF9D3D 		.word	1033756600
 2936 06f0 4A77B53D 		.word	1035302730
ARM GAS  /var/folders/z2/7_lhr9dn53s9tj4s0rwtyswm0000gn/T//ccJ9q3ms.s 			page 109


 2937 06f4 FC2ECD3D 		.word	1036857084
 2938 06f8 CE06E53D 		.word	1038419662
 2939 06fc BFFEFC3D 		.word	1039990463
 2940 0700 698B0A3E 		.word	1040878441
 2941 0704 82A7163E 		.word	1041672066
 2942 0708 ABD3223E 		.word	1042469803
 2943 070c E40F2F3E 		.word	1043271652
 2944 0710 2D5C3B3E 		.word	1044077613
 2945 0714 87B8473E 		.word	1044887687
 2946 0718 F024543E 		.word	1045701872
 2947 071c 69A1603E 		.word	1046520169
 2948 0720 F32D6D3E 		.word	1047342579
 2949 0724 8CCA793E 		.word	1048169100
 2950 0728 9B3B833E 		.word	1048787867
 2951 072c F899893E 		.word	1049205240
 2952 0730 5C00903E 		.word	1049624668
 2953 0734 C96E963E 		.word	1050046153
 2954 0738 3EE59C3E 		.word	1050469694
 2955 073c BB63A33E 		.word	1050895291
 2956 0740 40EAA93E 		.word	1051322944
 2957 0744 CD78B03E 		.word	1051752653
 2958 0748 620FB73E 		.word	1052184418
 2959 074c FFADBD3E 		.word	1052618239
 2960 0750 A454C43E 		.word	1053054116
 2961 0754 5103CB3E 		.word	1053492049
 2962 0758 06BAD13E 		.word	1053932038
 2963 075c C378D83E 		.word	1054374083
 2964 0760 883FDF3E 		.word	1054818184
 2965 0764 550EE63E 		.word	1055264341
 2966 0768 2AE5EC3E 		.word	1055712554
 2967 076c 07C4F33E 		.word	1056162823
 2968 0770 ECAAFA3E 		.word	1056615148
 2969 0774 EDCC003F 		.word	1057017069
 2970 0778 6748043F 		.word	1057245287
 2971 077c E6C7073F 		.word	1057474534
 2972 0780 694B0B3F 		.word	1057704809
 2973 0784 EFD20E3F 		.word	1057936111
 2974 0788 7A5E123F 		.word	1058168442
 2975 078c 09EE153F 		.word	1058401801
 2976 0790 9B81193F 		.word	1058636187
 2977 0794 32191D3F 		.word	1058871602
 2978 0798 CDB4203F 		.word	1059108045
 2979 079c 6B54243F 		.word	1059345515
 2980 07a0 0EF8273F 		.word	1059584014
 2981 07a4 B59F2B3F 		.word	1059823541
 2982 07a8 604B2F3F 		.word	1060064096
 2983 07ac 0EFB323F 		.word	1060305678
 2984 07b0 C1AE363F 		.word	1060548289
 2985 07b4 78663A3F 		.word	1060791928
 2986 07b8 33223E3F 		.word	1061036595
 2987 07bc F1E1413F 		.word	1061282289
 2988 07c0 B4A5453F 		.word	1061529012
 2989 07c4 7B6D493F 		.word	1061776763
 2990 07c8 46394D3F 		.word	1062025542
 2991 07cc 1509513F 		.word	1062275349
 2992 07d0 E8DC543F 		.word	1062526184
 2993 07d4 BFB4583F 		.word	1062778047
ARM GAS  /var/folders/z2/7_lhr9dn53s9tj4s0rwtyswm0000gn/T//ccJ9q3ms.s 			page 110


 2994 07d8 99905C3F 		.word	1063030937
 2995 07dc 7870603F 		.word	1063284856
 2996 07e0 5B54643F 		.word	1063539803
 2997 07e4 423C683F 		.word	1063795778
 2998 07e8 2D286C3F 		.word	1064052781
 2999 07ec 1C18703F 		.word	1064310812
 3000 07f0 0F0C743F 		.word	1064569871
 3001 07f4 0604783F 		.word	1064829958
 3002 07f8 01007C3F 		.word	1065091073
 3003 07fc 0000803F 		.word	1065353216
 3004              		.section	.rodata._ZN7daisyspL2c3E,"a"
 3005              		.align	2
 3006              		.set	.LANCHOR10,. + 0
 3009              	_ZN7daisyspL2c3E:
 3010 0000 000080BF 		.word	-1082130432
 3011 0004 860777BF 		.word	-1082718330
 3012 0008 0B276EBF 		.word	-1083300085
 3013 000c 795E65BF 		.word	-1083875719
 3014 0010 B6AD5CBF 		.word	-1084445258
 3015 0014 AB1454BF 		.word	-1085008725
 3016 0018 3F934BBF 		.word	-1085566145
 3017 001c 5A2943BF 		.word	-1086117542
 3018 0020 E4D63ABF 		.word	-1086662940
 3019 0024 C59B32BF 		.word	-1087202363
 3020 0028 E5772ABF 		.word	-1087735835
 3021 002c 2C6B22BF 		.word	-1088263380
 3022 0030 81751ABF 		.word	-1088785023
 3023 0034 CD9612BF 		.word	-1089300787
 3024 0038 F7CE0ABF 		.word	-1089810697
 3025 003c E71D03BF 		.word	-1090314777
 3026 0040 0907F7BE 		.word	-1091107063
 3027 0044 71FFE7BE 		.word	-1092092047
 3028 0048 D324D9BE 		.word	-1093065517
 3029 004c 0177CABE 		.word	-1094027519
 3030 0050 CAF5BBBE 		.word	-1094978102
 3031 0054 FDA0ADBE 		.word	-1095917315
 3032 0058 6A789FBE 		.word	-1096845206
 3033 005c E17B91BE 		.word	-1097761823
 3034 0060 32AB83BE 		.word	-1098667214
 3035 0064 580C6CBE 		.word	-1100215208
 3036 0068 3F1951BE 		.word	-1101981377
 3037 006c B77C36BE 		.word	-1103725385
 3038 0070 60361CBE 		.word	-1105447328
 3039 0074 DA4502BE 		.word	-1107147302
 3040 0078 8655D1BD 		.word	-1110354554
 3041 007c 78C99EBD 		.word	-1113667208
 3042 0080 8FCD59BD 		.word	-1118188145
 3043 0084 CDB2EEBC 		.word	-1125207347
 3044 0088 A6A7B1BB 		.word	-1145985114
 3045 008c 9142933C 		.word	1016283793
 3046 0090 D42A283D 		.word	1026042580
 3047 0094 98B4823D 		.word	1031976088
 3048 0098 EFAEB03D 		.word	1034989295
 3049 009c 3005DE3D 		.word	1037960496
 3050 00a0 0F5C053E 		.word	1040538639
 3051 00a4 3B641B3E 		.word	1041982523
 3052 00a8 7F1B313E 		.word	1043405695
ARM GAS  /var/folders/z2/7_lhr9dn53s9tj4s0rwtyswm0000gn/T//ccJ9q3ms.s 			page 111


 3053 00ac 3A82463E 		.word	1044808250
 3054 00b0 CD985B3E 		.word	1046190285
 3055 00b4 995F703E 		.word	1047551897
 3056 00b8 7F6B823E 		.word	1048734591
 3057 00bc AE7F8C3E 		.word	1049395118
 3058 00c0 8A6C963E 		.word	1050045578
 3059 00c4 4432A03E 		.word	1050686020
 3060 00c8 0CD1A93E 		.word	1051316492
 3061 00cc 1149B33E 		.word	1051937041
 3062 00d0 859ABC3E 		.word	1052547717
 3063 00d4 97C5C53E 		.word	1053148567
 3064 00d8 78CACE3E 		.word	1053739640
 3065 00dc 58A9D73E 		.word	1054320984
 3066 00e0 6862E03E 		.word	1054892648
 3067 00e4 D7F5E83E 		.word	1055454679
 3068 00e8 D663F13E 		.word	1056007126
 3069 00ec 95ACF93E 		.word	1056550037
 3070 00f0 23E8003F 		.word	1057024035
 3071 00f4 8BE7043F 		.word	1057286027
 3072 00f8 9CD4083F 		.word	1057543324
 3073 00fc 6EAF0C3F 		.word	1057795950
 3074 0100 1878103F 		.word	1058043928
 3075 0104 B32E143F 		.word	1058287283
 3076 0108 58D3173F 		.word	1058526040
 3077 010c 1E661B3F 		.word	1058760222
 3078 0110 1DE71E3F 		.word	1058989853
 3079 0114 6D56223F 		.word	1059214957
 3080 0118 28B4253F 		.word	1059435560
 3081 011c 6400293F 		.word	1059651684
 3082 0120 3A3B2C3F 		.word	1059863354
 3083 0124 C2642F3F 		.word	1060070594
 3084 0128 147D323F 		.word	1060273428
 3085 012c 4984353F 		.word	1060471881
 3086 0130 797A383F 		.word	1060665977
 3087 0134 BB5F3B3F 		.word	1060855739
 3088 0138 27343E3F 		.word	1061041191
 3089 013c D7F7403F 		.word	1061222359
 3090 0140 E2AA433F 		.word	1061399266
 3091 0144 604D463F 		.word	1061571936
 3092 0148 69DF483F 		.word	1061740393
 3093 014c 16614B3F 		.word	1061904662
 3094 0150 7FD24D3F 		.word	1062064767
 3095 0154 BB33503F 		.word	1062220731
 3096 0158 E384523F 		.word	1062372579
 3097 015c 0FC6543F 		.word	1062520335
 3098 0160 58F7563F 		.word	1062664024
 3099 0164 D518593F 		.word	1062803669
 3100 0168 9E2A5B3F 		.word	1062939294
 3101 016c CC2C5D3F 		.word	1063070924
 3102 0170 771F5F3F 		.word	1063198583
 3103 0174 B702613F 		.word	1063322295
 3104 0178 A4D6623F 		.word	1063442084
 3105 017c 569B643F 		.word	1063557974
 3106 0180 E550663F 		.word	1063669989
 3107 0184 6AF7673F 		.word	1063778154
 3108 0188 FC8E693F 		.word	1063882492
 3109 018c B4176B3F 		.word	1063983028
ARM GAS  /var/folders/z2/7_lhr9dn53s9tj4s0rwtyswm0000gn/T//ccJ9q3ms.s 			page 112


 3110 0190 AA916C3F 		.word	1064079786
 3111 0194 F6FC6D3F 		.word	1064172790
 3112 0198 B1596F3F 		.word	1064262065
 3113 019c F1A7703F 		.word	1064347633
 3114 01a0 D1E7713F 		.word	1064429521
 3115 01a4 6619733F 		.word	1064507750
 3116 01a8 CB3C743F 		.word	1064582347
 3117 01ac 1652753F 		.word	1064653334
 3118 01b0 6159763F 		.word	1064720737
 3119 01b4 C252773F 		.word	1064784578
 3120 01b8 533E783F 		.word	1064844883
 3121 01bc 2B1C793F 		.word	1064901675
 3122 01c0 63EC793F 		.word	1064954979
 3123 01c4 13AF7A3F 		.word	1065004819
 3124 01c8 53647B3F 		.word	1065051219
 3125 01cc 3A0C7C3F 		.word	1065094202
 3126 01d0 E2A67C3F 		.word	1065133794
 3127 01d4 62347D3F 		.word	1065170018
 3128 01d8 D3B47D3F 		.word	1065202899
 3129 01dc 4C287E3F 		.word	1065232460
 3130 01e0 E68E7E3F 		.word	1065258726
 3131 01e4 B8E87E3F 		.word	1065281720
 3132 01e8 DC357F3F 		.word	1065301468
 3133 01ec 69767F3F 		.word	1065317993
 3134 01f0 77AA7F3F 		.word	1065331319
 3135 01f4 1FD27F3F 		.word	1065341471
 3136 01f8 78ED7F3F 		.word	1065348472
 3137 01fc 9BFC7F3F 		.word	1065352347
 3138 0200 A0FF7F3F 		.word	1065353120
 3139 0204 9EF67F3F 		.word	1065350814
 3140 0208 AFE17F3F 		.word	1065345455
 3141 020c EBC07F3F 		.word	1065337067
 3142 0210 68947F3F 		.word	1065325672
 3143 0214 405C7F3F 		.word	1065311296
 3144 0218 8B187F3F 		.word	1065293963
 3145 021c 61C97E3F 		.word	1065273697
 3146 0220 DA6E7E3F 		.word	1065250522
 3147 0224 0E097E3F 		.word	1065224462
 3148 0228 15987D3F 		.word	1065195541
 3149 022c 071C7D3F 		.word	1065163783
 3150 0230 FD947C3F 		.word	1065129213
 3151 0234 0F037C3F 		.word	1065091855
 3152 0238 55667B3F 		.word	1065051733
 3153 023c E6BE7A3F 		.word	1065008870
 3154 0240 DC0C7A3F 		.word	1064963292
 3155 0244 4E50793F 		.word	1064915022
 3156 0248 5489783F 		.word	1064864084
 3157 024c 07B8773F 		.word	1064810503
 3158 0250 7FDC763F 		.word	1064754303
 3159 0254 D3F6753F 		.word	1064695507
 3160 0258 1D07753F 		.word	1064634141
 3161 025c 730D743F 		.word	1064570227
 3162 0260 EF09733F 		.word	1064503791
 3163 0264 A8FC713F 		.word	1064434856
 3164 0268 B7E5703F 		.word	1064363447
 3165 026c 33C56F3F 		.word	1064289587
 3166 0270 359B6E3F 		.word	1064213301
ARM GAS  /var/folders/z2/7_lhr9dn53s9tj4s0rwtyswm0000gn/T//ccJ9q3ms.s 			page 113


 3167 0274 D5676D3F 		.word	1064134613
 3168 0278 2B2B6C3F 		.word	1064053547
 3169 027c 50E56A3F 		.word	1063970128
 3170 0280 5B96693F 		.word	1063884379
 3171 0284 643E683F 		.word	1063796324
 3172 0288 84DD663F 		.word	1063705988
 3173 028c D373653F 		.word	1063613395
 3174 0290 6801643F 		.word	1063518568
 3175 0294 5D86623F 		.word	1063421533
 3176 0298 C902613F 		.word	1063322313
 3177 029c C5765F3F 		.word	1063220933
 3178 02a0 67E25D3F 		.word	1063117415
 3179 02a4 CA455C3F 		.word	1063011786
 3180 02a8 04A15A3F 		.word	1062904068
 3181 02ac 2FF4583F 		.word	1062794287
 3182 02b0 613F573F 		.word	1062682465
 3183 02b4 B382553F 		.word	1062568627
 3184 02b8 3EBE533F 		.word	1062452798
 3185 02bc 1AF2513F 		.word	1062335002
 3186 02c0 5E1E503F 		.word	1062215262
 3187 02c4 22434E3F 		.word	1062093602
 3188 02c8 80604C3F 		.word	1061970048
 3189 02cc 8F764A3F 		.word	1061844623
 3190 02d0 6785483F 		.word	1061717351
 3191 02d4 208D463F 		.word	1061588256
 3192 02d8 D38D443F 		.word	1061457363
 3193 02dc 9787423F 		.word	1061324695
 3194 02e0 867A403F 		.word	1061190278
 3195 02e4 B6663E3F 		.word	1061054134
 3196 02e8 404C3C3F 		.word	1060916288
 3197 02ec 3C2B3A3F 		.word	1060776764
 3198 02f0 C303383F 		.word	1060635587
 3199 02f4 ECD5353F 		.word	1060492780
 3200 02f8 D0A1333F 		.word	1060348368
 3201 02fc 8667313F 		.word	1060202374
 3202 0300 28272F3F 		.word	1060054824
 3203 0304 CCE02C3F 		.word	1059905740
 3204 0308 8C942A3F 		.word	1059755148
 3205 030c 7F42283F 		.word	1059603071
 3206 0310 BDEA253F 		.word	1059449533
 3207 0314 5F8D233F 		.word	1059294559
 3208 0318 7D2A213F 		.word	1059138173
 3209 031c 2EC21E3F 		.word	1058980398
 3210 0320 8C541C3F 		.word	1058821260
 3211 0324 AEE1193F 		.word	1058660782
 3212 0328 AC69173F 		.word	1058498988
 3213 032c 9EEC143F 		.word	1058335902
 3214 0330 9D6A123F 		.word	1058171549
 3215 0334 C1E30F3F 		.word	1058005953
 3216 0338 22580D3F 		.word	1057839138
 3217 033c D8C70A3F 		.word	1057671128
 3218 0340 FB32083F 		.word	1057501947
 3219 0344 A399053F 		.word	1057331619
 3220 0348 E8FB023F 		.word	1057160168
 3221 034c E459003F 		.word	1056987620
 3222 0350 5967FB3E 		.word	1056663385
 3223 0354 B612F63E 		.word	1056314038
ARM GAS  /var/folders/z2/7_lhr9dn53s9tj4s0rwtyswm0000gn/T//ccJ9q3ms.s 			page 114


 3224 0358 10B6F03E 		.word	1055962640
 3225 035c 9651EB3E 		.word	1055609238
 3226 0360 78E5E53E 		.word	1055253880
 3227 0364 E771E03E 		.word	1054896615
 3228 0368 14F7DA3E 		.word	1054537492
 3229 036c 2E75D53E 		.word	1054176558
 3230 0370 65ECCF3E 		.word	1053813861
 3231 0374 EA5CCA3E 		.word	1053449450
 3232 0378 EEC6C43E 		.word	1053083374
 3233 037c A02ABF3E 		.word	1052715680
 3234 0380 3188B93E 		.word	1052346417
 3235 0384 D2DFB33E 		.word	1051975634
 3236 0388 B131AE3E 		.word	1051603377
 3237 038c 007EA83E 		.word	1051229696
 3238 0390 F0C4A23E 		.word	1050854640
 3239 0394 AF069D3E 		.word	1050478255
 3240 0398 6F43973E 		.word	1050100591
 3241 039c 607B913E 		.word	1049721696
 3242 03a0 B2AE8B3E 		.word	1049341618
 3243 03a4 95DD853E 		.word	1048960405
 3244 03a8 3A08803E 		.word	1048578106
 3245 03ac A15D743E 		.word	1047813537
 3246 03b0 13A3683E 		.word	1047044883
 3247 03b4 2AE15C3E 		.word	1046274346
 3248 03b8 4618513E 		.word	1045502022
 3249 03bc C948453E 		.word	1044728009
 3250 03c0 1273393E 		.word	1043952402
 3251 03c4 83972D3E 		.word	1043175299
 3252 03c8 7BB6213E 		.word	1042396795
 3253 03cc 5CD0153E 		.word	1041616988
 3254 03d0 85E5093E 		.word	1040835973
 3255 03d4 B1ECFB3D 		.word	1039920305
 3256 03d8 6C06E43D 		.word	1038354028
 3257 03dc FC18CC3D 		.word	1036785916
 3258 03e0 2225B43D 		.word	1035216162
 3259 03e4 9F2B9C3D 		.word	1033644959
 3260 03e8 362D843D 		.word	1032072502
 3261 03ec 4C55583D 		.word	1029199180
 3262 03f0 6249283D 		.word	1026050402
 3263 03f4 6070F03C 		.word	1022390368
 3264 03f8 7246903C 		.word	1016088178
 3265 03fc F05FC03B 		.word	1002463216
 3266 0400 F05FC0BB 		.word	-1145020432
 3267 0404 724690BC 		.word	-1131395470
 3268 0408 6070F0BC 		.word	-1125093280
 3269 040c 624928BD 		.word	-1121433246
 3270 0410 4C5558BD 		.word	-1118284468
 3271 0414 362D84BD 		.word	-1115411146
 3272 0418 9F2B9CBD 		.word	-1113838689
 3273 041c 2225B4BD 		.word	-1112267486
 3274 0420 FC18CCBD 		.word	-1110697732
 3275 0424 6C06E4BD 		.word	-1109129620
 3276 0428 B1ECFBBD 		.word	-1107563343
 3277 042c 85E509BE 		.word	-1106647675
 3278 0430 5CD015BE 		.word	-1105866660
 3279 0434 7BB621BE 		.word	-1105086853
 3280 0438 83972DBE 		.word	-1104308349
ARM GAS  /var/folders/z2/7_lhr9dn53s9tj4s0rwtyswm0000gn/T//ccJ9q3ms.s 			page 115


 3281 043c 127339BE 		.word	-1103531246
 3282 0440 C94845BE 		.word	-1102755639
 3283 0444 461851BE 		.word	-1101981626
 3284 0448 2AE15CBE 		.word	-1101209302
 3285 044c 13A368BE 		.word	-1100438765
 3286 0450 A15D74BE 		.word	-1099670111
 3287 0454 3A0880BE 		.word	-1098905542
 3288 0458 95DD85BE 		.word	-1098523243
 3289 045c B2AE8BBE 		.word	-1098142030
 3290 0460 607B91BE 		.word	-1097761952
 3291 0464 6F4397BE 		.word	-1097383057
 3292 0468 AF069DBE 		.word	-1097005393
 3293 046c F0C4A2BE 		.word	-1096629008
 3294 0470 007EA8BE 		.word	-1096253952
 3295 0474 B131AEBE 		.word	-1095880271
 3296 0478 D2DFB3BE 		.word	-1095508014
 3297 047c 3188B9BE 		.word	-1095137231
 3298 0480 A02ABFBE 		.word	-1094767968
 3299 0484 EEC6C4BE 		.word	-1094400274
 3300 0488 EA5CCABE 		.word	-1094034198
 3301 048c 65ECCFBE 		.word	-1093669787
 3302 0490 2E75D5BE 		.word	-1093307090
 3303 0494 14F7DABE 		.word	-1092946156
 3304 0498 E771E0BE 		.word	-1092587033
 3305 049c 78E5E5BE 		.word	-1092229768
 3306 04a0 9651EBBE 		.word	-1091874410
 3307 04a4 10B6F0BE 		.word	-1091521008
 3308 04a8 B612F6BE 		.word	-1091169610
 3309 04ac 5967FBBE 		.word	-1090820263
 3310 04b0 E45900BF 		.word	-1090496028
 3311 04b4 E8FB02BF 		.word	-1090323480
 3312 04b8 A39905BF 		.word	-1090152029
 3313 04bc FB3208BF 		.word	-1089981701
 3314 04c0 D8C70ABF 		.word	-1089812520
 3315 04c4 22580DBF 		.word	-1089644510
 3316 04c8 C1E30FBF 		.word	-1089477695
 3317 04cc 9D6A12BF 		.word	-1089312099
 3318 04d0 9EEC14BF 		.word	-1089147746
 3319 04d4 AC6917BF 		.word	-1088984660
 3320 04d8 AEE119BF 		.word	-1088822866
 3321 04dc 8C541CBF 		.word	-1088662388
 3322 04e0 2EC21EBF 		.word	-1088503250
 3323 04e4 7D2A21BF 		.word	-1088345475
 3324 04e8 5F8D23BF 		.word	-1088189089
 3325 04ec BDEA25BF 		.word	-1088034115
 3326 04f0 7F4228BF 		.word	-1087880577
 3327 04f4 8C942ABF 		.word	-1087728500
 3328 04f8 CCE02CBF 		.word	-1087577908
 3329 04fc 28272FBF 		.word	-1087428824
 3330 0500 866731BF 		.word	-1087281274
 3331 0504 D0A133BF 		.word	-1087135280
 3332 0508 ECD535BF 		.word	-1086990868
 3333 050c C30338BF 		.word	-1086848061
 3334 0510 3C2B3ABF 		.word	-1086706884
 3335 0514 404C3CBF 		.word	-1086567360
 3336 0518 B6663EBF 		.word	-1086429514
 3337 051c 867A40BF 		.word	-1086293370
ARM GAS  /var/folders/z2/7_lhr9dn53s9tj4s0rwtyswm0000gn/T//ccJ9q3ms.s 			page 116


 3338 0520 978742BF 		.word	-1086158953
 3339 0524 D38D44BF 		.word	-1086026285
 3340 0528 208D46BF 		.word	-1085895392
 3341 052c 678548BF 		.word	-1085766297
 3342 0530 8F764ABF 		.word	-1085639025
 3343 0534 80604CBF 		.word	-1085513600
 3344 0538 22434EBF 		.word	-1085390046
 3345 053c 5E1E50BF 		.word	-1085268386
 3346 0540 1AF251BF 		.word	-1085148646
 3347 0544 3EBE53BF 		.word	-1085030850
 3348 0548 B38255BF 		.word	-1084915021
 3349 054c 613F57BF 		.word	-1084801183
 3350 0550 2FF458BF 		.word	-1084689361
 3351 0554 04A15ABF 		.word	-1084579580
 3352 0558 CA455CBF 		.word	-1084471862
 3353 055c 67E25DBF 		.word	-1084366233
 3354 0560 C5765FBF 		.word	-1084262715
 3355 0564 C90261BF 		.word	-1084161335
 3356 0568 5D8662BF 		.word	-1084062115
 3357 056c 680164BF 		.word	-1083965080
 3358 0570 D37365BF 		.word	-1083870253
 3359 0574 84DD66BF 		.word	-1083777660
 3360 0578 643E68BF 		.word	-1083687324
 3361 057c 5B9669BF 		.word	-1083599269
 3362 0580 50E56ABF 		.word	-1083513520
 3363 0584 2B2B6CBF 		.word	-1083430101
 3364 0588 D5676DBF 		.word	-1083349035
 3365 058c 359B6EBF 		.word	-1083270347
 3366 0590 33C56FBF 		.word	-1083194061
 3367 0594 B7E570BF 		.word	-1083120201
 3368 0598 A8FC71BF 		.word	-1083048792
 3369 059c EF0973BF 		.word	-1082979857
 3370 05a0 730D74BF 		.word	-1082913421
 3371 05a4 1D0775BF 		.word	-1082849507
 3372 05a8 D3F675BF 		.word	-1082788141
 3373 05ac 7FDC76BF 		.word	-1082729345
 3374 05b0 07B877BF 		.word	-1082673145
 3375 05b4 548978BF 		.word	-1082619564
 3376 05b8 4E5079BF 		.word	-1082568626
 3377 05bc DC0C7ABF 		.word	-1082520356
 3378 05c0 E6BE7ABF 		.word	-1082474778
 3379 05c4 55667BBF 		.word	-1082431915
 3380 05c8 0F037CBF 		.word	-1082391793
 3381 05cc FD947CBF 		.word	-1082354435
 3382 05d0 071C7DBF 		.word	-1082319865
 3383 05d4 15987DBF 		.word	-1082288107
 3384 05d8 0E097EBF 		.word	-1082259186
 3385 05dc DA6E7EBF 		.word	-1082233126
 3386 05e0 61C97EBF 		.word	-1082209951
 3387 05e4 8B187FBF 		.word	-1082189685
 3388 05e8 405C7FBF 		.word	-1082172352
 3389 05ec 68947FBF 		.word	-1082157976
 3390 05f0 EBC07FBF 		.word	-1082146581
 3391 05f4 AFE17FBF 		.word	-1082138193
 3392 05f8 9EF67FBF 		.word	-1082132834
 3393 05fc A0FF7FBF 		.word	-1082130528
 3394 0600 9BFC7FBF 		.word	-1082131301
ARM GAS  /var/folders/z2/7_lhr9dn53s9tj4s0rwtyswm0000gn/T//ccJ9q3ms.s 			page 117


 3395 0604 78ED7FBF 		.word	-1082135176
 3396 0608 1FD27FBF 		.word	-1082142177
 3397 060c 77AA7FBF 		.word	-1082152329
 3398 0610 69767FBF 		.word	-1082165655
 3399 0614 DC357FBF 		.word	-1082182180
 3400 0618 B8E87EBF 		.word	-1082201928
 3401 061c E68E7EBF 		.word	-1082224922
 3402 0620 4C287EBF 		.word	-1082251188
 3403 0624 D3B47DBF 		.word	-1082280749
 3404 0628 62347DBF 		.word	-1082313630
 3405 062c E2A67CBF 		.word	-1082349854
 3406 0630 3A0C7CBF 		.word	-1082389446
 3407 0634 53647BBF 		.word	-1082432429
 3408 0638 13AF7ABF 		.word	-1082478829
 3409 063c 63EC79BF 		.word	-1082528669
 3410 0640 2B1C79BF 		.word	-1082581973
 3411 0644 533E78BF 		.word	-1082638765
 3412 0648 C25277BF 		.word	-1082699070
 3413 064c 615976BF 		.word	-1082762911
 3414 0650 165275BF 		.word	-1082830314
 3415 0654 CB3C74BF 		.word	-1082901301
 3416 0658 661973BF 		.word	-1082975898
 3417 065c D1E771BF 		.word	-1083054127
 3418 0660 F1A770BF 		.word	-1083136015
 3419 0664 B1596FBF 		.word	-1083221583
 3420 0668 F6FC6DBF 		.word	-1083310858
 3421 066c AA916CBF 		.word	-1083403862
 3422 0670 B4176BBF 		.word	-1083500620
 3423 0674 FC8E69BF 		.word	-1083601156
 3424 0678 6AF767BF 		.word	-1083705494
 3425 067c E55066BF 		.word	-1083813659
 3426 0680 569B64BF 		.word	-1083925674
 3427 0684 A4D662BF 		.word	-1084041564
 3428 0688 B70261BF 		.word	-1084161353
 3429 068c 771F5FBF 		.word	-1084285065
 3430 0690 CC2C5DBF 		.word	-1084412724
 3431 0694 9E2A5BBF 		.word	-1084544354
 3432 0698 D51859BF 		.word	-1084679979
 3433 069c 58F756BF 		.word	-1084819624
 3434 06a0 0FC654BF 		.word	-1084963313
 3435 06a4 E38452BF 		.word	-1085111069
 3436 06a8 BB3350BF 		.word	-1085262917
 3437 06ac 7FD24DBF 		.word	-1085418881
 3438 06b0 16614BBF 		.word	-1085578986
 3439 06b4 69DF48BF 		.word	-1085743255
 3440 06b8 604D46BF 		.word	-1085911712
 3441 06bc E2AA43BF 		.word	-1086084382
 3442 06c0 D7F740BF 		.word	-1086261289
 3443 06c4 27343EBF 		.word	-1086442457
 3444 06c8 BB5F3BBF 		.word	-1086627909
 3445 06cc 797A38BF 		.word	-1086817671
 3446 06d0 498435BF 		.word	-1087011767
 3447 06d4 147D32BF 		.word	-1087210220
 3448 06d8 C2642FBF 		.word	-1087413054
 3449 06dc 3A3B2CBF 		.word	-1087620294
 3450 06e0 640029BF 		.word	-1087831964
 3451 06e4 28B425BF 		.word	-1088048088
ARM GAS  /var/folders/z2/7_lhr9dn53s9tj4s0rwtyswm0000gn/T//ccJ9q3ms.s 			page 118


 3452 06e8 6D5622BF 		.word	-1088268691
 3453 06ec 1DE71EBF 		.word	-1088493795
 3454 06f0 1E661BBF 		.word	-1088723426
 3455 06f4 58D317BF 		.word	-1088957608
 3456 06f8 B32E14BF 		.word	-1089196365
 3457 06fc 187810BF 		.word	-1089439720
 3458 0700 6EAF0CBF 		.word	-1089687698
 3459 0704 9CD408BF 		.word	-1089940324
 3460 0708 8BE704BF 		.word	-1090197621
 3461 070c 23E800BF 		.word	-1090459613
 3462 0710 95ACF9BE 		.word	-1090933611
 3463 0714 D663F1BE 		.word	-1091476522
 3464 0718 D7F5E8BE 		.word	-1092028969
 3465 071c 6862E0BE 		.word	-1092591000
 3466 0720 58A9D7BE 		.word	-1093162664
 3467 0724 78CACEBE 		.word	-1093744008
 3468 0728 97C5C5BE 		.word	-1094335081
 3469 072c 859ABCBE 		.word	-1094935931
 3470 0730 1149B3BE 		.word	-1095546607
 3471 0734 0CD1A9BE 		.word	-1096167156
 3472 0738 4432A0BE 		.word	-1096797628
 3473 073c 8A6C96BE 		.word	-1097438070
 3474 0740 AE7F8CBE 		.word	-1098088530
 3475 0744 7F6B82BE 		.word	-1098749057
 3476 0748 995F70BE 		.word	-1099931751
 3477 074c CD985BBE 		.word	-1101293363
 3478 0750 3A8246BE 		.word	-1102675398
 3479 0754 7F1B31BE 		.word	-1104077953
 3480 0758 3B641BBE 		.word	-1105501125
 3481 075c 0F5C05BE 		.word	-1106945009
 3482 0760 3005DEBD 		.word	-1109523152
 3483 0764 EFAEB0BD 		.word	-1112494353
 3484 0768 98B482BD 		.word	-1115507560
 3485 076c D42A28BD 		.word	-1121441068
 3486 0770 914293BC 		.word	-1131199855
 3487 0774 A6A7B13B 		.word	1001498534
 3488 0778 CDB2EE3C 		.word	1022276301
 3489 077c 8FCD593D 		.word	1029295503
 3490 0780 78C99E3D 		.word	1033816440
 3491 0784 8655D13D 		.word	1037129094
 3492 0788 DA45023E 		.word	1040336346
 3493 078c 60361C3E 		.word	1042036320
 3494 0790 B77C363E 		.word	1043758263
 3495 0794 3F19513E 		.word	1045502271
 3496 0798 580C6C3E 		.word	1047268440
 3497 079c 32AB833E 		.word	1048816434
 3498 07a0 E17B913E 		.word	1049721825
 3499 07a4 6A789F3E 		.word	1050638442
 3500 07a8 FDA0AD3E 		.word	1051566333
 3501 07ac CAF5BB3E 		.word	1052505546
 3502 07b0 0177CA3E 		.word	1053456129
 3503 07b4 D324D93E 		.word	1054418131
 3504 07b8 71FFE73E 		.word	1055391601
 3505 07bc 0907F73E 		.word	1056376585
 3506 07c0 E71D033F 		.word	1057168871
 3507 07c4 F7CE0A3F 		.word	1057672951
 3508 07c8 CD96123F 		.word	1058182861
ARM GAS  /var/folders/z2/7_lhr9dn53s9tj4s0rwtyswm0000gn/T//ccJ9q3ms.s 			page 119


 3509 07cc 81751A3F 		.word	1058698625
 3510 07d0 2C6B223F 		.word	1059220268
 3511 07d4 E5772A3F 		.word	1059747813
 3512 07d8 C59B323F 		.word	1060281285
 3513 07dc E4D63A3F 		.word	1060820708
 3514 07e0 5A29433F 		.word	1061366106
 3515 07e4 3F934B3F 		.word	1061917503
 3516 07e8 AB14543F 		.word	1062474923
 3517 07ec B6AD5C3F 		.word	1063038390
 3518 07f0 795E653F 		.word	1063607929
 3519 07f4 0B276E3F 		.word	1064183563
 3520 07f8 8607773F 		.word	1064765318
 3521 07fc 0000803F 		.word	1065353216
 3522              		.section	.rodata._ZN7daisyspL2c4E,"a"
 3523              		.align	2
 3524              		.set	.LANCHOR11,. + 0
 3527              	_ZN7daisyspL2c4E:
 3528 0000 0000803F 		.word	1065353216
 3529 0004 0420703F 		.word	1064312836
 3530 0008 978F603F 		.word	1063292823
 3531 000c FB4D513F 		.word	1062292987
 3532 0010 6E5A423F 		.word	1061313134
 3533 0014 33B4333F 		.word	1060353075
 3534 0018 8C5A253F 		.word	1059412620
 3535 001c BD4C173F 		.word	1058491581
 3536 0020 088A093F 		.word	1057589768
 3537 0024 6623F83E 		.word	1056449382
 3538 0028 05C6DD3E 		.word	1054721541
 3539 002c 79FAC33E 		.word	1053031033
 3540 0030 51BFAA3E 		.word	1051377489
 3541 0034 1B13923E 		.word	1049760539
 3542 0038 D1E8733E 		.word	1047783633
 3543 003c 96C3443E 		.word	1044693910
 3544 0040 ACB3163E 		.word	1041675180
 3545 0044 7C6CD33D 		.word	1037266044
 3546 0048 E621773D 		.word	1031217638
 3547 004c 753C973C 		.word	1016544373
 3548 0050 797AB7BC 		.word	-1128826247
 3549 0054 A6FB7EBD 		.word	-1115751514
 3550 0058 0D14CFBD 		.word	-1110502387
 3551 005c 6A530EBE 		.word	-1106357398
 3552 0060 D51D34BE 		.word	-1103880747
 3553 0064 04EC58BE 		.word	-1101468668
 3554 0068 B2C07CBE 		.word	-1099120462
 3555 006c 4BCF8FBE 		.word	-1097871541
 3556 0070 33C4A0BE 		.word	-1096760269
 3557 0074 6840B1BE 		.word	-1095679896
 3558 0078 4345C1BE 		.word	-1094630077
 3559 007c 19D4D0BE 		.word	-1093610471
 3560 0080 3EEEDFBE 		.word	-1092620738
 3561 0084 0495EEBE 		.word	-1091660540
 3562 0088 BDC9FCBE 		.word	-1090729539
 3563 008c DC4605BF 		.word	-1090173220
 3564 0090 22F10BBF 		.word	-1089736414
 3565 0094 576412BF 		.word	-1089313705
 3566 0098 1FA118BF 		.word	-1088904929
 3567 009c 21A81EBF 		.word	-1088509919
ARM GAS  /var/folders/z2/7_lhr9dn53s9tj4s0rwtyswm0000gn/T//ccJ9q3ms.s 			page 120


 3568 00a0 FF7924BF 		.word	-1088128513
 3569 00a4 5E172ABF 		.word	-1087760546
 3570 00a8 DF802FBF 		.word	-1087405857
 3571 00ac 25B734BF 		.word	-1087064283
 3572 00b0 D0BA39BF 		.word	-1086735664
 3573 00b4 818C3EBF 		.word	-1086419839
 3574 00b8 D72C43BF 		.word	-1086116649
 3575 00bc 719C47BF 		.word	-1085825935
 3576 00c0 EDDB4BBF 		.word	-1085547539
 3577 00c4 E8EB4FBF 		.word	-1085281304
 3578 00c8 FECC53BF 		.word	-1085027074
 3579 00cc CC7F57BF 		.word	-1084784692
 3580 00d0 EC045BBF 		.word	-1084554004
 3581 00d4 F95C5EBF 		.word	-1084334855
 3582 00d8 8B8861BF 		.word	-1084127093
 3583 00dc 3D8864BF 		.word	-1083930563
 3584 00e0 A45C67BF 		.word	-1083745116
 3585 00e4 5A066ABF 		.word	-1083570598
 3586 00e8 F3856CBF 		.word	-1083406861
 3587 00ec 07DC6EBF 		.word	-1083253753
 3588 00f0 290971BF 		.word	-1083111127
 3589 00f4 EE0D73BF 		.word	-1082978834
 3590 00f8 E9EA74BF 		.word	-1082856727
 3591 00fc ADA076BF 		.word	-1082744659
 3592 0100 CC2F78BF 		.word	-1082642484
 3593 0104 D79879BF 		.word	-1082550057
 3594 0108 5EDC7ABF 		.word	-1082467234
 3595 010c F1FA7BBF 		.word	-1082393871
 3596 0110 1FF57CBF 		.word	-1082329825
 3597 0114 75CB7DBF 		.word	-1082274955
 3598 0118 827E7EBF 		.word	-1082229118
 3599 011c D20E7FBF 		.word	-1082192174
 3600 0120 F17C7FBF 		.word	-1082163983
 3601 0124 69C97FBF 		.word	-1082144407
 3602 0128 C5F47FBF 		.word	-1082133307
 3603 012c 8FFF7FBF 		.word	-1082130545
 3604 0130 50EA7FBF 		.word	-1082135984
 3605 0134 8FB57FBF 		.word	-1082149489
 3606 0138 D3617FBF 		.word	-1082170925
 3607 013c A5EF7EBF 		.word	-1082200155
 3608 0140 885F7EBF 		.word	-1082237048
 3609 0144 02B27DBF 		.word	-1082281470
 3610 0148 99E77CBF 		.word	-1082333287
 3611 014c CE007CBF 		.word	-1082392370
 3612 0150 25FE7ABF 		.word	-1082458587
 3613 0154 1FE079BF 		.word	-1082531809
 3614 0158 3FA778BF 		.word	-1082611905
 3615 015c 045477BF 		.word	-1082698748
 3616 0160 EFE675BF 		.word	-1082792209
 3617 0164 7E6074BF 		.word	-1082892162
 3618 0168 2FC172BF 		.word	-1082998481
 3619 016c 810971BF 		.word	-1083111039
 3620 0170 EF396FBF 		.word	-1083229713
 3621 0174 F5526DBF 		.word	-1083354379
 3622 0178 10556BBF 		.word	-1083484912
 3623 017c B94069BF 		.word	-1083621191
 3624 0180 6A1667BF 		.word	-1083763094
ARM GAS  /var/folders/z2/7_lhr9dn53s9tj4s0rwtyswm0000gn/T//ccJ9q3ms.s 			page 121


 3625 0184 9DD664BF 		.word	-1083910499
 3626 0188 C88162BF 		.word	-1084063288
 3627 018c 641860BF 		.word	-1084221340
 3628 0190 E79A5DBF 		.word	-1084384537
 3629 0194 C7095BBF 		.word	-1084552761
 3630 0198 7A6558BF 		.word	-1084725894
 3631 019c 74AE55BF 		.word	-1084903820
 3632 01a0 28E552BF 		.word	-1085086424
 3633 01a4 090A50BF 		.word	-1085273591
 3634 01a8 8A1D4DBF 		.word	-1085465206
 3635 01ac 1B204ABF 		.word	-1085661157
 3636 01b0 2E1247BF 		.word	-1085861330
 3637 01b4 33F443BF 		.word	-1086065613
 3638 01b8 97C640BF 		.word	-1086273897
 3639 01bc CB893DBF 		.word	-1086486069
 3640 01c0 3B3E3ABF 		.word	-1086702021
 3641 01c4 54E436BF 		.word	-1086921644
 3642 01c8 837C33BF 		.word	-1087144829
 3643 01cc 320730BF 		.word	-1087371470
 3644 01d0 CD842CBF 		.word	-1087601459
 3645 01d4 BDF528BF 		.word	-1087834691
 3646 01d8 6B5A25BF 		.word	-1088071061
 3647 01dc 3FB321BF 		.word	-1088310465
 3648 01e0 A2001EBF 		.word	-1088552798
 3649 01e4 F9421ABF 		.word	-1088797959
 3650 01e8 AB7A16BF 		.word	-1089045845
 3651 01ec 1DA812BF 		.word	-1089296355
 3652 01f0 B4CB0EBF 		.word	-1089549388
 3653 01f4 D4E50ABF 		.word	-1089804844
 3654 01f8 DFF606BF 		.word	-1090062625
 3655 01fc 38FF02BF 		.word	-1090322632
 3656 0200 80FEFDBE 		.word	-1090650496
 3657 0204 B0EEF5BE 		.word	-1091178832
 3658 0208 C0CFEDBE 		.word	-1091711040
 3659 020c 6FA2E5BE 		.word	-1092246929
 3660 0210 7967DDBE 		.word	-1092786311
 3661 0214 9A1FD5BE 		.word	-1093328998
 3662 0218 8CCBCCBE 		.word	-1093874804
 3663 021c 086CC4BE 		.word	-1094423544
 3664 0220 C401BCBE 		.word	-1094975036
 3665 0224 758DB3BE 		.word	-1095529099
 3666 0228 D00FABBE 		.word	-1096085552
 3667 022c 8889A2BE 		.word	-1096644216
 3668 0230 4BFB99BE 		.word	-1097204917
 3669 0234 CC6591BE 		.word	-1097767476
 3670 0238 B6C988BE 		.word	-1098331722
 3671 023c B72780BE 		.word	-1098897481
 3672 0240 F1006FBE 		.word	-1100021519
 3673 0244 4AA95DBE 		.word	-1101158070
 3674 0248 C8494CBE 		.word	-1102296632
 3675 024c B8E33ABE 		.word	-1103436872
 3676 0250 627829BE 		.word	-1104578462
 3677 0254 0D0918BE 		.word	-1105721075
 3678 0258 FE9606BE 		.word	-1106864386
 3679 025c E846EABD 		.word	-1108719896
 3680 0260 5B5FC7BD 		.word	-1111007397
 3681 0264 C879A4BD 		.word	-1113294392
ARM GAS  /var/folders/z2/7_lhr9dn53s9tj4s0rwtyswm0000gn/T//ccJ9q3ms.s 			page 122


 3682 0268 9E9881BD 		.word	-1115580258
 3683 026c 8F7C3DBD 		.word	-1120043889
 3684 0270 97B4EFBC 		.word	-1125141353
 3685 0274 B13C49BC 		.word	-1136051023
 3686 0278 0F01993B 		.word	999883023
 3687 027c FBDDB03C 		.word	1018224123
 3688 0280 D2981D3D 		.word	1025349842
 3689 0284 1599623D 		.word	1029871893
 3690 0288 A5B5933D 		.word	1033090469
 3691 028c 8105B63D 		.word	1035339137
 3692 0290 EB39D83D 		.word	1037580779
 3693 0294 B750FA3D 		.word	1039814839
 3694 0298 E0230E3E 		.word	1041114080
 3695 029c 710E1F3E 		.word	1042222705
 3696 02a0 04E72F3E 		.word	1043326724
 3697 02a4 8DAC403E 		.word	1044425869
 3698 02a8 055E513E 		.word	1045519877
 3699 02ac 69FA613E 		.word	1046608489
 3700 02b0 B880723E 		.word	1047691448
 3701 02b4 FA77813E 		.word	1048672250
 3702 02b8 90A3893E 		.word	1049207696
 3703 02bc A3C2913E 		.word	1049739939
 3704 02c0 B9D4993E 		.word	1050268857
 3705 02c4 58D9A13E 		.word	1050794328
 3706 02c8 09D0A93E 		.word	1051316233
 3707 02cc 56B8B13E 		.word	1051834454
 3708 02d0 CB91B93E 		.word	1052348875
 3709 02d4 F45BC13E 		.word	1052859380
 3710 02d8 6116C93E 		.word	1053365857
 3711 02dc A2C0D03E 		.word	1053868194
 3712 02e0 475AD83E 		.word	1054366279
 3713 02e4 E5E2DF3E 		.word	1054860005
 3714 02e8 105AE73E 		.word	1055349264
 3715 02ec 5EBFEE3E 		.word	1055833950
 3716 02f0 6712F63E 		.word	1056313959
 3717 02f4 C452FD3E 		.word	1056789188
 3718 02f8 0840023F 		.word	1057112072
 3719 02fc F3CC053F 		.word	1057344755
 3720 0300 F34F093F 		.word	1057574899
 3721 0304 D7C80C3F 		.word	1057802455
 3722 0308 6F37103F 		.word	1058027375
 3723 030c 8D9B133F 		.word	1058249613
 3724 0310 02F5163F 		.word	1058469122
 3725 0314 A1431A3F 		.word	1058685857
 3726 0318 3D871D3F 		.word	1058899773
 3727 031c ABBF203F 		.word	1059110827
 3728 0320 BFEC233F 		.word	1059318975
 3729 0324 500E273F 		.word	1059524176
 3730 0328 34242A3F 		.word	1059726388
 3731 032c 412E2D3F 		.word	1059925569
 3732 0330 4F2C303F 		.word	1060121679
 3733 0334 391E333F 		.word	1060314681
 3734 0338 D603363F 		.word	1060504534
 3735 033c 01DD383F 		.word	1060691201
 3736 0340 95A93B3F 		.word	1060874645
 3737 0344 6E693E3F 		.word	1061054830
 3738 0348 681C413F 		.word	1061231720
ARM GAS  /var/folders/z2/7_lhr9dn53s9tj4s0rwtyswm0000gn/T//ccJ9q3ms.s 			page 123


 3739 034c 61C2433F 		.word	1061405281
 3740 0350 365B463F 		.word	1061575478
 3741 0354 C6E6483F 		.word	1061742278
 3742 0358 F1644B3F 		.word	1061905649
 3743 035c 97D54D3F 		.word	1062065559
 3744 0360 9938503F 		.word	1062221977
 3745 0364 D88D523F 		.word	1062374872
 3746 0368 38D5543F 		.word	1062524216
 3747 036c 9B0E573F 		.word	1062669979
 3748 0370 E639593F 		.word	1062812134
 3749 0374 FD565B3F 		.word	1062950653
 3750 0378 C6655D3F 		.word	1063085510
 3751 037c 27665F3F 		.word	1063216679
 3752 0380 0858613F 		.word	1063344136
 3753 0384 4F3B633F 		.word	1063467855
 3754 0388 E60F653F 		.word	1063587814
 3755 038c B6D5663F 		.word	1063703990
 3756 0390 A98C683F 		.word	1063816361
 3757 0394 AA346A3F 		.word	1063924906
 3758 0398 A4CD6B3F 		.word	1064029604
 3759 039c 84576D3F 		.word	1064130436
 3760 03a0 36D26E3F 		.word	1064227382
 3761 03a4 AA3D703F 		.word	1064320426
 3762 03a8 CD99713F 		.word	1064409549
 3763 03ac 8FE6723F 		.word	1064494735
 3764 03b0 DF23743F 		.word	1064575967
 3765 03b4 AF51753F 		.word	1064653231
 3766 03b8 F16F763F 		.word	1064726513
 3767 03bc 967E773F 		.word	1064795798
 3768 03c0 927D783F 		.word	1064861074
 3769 03c4 D96C793F 		.word	1064922329
 3770 03c8 604C7A3F 		.word	1064979552
 3771 03cc 1B1C7B3F 		.word	1065032731
 3772 03d0 02DC7B3F 		.word	1065081858
 3773 03d4 0A8C7C3F 		.word	1065126922
 3774 03d8 2C2C7D3F 		.word	1065167916
 3775 03dc 61BC7D3F 		.word	1065204833
 3776 03e0 A03C7E3F 		.word	1065237664
 3777 03e4 E5AC7E3F 		.word	1065266405
 3778 03e8 2A0D7F3F 		.word	1065291050
 3779 03ec 6A5D7F3F 		.word	1065311594
 3780 03f0 A29D7F3F 		.word	1065328034
 3781 03f4 CFCD7F3F 		.word	1065340367
 3782 03f8 EEED7F3F 		.word	1065348590
 3783 03fc FEFD7F3F 		.word	1065352702
 3784 0400 FEFD7F3F 		.word	1065352702
 3785 0404 EEED7F3F 		.word	1065348590
 3786 0408 CFCD7F3F 		.word	1065340367
 3787 040c A29D7F3F 		.word	1065328034
 3788 0410 6A5D7F3F 		.word	1065311594
 3789 0414 2A0D7F3F 		.word	1065291050
 3790 0418 E5AC7E3F 		.word	1065266405
 3791 041c A03C7E3F 		.word	1065237664
 3792 0420 61BC7D3F 		.word	1065204833
 3793 0424 2C2C7D3F 		.word	1065167916
 3794 0428 0A8C7C3F 		.word	1065126922
 3795 042c 02DC7B3F 		.word	1065081858
ARM GAS  /var/folders/z2/7_lhr9dn53s9tj4s0rwtyswm0000gn/T//ccJ9q3ms.s 			page 124


 3796 0430 1B1C7B3F 		.word	1065032731
 3797 0434 604C7A3F 		.word	1064979552
 3798 0438 D96C793F 		.word	1064922329
 3799 043c 927D783F 		.word	1064861074
 3800 0440 967E773F 		.word	1064795798
 3801 0444 F16F763F 		.word	1064726513
 3802 0448 AF51753F 		.word	1064653231
 3803 044c DF23743F 		.word	1064575967
 3804 0450 8FE6723F 		.word	1064494735
 3805 0454 CD99713F 		.word	1064409549
 3806 0458 AA3D703F 		.word	1064320426
 3807 045c 36D26E3F 		.word	1064227382
 3808 0460 84576D3F 		.word	1064130436
 3809 0464 A4CD6B3F 		.word	1064029604
 3810 0468 AA346A3F 		.word	1063924906
 3811 046c A98C683F 		.word	1063816361
 3812 0470 B6D5663F 		.word	1063703990
 3813 0474 E60F653F 		.word	1063587814
 3814 0478 4F3B633F 		.word	1063467855
 3815 047c 0858613F 		.word	1063344136
 3816 0480 27665F3F 		.word	1063216679
 3817 0484 C6655D3F 		.word	1063085510
 3818 0488 FD565B3F 		.word	1062950653
 3819 048c E639593F 		.word	1062812134
 3820 0490 9B0E573F 		.word	1062669979
 3821 0494 38D5543F 		.word	1062524216
 3822 0498 D88D523F 		.word	1062374872
 3823 049c 9938503F 		.word	1062221977
 3824 04a0 97D54D3F 		.word	1062065559
 3825 04a4 F1644B3F 		.word	1061905649
 3826 04a8 C6E6483F 		.word	1061742278
 3827 04ac 365B463F 		.word	1061575478
 3828 04b0 61C2433F 		.word	1061405281
 3829 04b4 681C413F 		.word	1061231720
 3830 04b8 6E693E3F 		.word	1061054830
 3831 04bc 95A93B3F 		.word	1060874645
 3832 04c0 01DD383F 		.word	1060691201
 3833 04c4 D603363F 		.word	1060504534
 3834 04c8 391E333F 		.word	1060314681
 3835 04cc 4F2C303F 		.word	1060121679
 3836 04d0 412E2D3F 		.word	1059925569
 3837 04d4 34242A3F 		.word	1059726388
 3838 04d8 500E273F 		.word	1059524176
 3839 04dc BFEC233F 		.word	1059318975
 3840 04e0 ABBF203F 		.word	1059110827
 3841 04e4 3D871D3F 		.word	1058899773
 3842 04e8 A1431A3F 		.word	1058685857
 3843 04ec 02F5163F 		.word	1058469122
 3844 04f0 8D9B133F 		.word	1058249613
 3845 04f4 6F37103F 		.word	1058027375
 3846 04f8 D7C80C3F 		.word	1057802455
 3847 04fc F34F093F 		.word	1057574899
 3848 0500 F3CC053F 		.word	1057344755
 3849 0504 0840023F 		.word	1057112072
 3850 0508 C452FD3E 		.word	1056789188
 3851 050c 6712F63E 		.word	1056313959
 3852 0510 5EBFEE3E 		.word	1055833950
ARM GAS  /var/folders/z2/7_lhr9dn53s9tj4s0rwtyswm0000gn/T//ccJ9q3ms.s 			page 125


 3853 0514 105AE73E 		.word	1055349264
 3854 0518 E5E2DF3E 		.word	1054860005
 3855 051c 475AD83E 		.word	1054366279
 3856 0520 A2C0D03E 		.word	1053868194
 3857 0524 6116C93E 		.word	1053365857
 3858 0528 F45BC13E 		.word	1052859380
 3859 052c CB91B93E 		.word	1052348875
 3860 0530 56B8B13E 		.word	1051834454
 3861 0534 09D0A93E 		.word	1051316233
 3862 0538 58D9A13E 		.word	1050794328
 3863 053c B9D4993E 		.word	1050268857
 3864 0540 A3C2913E 		.word	1049739939
 3865 0544 90A3893E 		.word	1049207696
 3866 0548 FA77813E 		.word	1048672250
 3867 054c B880723E 		.word	1047691448
 3868 0550 69FA613E 		.word	1046608489
 3869 0554 055E513E 		.word	1045519877
 3870 0558 8DAC403E 		.word	1044425869
 3871 055c 04E72F3E 		.word	1043326724
 3872 0560 710E1F3E 		.word	1042222705
 3873 0564 E0230E3E 		.word	1041114080
 3874 0568 B750FA3D 		.word	1039814839
 3875 056c EB39D83D 		.word	1037580779
 3876 0570 8105B63D 		.word	1035339137
 3877 0574 A5B5933D 		.word	1033090469
 3878 0578 1599623D 		.word	1029871893
 3879 057c D2981D3D 		.word	1025349842
 3880 0580 FBDDB03C 		.word	1018224123
 3881 0584 0F01993B 		.word	999883023
 3882 0588 B13C49BC 		.word	-1136051023
 3883 058c 97B4EFBC 		.word	-1125141353
 3884 0590 8F7C3DBD 		.word	-1120043889
 3885 0594 9E9881BD 		.word	-1115580258
 3886 0598 C879A4BD 		.word	-1113294392
 3887 059c 5B5FC7BD 		.word	-1111007397
 3888 05a0 E846EABD 		.word	-1108719896
 3889 05a4 FE9606BE 		.word	-1106864386
 3890 05a8 0D0918BE 		.word	-1105721075
 3891 05ac 627829BE 		.word	-1104578462
 3892 05b0 B8E33ABE 		.word	-1103436872
 3893 05b4 C8494CBE 		.word	-1102296632
 3894 05b8 4AA95DBE 		.word	-1101158070
 3895 05bc F1006FBE 		.word	-1100021519
 3896 05c0 B72780BE 		.word	-1098897481
 3897 05c4 B6C988BE 		.word	-1098331722
 3898 05c8 CC6591BE 		.word	-1097767476
 3899 05cc 4BFB99BE 		.word	-1097204917
 3900 05d0 8889A2BE 		.word	-1096644216
 3901 05d4 D00FABBE 		.word	-1096085552
 3902 05d8 758DB3BE 		.word	-1095529099
 3903 05dc C401BCBE 		.word	-1094975036
 3904 05e0 086CC4BE 		.word	-1094423544
 3905 05e4 8CCBCCBE 		.word	-1093874804
 3906 05e8 9A1FD5BE 		.word	-1093328998
 3907 05ec 7967DDBE 		.word	-1092786311
 3908 05f0 6FA2E5BE 		.word	-1092246929
 3909 05f4 C0CFEDBE 		.word	-1091711040
ARM GAS  /var/folders/z2/7_lhr9dn53s9tj4s0rwtyswm0000gn/T//ccJ9q3ms.s 			page 126


 3910 05f8 B0EEF5BE 		.word	-1091178832
 3911 05fc 80FEFDBE 		.word	-1090650496
 3912 0600 38FF02BF 		.word	-1090322632
 3913 0604 DFF606BF 		.word	-1090062625
 3914 0608 D4E50ABF 		.word	-1089804844
 3915 060c B4CB0EBF 		.word	-1089549388
 3916 0610 1DA812BF 		.word	-1089296355
 3917 0614 AB7A16BF 		.word	-1089045845
 3918 0618 F9421ABF 		.word	-1088797959
 3919 061c A2001EBF 		.word	-1088552798
 3920 0620 3FB321BF 		.word	-1088310465
 3921 0624 6B5A25BF 		.word	-1088071061
 3922 0628 BDF528BF 		.word	-1087834691
 3923 062c CD842CBF 		.word	-1087601459
 3924 0630 320730BF 		.word	-1087371470
 3925 0634 837C33BF 		.word	-1087144829
 3926 0638 54E436BF 		.word	-1086921644
 3927 063c 3B3E3ABF 		.word	-1086702021
 3928 0640 CB893DBF 		.word	-1086486069
 3929 0644 97C640BF 		.word	-1086273897
 3930 0648 33F443BF 		.word	-1086065613
 3931 064c 2E1247BF 		.word	-1085861330
 3932 0650 1B204ABF 		.word	-1085661157
 3933 0654 8A1D4DBF 		.word	-1085465206
 3934 0658 090A50BF 		.word	-1085273591
 3935 065c 28E552BF 		.word	-1085086424
 3936 0660 74AE55BF 		.word	-1084903820
 3937 0664 7A6558BF 		.word	-1084725894
 3938 0668 C7095BBF 		.word	-1084552761
 3939 066c E79A5DBF 		.word	-1084384537
 3940 0670 641860BF 		.word	-1084221340
 3941 0674 C88162BF 		.word	-1084063288
 3942 0678 9DD664BF 		.word	-1083910499
 3943 067c 6A1667BF 		.word	-1083763094
 3944 0680 B94069BF 		.word	-1083621191
 3945 0684 10556BBF 		.word	-1083484912
 3946 0688 F5526DBF 		.word	-1083354379
 3947 068c EF396FBF 		.word	-1083229713
 3948 0690 810971BF 		.word	-1083111039
 3949 0694 2FC172BF 		.word	-1082998481
 3950 0698 7E6074BF 		.word	-1082892162
 3951 069c EFE675BF 		.word	-1082792209
 3952 06a0 045477BF 		.word	-1082698748
 3953 06a4 3FA778BF 		.word	-1082611905
 3954 06a8 1FE079BF 		.word	-1082531809
 3955 06ac 25FE7ABF 		.word	-1082458587
 3956 06b0 CE007CBF 		.word	-1082392370
 3957 06b4 99E77CBF 		.word	-1082333287
 3958 06b8 02B27DBF 		.word	-1082281470
 3959 06bc 885F7EBF 		.word	-1082237048
 3960 06c0 A5EF7EBF 		.word	-1082200155
 3961 06c4 D3617FBF 		.word	-1082170925
 3962 06c8 8FB57FBF 		.word	-1082149489
 3963 06cc 50EA7FBF 		.word	-1082135984
 3964 06d0 8FFF7FBF 		.word	-1082130545
 3965 06d4 C5F47FBF 		.word	-1082133307
 3966 06d8 69C97FBF 		.word	-1082144407
ARM GAS  /var/folders/z2/7_lhr9dn53s9tj4s0rwtyswm0000gn/T//ccJ9q3ms.s 			page 127


 3967 06dc F17C7FBF 		.word	-1082163983
 3968 06e0 D20E7FBF 		.word	-1082192174
 3969 06e4 827E7EBF 		.word	-1082229118
 3970 06e8 75CB7DBF 		.word	-1082274955
 3971 06ec 1FF57CBF 		.word	-1082329825
 3972 06f0 F1FA7BBF 		.word	-1082393871
 3973 06f4 5EDC7ABF 		.word	-1082467234
 3974 06f8 D79879BF 		.word	-1082550057
 3975 06fc CC2F78BF 		.word	-1082642484
 3976 0700 ADA076BF 		.word	-1082744659
 3977 0704 E9EA74BF 		.word	-1082856727
 3978 0708 EE0D73BF 		.word	-1082978834
 3979 070c 290971BF 		.word	-1083111127
 3980 0710 07DC6EBF 		.word	-1083253753
 3981 0714 F3856CBF 		.word	-1083406861
 3982 0718 5A066ABF 		.word	-1083570598
 3983 071c A45C67BF 		.word	-1083745116
 3984 0720 3D8864BF 		.word	-1083930563
 3985 0724 8B8861BF 		.word	-1084127093
 3986 0728 F95C5EBF 		.word	-1084334855
 3987 072c EC045BBF 		.word	-1084554004
 3988 0730 CC7F57BF 		.word	-1084784692
 3989 0734 FECC53BF 		.word	-1085027074
 3990 0738 E8EB4FBF 		.word	-1085281304
 3991 073c EDDB4BBF 		.word	-1085547539
 3992 0740 719C47BF 		.word	-1085825935
 3993 0744 D72C43BF 		.word	-1086116649
 3994 0748 818C3EBF 		.word	-1086419839
 3995 074c D0BA39BF 		.word	-1086735664
 3996 0750 25B734BF 		.word	-1087064283
 3997 0754 DF802FBF 		.word	-1087405857
 3998 0758 5E172ABF 		.word	-1087760546
 3999 075c FF7924BF 		.word	-1088128513
 4000 0760 21A81EBF 		.word	-1088509919
 4001 0764 1FA118BF 		.word	-1088904929
 4002 0768 576412BF 		.word	-1089313705
 4003 076c 22F10BBF 		.word	-1089736414
 4004 0770 DC4605BF 		.word	-1090173220
 4005 0774 BDC9FCBE 		.word	-1090729539
 4006 0778 0495EEBE 		.word	-1091660540
 4007 077c 3EEEDFBE 		.word	-1092620738
 4008 0780 19D4D0BE 		.word	-1093610471
 4009 0784 4345C1BE 		.word	-1094630077
 4010 0788 6840B1BE 		.word	-1095679896
 4011 078c 33C4A0BE 		.word	-1096760269
 4012 0790 4BCF8FBE 		.word	-1097871541
 4013 0794 B2C07CBE 		.word	-1099120462
 4014 0798 04EC58BE 		.word	-1101468668
 4015 079c D51D34BE 		.word	-1103880747
 4016 07a0 6A530EBE 		.word	-1106357398
 4017 07a4 0D14CFBD 		.word	-1110502387
 4018 07a8 A6FB7EBD 		.word	-1115751514
 4019 07ac 797AB7BC 		.word	-1128826247
 4020 07b0 753C973C 		.word	1016544373
 4021 07b4 E621773D 		.word	1031217638
 4022 07b8 7C6CD33D 		.word	1037266044
 4023 07bc ACB3163E 		.word	1041675180
ARM GAS  /var/folders/z2/7_lhr9dn53s9tj4s0rwtyswm0000gn/T//ccJ9q3ms.s 			page 128


 4024 07c0 96C3443E 		.word	1044693910
 4025 07c4 D1E8733E 		.word	1047783633
 4026 07c8 1B13923E 		.word	1049760539
 4027 07cc 51BFAA3E 		.word	1051377489
 4028 07d0 79FAC33E 		.word	1053031033
 4029 07d4 05C6DD3E 		.word	1054721541
 4030 07d8 6623F83E 		.word	1056449382
 4031 07dc 088A093F 		.word	1057589768
 4032 07e0 BD4C173F 		.word	1058491581
 4033 07e4 8C5A253F 		.word	1059412620
 4034 07e8 33B4333F 		.word	1060353075
 4035 07ec 6E5A423F 		.word	1061313134
 4036 07f0 FB4D513F 		.word	1062292987
 4037 07f4 978F603F 		.word	1063292823
 4038 07f8 0420703F 		.word	1064312836
 4039 07fc 0000803F 		.word	1065353216
 4040              		.section	.rodata._ZN7daisyspL2c5E,"a"
 4041              		.align	2
 4042              		.set	.LANCHOR12,. + 0
 4045              	_ZN7daisyspL2c5E:
 4046 0000 000080BF 		.word	-1082130432
 4047 0004 525767BF 		.word	-1083746478
 4048 0008 23744FBF 		.word	-1085311965
 4049 000c 335338BF 		.word	-1086827725
 4050 0010 47F121BF 		.word	-1088294585
 4051 0014 2D4B0CBF 		.word	-1089713363
 4052 0018 73BBEEBE 		.word	-1091650701
 4053 001c 904BC6BE 		.word	-1094300784
 4054 0020 7A409FBE 		.word	-1096859526
 4055 0024 0C2873BE 		.word	-1099749364
 4056 0028 30802ABE 		.word	-1104510928
 4057 002c 91FAC8BD 		.word	-1110902127
 4058 0030 5A4D04BD 		.word	-1123791526
 4059 0034 274CFE3C 		.word	1023298599
 4060 0038 1A4ABC3D 		.word	1035749914
 4061 003c E80A1A3E 		.word	1041894120
 4062 0040 A086533E 		.word	1045661344
 4063 0044 D151853E 		.word	1048924625
 4064 0048 9FB69F3E 		.word	1050654367
 4065 004c 56F7B83E 		.word	1052309334
 4066 0050 8119D13E 		.word	1053890945
 4067 0054 9E22E83E 		.word	1055400606
 4068 0058 1F18FE3E 		.word	1056839711
 4069 005c B27F093F 		.word	1057587122
 4070 0060 E36E133F 		.word	1058238179
 4071 0064 44DC1C3F 		.word	1058856004
 4072 0068 72CA253F 		.word	1059441266
 4073 006c 033C2E3F 		.word	1059994627
 4074 0070 8633363F 		.word	1060516742
 4075 0074 84B33D3F 		.word	1061008260
 4076 0078 7DBE443F 		.word	1061469821
 4077 007c EE564B3F 		.word	1061902062
 4078 0080 497F513F 		.word	1062305609
 4079 0084 FC39573F 		.word	1062681084
 4080 0088 6F895C3F 		.word	1063029103
 4081 008c 0270613F 		.word	1063350274
 4082 0090 0EF0653F 		.word	1063645198
ARM GAS  /var/folders/z2/7_lhr9dn53s9tj4s0rwtyswm0000gn/T//ccJ9q3ms.s 			page 129


 4083 0094 E60B6A3F 		.word	1063914470
 4084 0098 D8C56D3F 		.word	1064158680
 4085 009c 2A20713F 		.word	1064378410
 4086 00a0 1B1D743F 		.word	1064574235
 4087 00a4 E5BE763F 		.word	1064746725
 4088 00a8 BC07793F 		.word	1064896444
 4089 00ac CBF97A3F 		.word	1065023947
 4090 00b0 39977C3F 		.word	1065129785
 4091 00b4 27E27D3F 		.word	1065214503
 4092 00b8 ADDC7E3F 		.word	1065278637
 4093 00bc E1887F3F 		.word	1065322721
 4094 00c0 CFE87F3F 		.word	1065347279
 4095 00c4 7EFE7F3F 		.word	1065352830
 4096 00c8 F0CB7F3F 		.word	1065339888
 4097 00cc 20537F3F 		.word	1065308960
 4098 00d0 03967E3F 		.word	1065260547
 4099 00d4 87967D3F 		.word	1065195143
 4100 00d8 95567C3F 		.word	1065113237
 4101 00dc 11D87A3F 		.word	1065015313
 4102 00e0 D71C793F 		.word	1064901847
 4103 00e4 BE26773F 		.word	1064773310
 4104 00e8 98F7743F 		.word	1064630168
 4105 00ec 2F91723F 		.word	1064472879
 4106 00f0 49F56F3F 		.word	1064301897
 4107 00f4 A6256D3F 		.word	1064117670
 4108 00f8 FE236A3F 		.word	1063920638
 4109 00fc 07F2663F 		.word	1063711239
 4110 0100 6F91633F 		.word	1063489903
 4111 0104 DD03603F 		.word	1063257053
 4112 0108 F64A5C3F 		.word	1063013110
 4113 010c 5668583F 		.word	1062758486
 4114 0110 965D543F 		.word	1062493590
 4115 0114 462C503F 		.word	1062218822
 4116 0118 F4D54B3F 		.word	1061934580
 4117 011c 275C473F 		.word	1061641255
 4118 0120 61C0423F 		.word	1061339233
 4119 0124 1D043E3F 		.word	1061028893
 4120 0128 D228393F 		.word	1060710610
 4121 012c F22F343F 		.word	1060384754
 4122 0130 E81A2F3F 		.word	1060051688
 4123 0134 1BEB293F 		.word	1059711771
 4124 0138 ECA1243F 		.word	1059365356
 4125 013c B7401F3F 		.word	1059012791
 4126 0140 D3C8193F 		.word	1058654419
 4127 0144 923B143F 		.word	1058290578
 4128 0148 3F9A0E3F 		.word	1057921599
 4129 014c 23E6083F 		.word	1057547811
 4130 0150 7E20033F 		.word	1057169534
 4131 0154 1C95FA3E 		.word	1056609564
 4132 0158 15CBEE3E 		.word	1055836949
 4133 015c 4DE5E23E 		.word	1055057229
 4134 0160 1FE6D63E 		.word	1054271007
 4135 0164 DECFCA3E 		.word	1053478878
 4136 0168 D0A4BE3E 		.word	1052681424
 4137 016c 3467B23E 		.word	1051879220
 4138 0170 3E19A63E 		.word	1051072830
 4139 0174 17BD993E 		.word	1050262807
ARM GAS  /var/folders/z2/7_lhr9dn53s9tj4s0rwtyswm0000gn/T//ccJ9q3ms.s 			page 130


 4140 0178 E1548D3E 		.word	1049449697
 4141 017c B2E2803E 		.word	1048634034
 4142 0180 31D1683E 		.word	1047056689
 4143 0184 30D14F3E 		.word	1045418288
 4144 0188 56C9363E 		.word	1043777878
 4145 018c 85BD1D3E 		.word	1042136453
 4146 0190 8DB1043E 		.word	1040494989
 4147 0194 5652D73D 		.word	1037521494
 4148 0198 1450A53D 		.word	1034244116
 4149 019c 08C7663D 		.word	1030145800
 4150 01a0 6727033D 		.word	1023616871
 4151 01a4 A678FE3B 		.word	1006532774
 4152 01a8 CA6886BC 		.word	-1132042038
 4153 01ac C5D525BD 		.word	-1121593915
 4154 01b0 070484BD 		.word	-1115421689
 4155 01b4 47DFB4BD 		.word	-1112219833
 4156 01b8 6A76E5BD 		.word	-1109035414
 4157 01bc ADE10ABE 		.word	-1106583123
 4158 01c0 14E022BE 		.word	-1105010668
 4159 01c4 80B33ABE 		.word	-1103449216
 4160 01c8 1B5952BE 		.word	-1101899493
 4161 01cc 1ECE69BE 		.word	-1100362210
 4162 01d0 EA8780BE 		.word	-1098872854
 4163 01d4 CC0D8CBE 		.word	-1098117684
 4164 01d8 6B7797BE 		.word	-1097369749
 4165 01dc 84C3A2BE 		.word	-1096629372
 4166 01e0 DFF0ADBE 		.word	-1095896865
 4167 01e4 48FEB8BE 		.word	-1095172536
 4168 01e8 97EAC3BE 		.word	-1094456681
 4169 01ec A9B4CEBE 		.word	-1093749591
 4170 01f0 655BD9BE 		.word	-1093051547
 4171 01f4 B8DDE3BE 		.word	-1092362824
 4172 01f8 993AEEBE 		.word	-1091683687
 4173 01fc 0471F8BE 		.word	-1091014396
 4174 0200 FF3F01BF 		.word	-1090437121
 4175 0204 4B3306BF 		.word	-1090112693
 4176 0208 EF110BBF 		.word	-1089793553
 4177 020c 79DB0FBF 		.word	-1089479815
 4178 0210 7B8F14BF 		.word	-1089171589
 4179 0214 8A2D19BF 		.word	-1088868982
 4180 0218 3EB51DBF 		.word	-1088572098
 4181 021c 362622BF 		.word	-1088281034
 4182 0220 0F8026BF 		.word	-1087995889
 4183 0224 6FC22ABF 		.word	-1087716753
 4184 0228 FDEC2EBF 		.word	-1087443715
 4185 022c 63FF32BF 		.word	-1087176861
 4186 0230 4FF936BF 		.word	-1086916273
 4187 0234 73DA3ABF 		.word	-1086662029
 4188 0238 85A23EBF 		.word	-1086414203
 4189 023c 3C5142BF 		.word	-1086172868
 4190 0240 54E645BF 		.word	-1085938092
 4191 0244 8D6149BF 		.word	-1085709939
 4192 0248 A9C24CBF 		.word	-1085488471
 4193 024c 6E0950BF 		.word	-1085273746
 4194 0250 A53553BF 		.word	-1085065819
 4195 0254 194756BF 		.word	-1084864743
 4196 0258 9B3D59BF 		.word	-1084670565
ARM GAS  /var/folders/z2/7_lhr9dn53s9tj4s0rwtyswm0000gn/T//ccJ9q3ms.s 			page 131


 4197 025c FC185CBF 		.word	-1084483332
 4198 0260 13D95EBF 		.word	-1084303085
 4199 0264 B87D61BF 		.word	-1084129864
 4200 0268 C60664BF 		.word	-1083963706
 4201 026c 1E7466BF 		.word	-1083804642
 4202 0270 9FC568BF 		.word	-1083652705
 4203 0274 30FB6ABF 		.word	-1083507920
 4204 0278 B8146DBF 		.word	-1083370312
 4205 027c 21126FBF 		.word	-1083239903
 4206 0280 59F370BF 		.word	-1083116711
 4207 0284 51B872BF 		.word	-1083000751
 4208 0288 FC6074BF 		.word	-1082892036
 4209 028c 4FED75BF 		.word	-1082790577
 4210 0290 435D77BF 		.word	-1082696381
 4211 0294 D5B078BF 		.word	-1082609451
 4212 0298 01E879BF 		.word	-1082529791
 4213 029c CA027BBF 		.word	-1082457398
 4214 02a0 32017CBF 		.word	-1082392270
 4215 02a4 3FE37CBF 		.word	-1082334401
 4216 02a8 FCA87DBF 		.word	-1082283780
 4217 02ac 72527EBF 		.word	-1082240398
 4218 02b0 AFDF7EBF 		.word	-1082204241
 4219 02b4 C4507FBF 		.word	-1082175292
 4220 02b8 C4A57FBF 		.word	-1082153532
 4221 02bc C4DE7FBF 		.word	-1082138940
 4222 02c0 DCFB7FBF 		.word	-1082131492
 4223 02c4 25FD7FBF 		.word	-1082131163
 4224 02c8 BCE27FBF 		.word	-1082137924
 4225 02cc C0AC7FBF 		.word	-1082151744
 4226 02d0 515B7FBF 		.word	-1082172591
 4227 02d4 94EE7EBF 		.word	-1082200428
 4228 02d8 AC667EBF 		.word	-1082235220
 4229 02dc C3C37DBF 		.word	-1082276925
 4230 02e0 02067DBF 		.word	-1082325502
 4231 02e4 952D7CBF 		.word	-1082380907
 4232 02e8 AA3A7BBF 		.word	-1082443094
 4233 02ec 722D7ABF 		.word	-1082512014
 4234 02f0 1E0679BF 		.word	-1082587618
 4235 02f4 E3C477BF 		.word	-1082669853
 4236 02f8 F86976BF 		.word	-1082758664
 4237 02fc 94F574BF 		.word	-1082853996
 4238 0300 F26773BF 		.word	-1082955790
 4239 0304 4DC171BF 		.word	-1083063987
 4240 0308 E50170BF 		.word	-1083178523
 4241 030c F8296EBF 		.word	-1083299336
 4242 0310 C8396CBF 		.word	-1083426360
 4243 0314 99316ABF 		.word	-1083559527
 4244 0318 B11168BF 		.word	-1083698767
 4245 031c 55DA65BF 		.word	-1083844011
 4246 0320 CE8B63BF 		.word	-1083995186
 4247 0324 682661BF 		.word	-1084152216
 4248 0328 6EAA5EBF 		.word	-1084315026
 4249 032c 2C185CBF 		.word	-1084483540
 4250 0330 F46F59BF 		.word	-1084657676
 4251 0334 15B256BF 		.word	-1084837355
 4252 0338 E1DE53BF 		.word	-1085022495
 4253 033c ACF650BF 		.word	-1085213012
ARM GAS  /var/folders/z2/7_lhr9dn53s9tj4s0rwtyswm0000gn/T//ccJ9q3ms.s 			page 132


 4254 0340 CCF94DBF 		.word	-1085408820
 4255 0344 97E84ABF 		.word	-1085609833
 4256 0348 65C347BF 		.word	-1085815963
 4257 034c 908A44BF 		.word	-1086027120
 4258 0350 713E41BF 		.word	-1086243215
 4259 0354 66DF3DBF 		.word	-1086464154
 4260 0358 CC6D3ABF 		.word	-1086689844
 4261 035c 00EA36BF 		.word	-1086920192
 4262 0360 645433BF 		.word	-1087155100
 4263 0364 58AD2FBF 		.word	-1087394472
 4264 0368 3EF52BBF 		.word	-1087638210
 4265 036c 7A2C28BF 		.word	-1087886214
 4266 0370 705324BF 		.word	-1088138384
 4267 0374 866A20BF 		.word	-1088394618
 4268 0378 21721CBF 		.word	-1088654815
 4269 037c AB6A18BF 		.word	-1088918869
 4270 0380 8B5414BF 		.word	-1089186677
 4271 0384 2B3010BF 		.word	-1089458133
 4272 0388 F5FD0BBF 		.word	-1089733131
 4273 038c 55BE07BF 		.word	-1090011563
 4274 0390 B87103BF 		.word	-1090293320
 4275 0394 1231FEBE 		.word	-1090637550
 4276 0398 7066F5BE 		.word	-1091213712
 4277 039c 6584ECBE 		.word	-1091795867
 4278 03a0 D08BE3BE 		.word	-1092383792
 4279 03a4 937DDABE 		.word	-1092977261
 4280 03a8 8E5AD1BE 		.word	-1093576050
 4281 03ac A423C8BE 		.word	-1094179932
 4282 03b0 BBD9BEBE 		.word	-1094788677
 4283 03b4 B87DB5BE 		.word	-1095402056
 4284 03b8 8110ACBE 		.word	-1096019839
 4285 03bc FE92A2BE 		.word	-1096641794
 4286 03c0 190699BE 		.word	-1097267687
 4287 03c4 BA6A8FBE 		.word	-1097897286
 4288 03c8 CDC185BE 		.word	-1098530355
 4289 03cc 7A1878BE 		.word	-1099425670
 4290 03d0 EE9564BE 		.word	-1100704274
 4291 03d4 D0FD50BE 		.word	-1101988400
 4292 03d8 FA513DBE 		.word	-1103277574
 4293 03dc 4B9429BE 		.word	-1104571317
 4294 03e0 A0C615BE 		.word	-1105869152
 4295 03e4 D9EA01BE 		.word	-1107170599
 4296 03e8 A805DCBD 		.word	-1109654104
 4297 03ec E720B4BD 		.word	-1112268569
 4298 03f0 302B8CBD 		.word	-1114887376
 4299 03f4 8D5048BD 		.word	-1119334259
 4300 03f8 BF6FF0BC 		.word	-1125093441
 4301 03fc 874F20BC 		.word	-1138733177
 4302 0400 874F203C 		.word	1008750471
 4303 0404 BF6FF03C 		.word	1022390207
 4304 0408 8D50483D 		.word	1028149389
 4305 040c 302B8C3D 		.word	1032596272
 4306 0410 E720B43D 		.word	1035215079
 4307 0414 A805DC3D 		.word	1037829544
 4308 0418 D9EA013E 		.word	1040313049
 4309 041c A0C6153E 		.word	1041614496
 4310 0420 4B94293E 		.word	1042912331
ARM GAS  /var/folders/z2/7_lhr9dn53s9tj4s0rwtyswm0000gn/T//ccJ9q3ms.s 			page 133


 4311 0424 FA513D3E 		.word	1044206074
 4312 0428 D0FD503E 		.word	1045495248
 4313 042c EE95643E 		.word	1046779374
 4314 0430 7A18783E 		.word	1048057978
 4315 0434 CDC1853E 		.word	1048953293
 4316 0438 BA6A8F3E 		.word	1049586362
 4317 043c 1906993E 		.word	1050215961
 4318 0440 FE92A23E 		.word	1050841854
 4319 0444 8110AC3E 		.word	1051463809
 4320 0448 B87DB53E 		.word	1052081592
 4321 044c BBD9BE3E 		.word	1052694971
 4322 0450 A423C83E 		.word	1053303716
 4323 0454 8E5AD13E 		.word	1053907598
 4324 0458 937DDA3E 		.word	1054506387
 4325 045c D08BE33E 		.word	1055099856
 4326 0460 6584EC3E 		.word	1055687781
 4327 0464 7066F53E 		.word	1056269936
 4328 0468 1231FE3E 		.word	1056846098
 4329 046c B871033F 		.word	1057190328
 4330 0470 55BE073F 		.word	1057472085
 4331 0474 F5FD0B3F 		.word	1057750517
 4332 0478 2B30103F 		.word	1058025515
 4333 047c 8B54143F 		.word	1058296971
 4334 0480 AB6A183F 		.word	1058564779
 4335 0484 21721C3F 		.word	1058828833
 4336 0488 866A203F 		.word	1059089030
 4337 048c 7053243F 		.word	1059345264
 4338 0490 7A2C283F 		.word	1059597434
 4339 0494 3EF52B3F 		.word	1059845438
 4340 0498 58AD2F3F 		.word	1060089176
 4341 049c 6454333F 		.word	1060328548
 4342 04a0 00EA363F 		.word	1060563456
 4343 04a4 CC6D3A3F 		.word	1060793804
 4344 04a8 66DF3D3F 		.word	1061019494
 4345 04ac 713E413F 		.word	1061240433
 4346 04b0 908A443F 		.word	1061456528
 4347 04b4 65C3473F 		.word	1061667685
 4348 04b8 97E84A3F 		.word	1061873815
 4349 04bc CCF94D3F 		.word	1062074828
 4350 04c0 ACF6503F 		.word	1062270636
 4351 04c4 E1DE533F 		.word	1062461153
 4352 04c8 15B2563F 		.word	1062646293
 4353 04cc F46F593F 		.word	1062825972
 4354 04d0 2C185C3F 		.word	1063000108
 4355 04d4 6EAA5E3F 		.word	1063168622
 4356 04d8 6826613F 		.word	1063331432
 4357 04dc CE8B633F 		.word	1063488462
 4358 04e0 55DA653F 		.word	1063639637
 4359 04e4 B111683F 		.word	1063784881
 4360 04e8 99316A3F 		.word	1063924121
 4361 04ec C8396C3F 		.word	1064057288
 4362 04f0 F8296E3F 		.word	1064184312
 4363 04f4 E501703F 		.word	1064305125
 4364 04f8 4DC1713F 		.word	1064419661
 4365 04fc F267733F 		.word	1064527858
 4366 0500 94F5743F 		.word	1064629652
 4367 0504 F869763F 		.word	1064724984
ARM GAS  /var/folders/z2/7_lhr9dn53s9tj4s0rwtyswm0000gn/T//ccJ9q3ms.s 			page 134


 4368 0508 E3C4773F 		.word	1064813795
 4369 050c 1E06793F 		.word	1064896030
 4370 0510 722D7A3F 		.word	1064971634
 4371 0514 AA3A7B3F 		.word	1065040554
 4372 0518 952D7C3F 		.word	1065102741
 4373 051c 02067D3F 		.word	1065158146
 4374 0520 C3C37D3F 		.word	1065206723
 4375 0524 AC667E3F 		.word	1065248428
 4376 0528 94EE7E3F 		.word	1065283220
 4377 052c 515B7F3F 		.word	1065311057
 4378 0530 C0AC7F3F 		.word	1065331904
 4379 0534 BCE27F3F 		.word	1065345724
 4380 0538 25FD7F3F 		.word	1065352485
 4381 053c DCFB7F3F 		.word	1065352156
 4382 0540 C4DE7F3F 		.word	1065344708
 4383 0544 C4A57F3F 		.word	1065330116
 4384 0548 C4507F3F 		.word	1065308356
 4385 054c AFDF7E3F 		.word	1065279407
 4386 0550 72527E3F 		.word	1065243250
 4387 0554 FCA87D3F 		.word	1065199868
 4388 0558 3FE37C3F 		.word	1065149247
 4389 055c 32017C3F 		.word	1065091378
 4390 0560 CA027B3F 		.word	1065026250
 4391 0564 01E8793F 		.word	1064953857
 4392 0568 D5B0783F 		.word	1064874197
 4393 056c 435D773F 		.word	1064787267
 4394 0570 4FED753F 		.word	1064693071
 4395 0574 FC60743F 		.word	1064591612
 4396 0578 51B8723F 		.word	1064482897
 4397 057c 59F3703F 		.word	1064366937
 4398 0580 21126F3F 		.word	1064243745
 4399 0584 B8146D3F 		.word	1064113336
 4400 0588 30FB6A3F 		.word	1063975728
 4401 058c 9FC5683F 		.word	1063830943
 4402 0590 1E74663F 		.word	1063679006
 4403 0594 C606643F 		.word	1063519942
 4404 0598 B87D613F 		.word	1063353784
 4405 059c 13D95E3F 		.word	1063180563
 4406 05a0 FC185C3F 		.word	1063000316
 4407 05a4 9B3D593F 		.word	1062813083
 4408 05a8 1947563F 		.word	1062618905
 4409 05ac A535533F 		.word	1062417829
 4410 05b0 6E09503F 		.word	1062209902
 4411 05b4 A9C24C3F 		.word	1061995177
 4412 05b8 8D61493F 		.word	1061773709
 4413 05bc 54E6453F 		.word	1061545556
 4414 05c0 3C51423F 		.word	1061310780
 4415 05c4 85A23E3F 		.word	1061069445
 4416 05c8 73DA3A3F 		.word	1060821619
 4417 05cc 4FF9363F 		.word	1060567375
 4418 05d0 63FF323F 		.word	1060306787
 4419 05d4 FDEC2E3F 		.word	1060039933
 4420 05d8 6FC22A3F 		.word	1059766895
 4421 05dc 0F80263F 		.word	1059487759
 4422 05e0 3626223F 		.word	1059202614
 4423 05e4 3EB51D3F 		.word	1058911550
 4424 05e8 8A2D193F 		.word	1058614666
ARM GAS  /var/folders/z2/7_lhr9dn53s9tj4s0rwtyswm0000gn/T//ccJ9q3ms.s 			page 135


 4425 05ec 7B8F143F 		.word	1058312059
 4426 05f0 79DB0F3F 		.word	1058003833
 4427 05f4 EF110B3F 		.word	1057690095
 4428 05f8 4B33063F 		.word	1057370955
 4429 05fc FF3F013F 		.word	1057046527
 4430 0600 0471F83E 		.word	1056469252
 4431 0604 993AEE3E 		.word	1055799961
 4432 0608 B8DDE33E 		.word	1055120824
 4433 060c 655BD93E 		.word	1054432101
 4434 0610 A9B4CE3E 		.word	1053734057
 4435 0614 97EAC33E 		.word	1053026967
 4436 0618 48FEB83E 		.word	1052311112
 4437 061c DFF0AD3E 		.word	1051586783
 4438 0620 84C3A23E 		.word	1050854276
 4439 0624 6B77973E 		.word	1050113899
 4440 0628 CC0D8C3E 		.word	1049365964
 4441 062c EA87803E 		.word	1048610794
 4442 0630 1ECE693E 		.word	1047121438
 4443 0634 1B59523E 		.word	1045584155
 4444 0638 80B33A3E 		.word	1044034432
 4445 063c 14E0223E 		.word	1042472980
 4446 0640 ADE10A3E 		.word	1040900525
 4447 0644 6A76E53D 		.word	1038448234
 4448 0648 47DFB43D 		.word	1035263815
 4449 064c 0704843D 		.word	1032061959
 4450 0650 C5D5253D 		.word	1025889733
 4451 0654 CA68863C 		.word	1015441610
 4452 0658 A678FEBB 		.word	-1140950874
 4453 065c 672703BD 		.word	-1123866777
 4454 0660 08C766BD 		.word	-1117337848
 4455 0664 1450A5BD 		.word	-1113239532
 4456 0668 5652D7BD 		.word	-1109962154
 4457 066c 8DB104BE 		.word	-1106988659
 4458 0670 85BD1DBE 		.word	-1105347195
 4459 0674 56C936BE 		.word	-1103705770
 4460 0678 30D14FBE 		.word	-1102065360
 4461 067c 31D168BE 		.word	-1100426959
 4462 0680 B2E280BE 		.word	-1098849614
 4463 0684 E1548DBE 		.word	-1098033951
 4464 0688 17BD99BE 		.word	-1097220841
 4465 068c 3E19A6BE 		.word	-1096410818
 4466 0690 3467B2BE 		.word	-1095604428
 4467 0694 D0A4BEBE 		.word	-1094802224
 4468 0698 DECFCABE 		.word	-1094004770
 4469 069c 1FE6D6BE 		.word	-1093212641
 4470 06a0 4DE5E2BE 		.word	-1092426419
 4471 06a4 15CBEEBE 		.word	-1091646699
 4472 06a8 1C95FABE 		.word	-1090874084
 4473 06ac 7E2003BF 		.word	-1090314114
 4474 06b0 23E608BF 		.word	-1089935837
 4475 06b4 3F9A0EBF 		.word	-1089562049
 4476 06b8 923B14BF 		.word	-1089193070
 4477 06bc D3C819BF 		.word	-1088829229
 4478 06c0 B7401FBF 		.word	-1088470857
 4479 06c4 ECA124BF 		.word	-1088118292
 4480 06c8 1BEB29BF 		.word	-1087771877
 4481 06cc E81A2FBF 		.word	-1087431960
ARM GAS  /var/folders/z2/7_lhr9dn53s9tj4s0rwtyswm0000gn/T//ccJ9q3ms.s 			page 136


 4482 06d0 F22F34BF 		.word	-1087098894
 4483 06d4 D22839BF 		.word	-1086773038
 4484 06d8 1D043EBF 		.word	-1086454755
 4485 06dc 61C042BF 		.word	-1086144415
 4486 06e0 275C47BF 		.word	-1085842393
 4487 06e4 F4D54BBF 		.word	-1085549068
 4488 06e8 462C50BF 		.word	-1085264826
 4489 06ec 965D54BF 		.word	-1084990058
 4490 06f0 566858BF 		.word	-1084725162
 4491 06f4 F64A5CBF 		.word	-1084470538
 4492 06f8 DD0360BF 		.word	-1084226595
 4493 06fc 6F9163BF 		.word	-1083993745
 4494 0700 07F266BF 		.word	-1083772409
 4495 0704 FE236ABF 		.word	-1083563010
 4496 0708 A6256DBF 		.word	-1083365978
 4497 070c 49F56FBF 		.word	-1083181751
 4498 0710 2F9172BF 		.word	-1083010769
 4499 0714 98F774BF 		.word	-1082853480
 4500 0718 BE2677BF 		.word	-1082710338
 4501 071c D71C79BF 		.word	-1082581801
 4502 0720 11D87ABF 		.word	-1082468335
 4503 0724 95567CBF 		.word	-1082370411
 4504 0728 87967DBF 		.word	-1082288505
 4505 072c 03967EBF 		.word	-1082223101
 4506 0730 20537FBF 		.word	-1082174688
 4507 0734 F0CB7FBF 		.word	-1082143760
 4508 0738 7EFE7FBF 		.word	-1082130818
 4509 073c CFE87FBF 		.word	-1082136369
 4510 0740 E1887FBF 		.word	-1082160927
 4511 0744 ADDC7EBF 		.word	-1082205011
 4512 0748 27E27DBF 		.word	-1082269145
 4513 074c 39977CBF 		.word	-1082353863
 4514 0750 CBF97ABF 		.word	-1082459701
 4515 0754 BC0779BF 		.word	-1082587204
 4516 0758 E5BE76BF 		.word	-1082736923
 4517 075c 1B1D74BF 		.word	-1082909413
 4518 0760 2A2071BF 		.word	-1083105238
 4519 0764 D8C56DBF 		.word	-1083324968
 4520 0768 E60B6ABF 		.word	-1083569178
 4521 076c 0EF065BF 		.word	-1083838450
 4522 0770 027061BF 		.word	-1084133374
 4523 0774 6F895CBF 		.word	-1084454545
 4524 0778 FC3957BF 		.word	-1084802564
 4525 077c 497F51BF 		.word	-1085178039
 4526 0780 EE564BBF 		.word	-1085581586
 4527 0784 7DBE44BF 		.word	-1086013827
 4528 0788 84B33DBF 		.word	-1086475388
 4529 078c 863336BF 		.word	-1086966906
 4530 0790 033C2EBF 		.word	-1087489021
 4531 0794 72CA25BF 		.word	-1088042382
 4532 0798 44DC1CBF 		.word	-1088627644
 4533 079c E36E13BF 		.word	-1089245469
 4534 07a0 B27F09BF 		.word	-1089896526
 4535 07a4 1F18FEBE 		.word	-1090643937
 4536 07a8 9E22E8BE 		.word	-1092083042
 4537 07ac 8119D1BE 		.word	-1093592703
 4538 07b0 56F7B8BE 		.word	-1095174314
ARM GAS  /var/folders/z2/7_lhr9dn53s9tj4s0rwtyswm0000gn/T//ccJ9q3ms.s 			page 137


 4539 07b4 9FB69FBE 		.word	-1096829281
 4540 07b8 D15185BE 		.word	-1098559023
 4541 07bc A08653BE 		.word	-1101822304
 4542 07c0 E80A1ABE 		.word	-1105589528
 4543 07c4 1A4ABCBD 		.word	-1111733734
 4544 07c8 274CFEBC 		.word	-1124185049
 4545 07cc 5A4D043D 		.word	1023692122
 4546 07d0 91FAC83D 		.word	1036581521
 4547 07d4 30802A3E 		.word	1042972720
 4548 07d8 0C28733E 		.word	1047734284
 4549 07dc 7A409F3E 		.word	1050624122
 4550 07e0 904BC63E 		.word	1053182864
 4551 07e4 73BBEE3E 		.word	1055832947
 4552 07e8 2D4B0C3F 		.word	1057770285
 4553 07ec 47F1213F 		.word	1059189063
 4554 07f0 3353383F 		.word	1060655923
 4555 07f4 23744F3F 		.word	1062171683
 4556 07f8 5257673F 		.word	1063737170
 4557 07fc 0000803F 		.word	1065353216
 4558              		.section	.rodata._ZN7daisyspL2c6E,"a"
 4559              		.align	2
 4560              		.set	.LANCHOR13,. + 0
 4563              	_ZN7daisyspL2c6E:
 4564 0000 0000803F 		.word	1065353216
 4565 0004 09BF5C3F 		.word	1063042825
 4566 0008 3E193B3F 		.word	1060837694
 4567 000c 4E041B3F 		.word	1058735182
 4568 0010 1BECF83E 		.word	1056500763
 4569 0014 F1C8BE3E 		.word	1052690673
 4570 0018 688B873E 		.word	1049070440
 4571 001c 2D40263E 		.word	1042694189
 4572 0020 7FCF853D 		.word	1032179583
 4573 0024 ACC0D8BC 		.word	-1126645588
 4574 0028 B2C8E7BD 		.word	-1108883278
 4575 002c 7AA147BE 		.word	-1102601862
 4576 0030 AA398BBE 		.word	-1098171990
 4577 0034 963EB0BE 		.word	-1095745898
 4578 0038 DAF0D2BE 		.word	-1093472038
 4579 003c 8A61F3BE 		.word	-1091346038
 4580 0040 B6D008BF 		.word	-1089941322
 4581 0044 82E016BF 		.word	-1089019774
 4582 0048 46E823BF 		.word	-1088165818
 4583 004c FEEF2FBF 		.word	-1087377410
 4584 0050 80FF3ABF 		.word	-1086652544
 4585 0054 831E45BF 		.word	-1085989245
 4586 0058 9A544EBF 		.word	-1085385574
 4587 005c 38A956BF 		.word	-1084839624
 4588 0060 AC235EBF 		.word	-1084349524
 4589 0064 28CB64BF 		.word	-1083913432
 4590 0068 B9A66ABF 		.word	-1083529543
 4591 006c 4EBD6FBF 		.word	-1083196082
 4592 0070 B61574BF 		.word	-1082911306
 4593 0074 9FB677BF 		.word	-1082673505
 4594 0078 9AA67ABF 		.word	-1082480998
 4595 007c 16EC7CBF 		.word	-1082332138
 4596 0080 648D7EBF 		.word	-1082225308
 4597 0084 B8907FBF 		.word	-1082158920
ARM GAS  /var/folders/z2/7_lhr9dn53s9tj4s0rwtyswm0000gn/T//ccJ9q3ms.s 			page 138


 4598 0088 26FC7FBF 		.word	-1082131418
 4599 008c A5D57FBF 		.word	-1082141275
 4600 0090 10237FBF 		.word	-1082186992
 4601 0094 21EA7DBF 		.word	-1082267103
 4602 0098 78307CBF 		.word	-1082380168
 4603 009c 98FB79BF 		.word	-1082524776
 4604 00a0 E75077BF 		.word	-1082699545
 4605 00a4 AF3574BF 		.word	-1082903121
 4606 00a8 1FAF70BF 		.word	-1083134177
 4607 00ac 49C26CBF 		.word	-1083391415
 4608 00b0 277468BF 		.word	-1083673561
 4609 00b4 94C963BF 		.word	-1083979372
 4610 00b8 53C75EBF 		.word	-1084307629
 4611 00bc 0D7259BF 		.word	-1084657139
 4612 00c0 50CE53BF 		.word	-1085026736
 4613 00c4 91E04DBF 		.word	-1085415279
 4614 00c8 2AAD47BF 		.word	-1085821654
 4615 00cc 5F3841BF 		.word	-1086244769
 4616 00d0 58863ABF 		.word	-1086683560
 4617 00d4 279B33BF 		.word	-1087136985
 4618 00d8 C37A2CBF 		.word	-1087604029
 4619 00dc 0F2925BF 		.word	-1088083697
 4620 00e0 D2A91DBF 		.word	-1088575022
 4621 00e4 BF0016BF 		.word	-1089077057
 4622 00e8 70310EBF 		.word	-1089588880
 4623 00ec 683F06BF 		.word	-1090109592
 4624 00f0 2B5CFCBE 		.word	-1090757589
 4625 00f4 9D01ECBE 		.word	-1091829347
 4626 00f8 A775DBBE 		.word	-1092913753
 4627 00fc A0BECABE 		.word	-1094009184
 4628 0100 B3E2B9BE 		.word	-1095114061
 4629 0104 E0E7A8BE 		.word	-1096226848
 4630 0108 00D497BE 		.word	-1097346048
 4631 010c BEAC86BE 		.word	-1098470210
 4632 0110 40EF6ABE 		.word	-1100288192
 4633 0114 037448BE 		.word	-1102547965
 4634 0118 31F225BE 		.word	-1104809423
 4635 011c E27303BE 		.word	-1107069982
 4636 0120 C805C2BD 		.word	-1111358008
 4637 0124 E1A27ABD 		.word	-1116036383
 4638 0128 9B74E3BC 		.word	-1125944165
 4639 012c F253B43B 		.word	1001673714
 4640 0130 FD081E3D 		.word	1025378557
 4641 0134 E54F923D 		.word	1032998885
 4642 0138 4F17D53D 		.word	1037375311
 4643 013c 94A50B3E 		.word	1040950676
 4644 0140 306E2C3E 		.word	1043099184
 4645 0144 3DDE4C3E 		.word	1045225021
 4646 0148 BBEE6C3E 		.word	1047326395
 4647 014c 774C863E 		.word	1048988791
 4648 0150 2FEB953E 		.word	1050012463
 4649 0154 6950A53E 		.word	1051021417
 4650 0158 2779B43E 		.word	1052014887
 4651 015c 8C62C33E 		.word	1052992140
 4652 0160 D909D23E 		.word	1053952473
 4653 0164 6D6CE03E 		.word	1054895213
 4654 0168 C887EE3E 		.word	1055819720
ARM GAS  /var/folders/z2/7_lhr9dn53s9tj4s0rwtyswm0000gn/T//ccJ9q3ms.s 			page 139


 4655 016c 8259FC3E 		.word	1056725378
 4656 0170 ABEF043F 		.word	1057288107
 4657 0174 8B8B0B3F 		.word	1057721227
 4658 0178 5AFF113F 		.word	1058144090
 4659 017c 1D4A183F 		.word	1058556445
 4660 0180 EA6A1E3F 		.word	1058958058
 4661 0184 DF60243F 		.word	1059348703
 4662 0188 2D2B2A3F 		.word	1059728173
 4663 018c 0EC92F3F 		.word	1060096270
 4664 0190 CA39353F 		.word	1060452810
 4665 0194 B57C3A3F 		.word	1060797621
 4666 0198 2F913F3F 		.word	1061130543
 4667 019c A676443F 		.word	1061451430
 4668 01a0 912C493F 		.word	1061760145
 4669 01a4 75B24D3F 		.word	1062056565
 4670 01a8 E207523F 		.word	1062340578
 4671 01ac 712C563F 		.word	1062612081
 4672 01b0 CA1F5A3F 		.word	1062870986
 4673 01b4 9BE15D3F 		.word	1063117211
 4674 01b8 A071613F 		.word	1063350688
 4675 01bc 9FCF643F 		.word	1063571359
 4676 01c0 67FB673F 		.word	1063779175
 4677 01c4 D2F46A3F 		.word	1063974098
 4678 01c8 C3BB6D3F 		.word	1064156099
 4679 01cc 2750703F 		.word	1064325159
 4680 01d0 F4B1723F 		.word	1064481268
 4681 01d4 2AE1743F 		.word	1064624426
 4682 01d8 D0DD763F 		.word	1064754640
 4683 01dc FAA7783F 		.word	1064871930
 4684 01e0 BF3F7A3F 		.word	1064976319
 4685 01e4 43A57B3F 		.word	1065067843
 4686 01e8 B0D87C3F 		.word	1065146544
 4687 01ec 38DA7D3F 		.word	1065212472
 4688 01f0 16AA7E3F 		.word	1065265686
 4689 01f4 8C487F3F 		.word	1065306252
 4690 01f8 E3B57F3F 		.word	1065334243
 4691 01fc 6CF27F3F 		.word	1065349740
 4692 0200 7FFE7F3F 		.word	1065352831
 4693 0204 7BDA7F3F 		.word	1065343611
 4694 0208 C5867F3F 		.word	1065322181
 4695 020c C9037F3F 		.word	1065288649
 4696 0210 FB517E3F 		.word	1065243131
 4697 0214 D3717D3F 		.word	1065185747
 4698 0218 D0637C3F 		.word	1065116624
 4699 021c 76287B3F 		.word	1065035894
 4700 0220 50C0793F 		.word	1064943696
 4701 0224 EE2B783F 		.word	1064840174
 4702 0228 E66B763F 		.word	1064725478
 4703 022c D380743F 		.word	1064599763
 4704 0230 536B723F 		.word	1064463187
 4705 0234 0B2C703F 		.word	1064315915
 4706 0238 A6C36D3F 		.word	1064158118
 4707 023c D0326B3F 		.word	1063989968
 4708 0240 3D7A683F 		.word	1063811645
 4709 0244 A29A653F 		.word	1063623330
 4710 0248 BA94623F 		.word	1063425210
 4711 024c 45695F3F 		.word	1063217477
ARM GAS  /var/folders/z2/7_lhr9dn53s9tj4s0rwtyswm0000gn/T//ccJ9q3ms.s 			page 140


 4712 0250 03195C3F 		.word	1063000323
 4713 0254 BDA4583F 		.word	1062773949
 4714 0258 3A0D553F 		.word	1062538554
 4715 025c 4853513F 		.word	1062294344
 4716 0260 B8774D3F 		.word	1062041528
 4717 0264 5B7B493F 		.word	1061780315
 4718 0268 095F453F 		.word	1061510921
 4719 026c 9A23413F 		.word	1061233562
 4720 0270 EAC93C3F 		.word	1060948458
 4721 0274 D652383F 		.word	1060655830
 4722 0278 3EBF333F 		.word	1060355902
 4723 027c 07102F3F 		.word	1060048903
 4724 0280 12462A3F 		.word	1059735058
 4725 0284 4962253F 		.word	1059414601
 4726 0288 9165203F 		.word	1059087761
 4727 028c D6501B3F 		.word	1058754774
 4728 0290 0425163F 		.word	1058415876
 4729 0294 06E3103F 		.word	1058071302
 4730 0298 CB8B0B3F 		.word	1057721291
 4731 029c 4320063F 		.word	1057366083
 4732 02a0 5EA1003F 		.word	1057005918
 4733 02a4 1920F63E 		.word	1056317465
 4734 02a8 82DAEA3E 		.word	1055578754
 4735 02ac DE73DF3E 		.word	1054831582
 4736 02b0 12EED33E 		.word	1054076434
 4737 02b4 054BC83E 		.word	1053313797
 4738 02b8 A08CBC3E 		.word	1052544160
 4739 02bc CBB4B03E 		.word	1051768011
 4740 02c0 6FC5A43E 		.word	1050985839
 4741 02c4 74C0983E 		.word	1050198132
 4742 02c8 C3A78C3E 		.word	1049405379
 4743 02cc 427D803E 		.word	1048608066
 4744 02d0 B385683E 		.word	1047037363
 4745 02d4 DDF44F3E 		.word	1045427421
 4746 02d8 CE4B373E 		.word	1043811278
 4747 02dc 4B8E1E3E 		.word	1042189899
 4748 02e0 19C0053E 		.word	1040564249
 4749 02e4 EFC9D93D 		.word	1037683183
 4750 02e8 4801A83D 		.word	1034420552
 4751 02ec 595B6C3D 		.word	1030511449
 4752 02f0 05AD083D 		.word	1023978757
 4753 02f4 3819143C 		.word	1007950136
 4754 02f8 A1287ABC 		.word	-1132844895
 4755 02fc D2F521BD 		.word	-1121847854
 4756 0300 1E9782BD 		.word	-1115515106
 4757 0304 8812B4BD 		.word	-1112272248
 4758 0308 0766E5BD 		.word	-1109039609
 4759 030c 46450BBE 		.word	-1106557626
 4760 0310 8ABC23BE 		.word	-1104954230
 4761 0314 59153CBE 		.word	-1103358631
 4762 0318 424C54BE 		.word	-1101771710
 4763 031c DE5D6CBE 		.word	-1100194338
 4764 0320 672382BE 		.word	-1098767513
 4765 0324 DE018EBE 		.word	-1097989666
 4766 0328 B0C899BE 		.word	-1097217872
 4767 032c 3A76A5BE 		.word	-1096452550
 4768 0330 E108B1BE 		.word	-1095694111
ARM GAS  /var/folders/z2/7_lhr9dn53s9tj4s0rwtyswm0000gn/T//ccJ9q3ms.s 			page 141


 4769 0334 0E7FBCBE 		.word	-1094942962
 4770 0338 31D7C7BE 		.word	-1094199503
 4771 033c BE0FD3BE 		.word	-1093464130
 4772 0340 2F27DEBE 		.word	-1092737233
 4773 0344 031CE9BE 		.word	-1092019197
 4774 0348 C1ECF3BE 		.word	-1091310399
 4775 034c F497FEBE 		.word	-1090611212
 4776 0350 178E04BF 		.word	-1090220521
 4777 0354 04BC09BF 		.word	-1089881084
 4778 0358 10D50EBF 		.word	-1089546992
 4779 035c 8FD813BF 		.word	-1089218417
 4780 0360 D5C518BF 		.word	-1088895531
 4781 0364 3C9C1DBF 		.word	-1088578500
 4782 0368 225B22BF 		.word	-1088267486
 4783 036c E60127BF 		.word	-1087962650
 4784 0370 ED8F2BBF 		.word	-1087664147
 4785 0374 9E0430BF 		.word	-1087372130
 4786 0378 645F34BF 		.word	-1087086748
 4787 037c AF9F38BF 		.word	-1086808145
 4788 0380 F0C43CBF 		.word	-1086536464
 4789 0384 9FCE40BF 		.word	-1086271841
 4790 0388 35BC44BF 		.word	-1086014411
 4791 038c 318D48BF 		.word	-1085764303
 4792 0390 15414CBF 		.word	-1085521643
 4793 0394 67D74FBF 		.word	-1085286553
 4794 0398 B14F53BF 		.word	-1085059151
 4795 039c 81A956BF 		.word	-1084839551
 4796 03a0 6AE459BF 		.word	-1084627862
 4797 03a4 02005DBF 		.word	-1084424190
 4798 03a8 E3FB5FBF 		.word	-1084228637
 4799 03ac ACD762BF 		.word	-1084041300
 4800 03b0 019365BF 		.word	-1083862271
 4801 03b4 872D68BF 		.word	-1083691641
 4802 03b8 EBA66ABF 		.word	-1083529493
 4803 03bc DDFE6CBF 		.word	-1083375907
 4804 03c0 10356FBF 		.word	-1083230960
 4805 03c4 3C4971BF 		.word	-1083094724
 4806 03c8 1F3B73BF 		.word	-1082967265
 4807 03cc 790A75BF 		.word	-1082848647
 4808 03d0 11B776BF 		.word	-1082738927
 4809 03d4 B04078BF 		.word	-1082638160
 4810 03d8 24A779BF 		.word	-1082546396
 4811 03dc 41EA7ABF 		.word	-1082463679
 4812 03e0 DE097CBF 		.word	-1082390050
 4813 03e4 D6057DBF 		.word	-1082325546
 4814 03e8 0BDE7DBF 		.word	-1082270197
 4815 03ec 60927EBF 		.word	-1082224032
 4816 03f0 BF227FBF 		.word	-1082187073
 4817 03f4 178F7FBF 		.word	-1082159337
 4818 03f8 58D77FBF 		.word	-1082140840
 4819 03fc 7BFB7FBF 		.word	-1082131589
 4820 0400 7BFB7FBF 		.word	-1082131589
 4821 0404 58D77FBF 		.word	-1082140840
 4822 0408 178F7FBF 		.word	-1082159337
 4823 040c BF227FBF 		.word	-1082187073
 4824 0410 60927EBF 		.word	-1082224032
 4825 0414 0BDE7DBF 		.word	-1082270197
ARM GAS  /var/folders/z2/7_lhr9dn53s9tj4s0rwtyswm0000gn/T//ccJ9q3ms.s 			page 142


 4826 0418 D6057DBF 		.word	-1082325546
 4827 041c DE097CBF 		.word	-1082390050
 4828 0420 41EA7ABF 		.word	-1082463679
 4829 0424 24A779BF 		.word	-1082546396
 4830 0428 B04078BF 		.word	-1082638160
 4831 042c 11B776BF 		.word	-1082738927
 4832 0430 790A75BF 		.word	-1082848647
 4833 0434 1F3B73BF 		.word	-1082967265
 4834 0438 3C4971BF 		.word	-1083094724
 4835 043c 10356FBF 		.word	-1083230960
 4836 0440 DDFE6CBF 		.word	-1083375907
 4837 0444 EBA66ABF 		.word	-1083529493
 4838 0448 872D68BF 		.word	-1083691641
 4839 044c 019365BF 		.word	-1083862271
 4840 0450 ACD762BF 		.word	-1084041300
 4841 0454 E3FB5FBF 		.word	-1084228637
 4842 0458 02005DBF 		.word	-1084424190
 4843 045c 6AE459BF 		.word	-1084627862
 4844 0460 81A956BF 		.word	-1084839551
 4845 0464 B14F53BF 		.word	-1085059151
 4846 0468 67D74FBF 		.word	-1085286553
 4847 046c 15414CBF 		.word	-1085521643
 4848 0470 318D48BF 		.word	-1085764303
 4849 0474 35BC44BF 		.word	-1086014411
 4850 0478 9FCE40BF 		.word	-1086271841
 4851 047c F0C43CBF 		.word	-1086536464
 4852 0480 AF9F38BF 		.word	-1086808145
 4853 0484 645F34BF 		.word	-1087086748
 4854 0488 9E0430BF 		.word	-1087372130
 4855 048c ED8F2BBF 		.word	-1087664147
 4856 0490 E60127BF 		.word	-1087962650
 4857 0494 225B22BF 		.word	-1088267486
 4858 0498 3C9C1DBF 		.word	-1088578500
 4859 049c D5C518BF 		.word	-1088895531
 4860 04a0 8FD813BF 		.word	-1089218417
 4861 04a4 10D50EBF 		.word	-1089546992
 4862 04a8 04BC09BF 		.word	-1089881084
 4863 04ac 178E04BF 		.word	-1090220521
 4864 04b0 F497FEBE 		.word	-1090611212
 4865 04b4 C1ECF3BE 		.word	-1091310399
 4866 04b8 031CE9BE 		.word	-1092019197
 4867 04bc 2F27DEBE 		.word	-1092737233
 4868 04c0 BE0FD3BE 		.word	-1093464130
 4869 04c4 31D7C7BE 		.word	-1094199503
 4870 04c8 0E7FBCBE 		.word	-1094942962
 4871 04cc E108B1BE 		.word	-1095694111
 4872 04d0 3A76A5BE 		.word	-1096452550
 4873 04d4 B0C899BE 		.word	-1097217872
 4874 04d8 DE018EBE 		.word	-1097989666
 4875 04dc 672382BE 		.word	-1098767513
 4876 04e0 DE5D6CBE 		.word	-1100194338
 4877 04e4 424C54BE 		.word	-1101771710
 4878 04e8 59153CBE 		.word	-1103358631
 4879 04ec 8ABC23BE 		.word	-1104954230
 4880 04f0 46450BBE 		.word	-1106557626
 4881 04f4 0766E5BD 		.word	-1109039609
 4882 04f8 8812B4BD 		.word	-1112272248
ARM GAS  /var/folders/z2/7_lhr9dn53s9tj4s0rwtyswm0000gn/T//ccJ9q3ms.s 			page 143


 4883 04fc 1E9782BD 		.word	-1115515106
 4884 0500 D2F521BD 		.word	-1121847854
 4885 0504 A1287ABC 		.word	-1132844895
 4886 0508 3819143C 		.word	1007950136
 4887 050c 05AD083D 		.word	1023978757
 4888 0510 595B6C3D 		.word	1030511449
 4889 0514 4801A83D 		.word	1034420552
 4890 0518 EFC9D93D 		.word	1037683183
 4891 051c 19C0053E 		.word	1040564249
 4892 0520 4B8E1E3E 		.word	1042189899
 4893 0524 CE4B373E 		.word	1043811278
 4894 0528 DDF44F3E 		.word	1045427421
 4895 052c B385683E 		.word	1047037363
 4896 0530 427D803E 		.word	1048608066
 4897 0534 C3A78C3E 		.word	1049405379
 4898 0538 74C0983E 		.word	1050198132
 4899 053c 6FC5A43E 		.word	1050985839
 4900 0540 CBB4B03E 		.word	1051768011
 4901 0544 A08CBC3E 		.word	1052544160
 4902 0548 054BC83E 		.word	1053313797
 4903 054c 12EED33E 		.word	1054076434
 4904 0550 DE73DF3E 		.word	1054831582
 4905 0554 82DAEA3E 		.word	1055578754
 4906 0558 1920F63E 		.word	1056317465
 4907 055c 5EA1003F 		.word	1057005918
 4908 0560 4320063F 		.word	1057366083
 4909 0564 CB8B0B3F 		.word	1057721291
 4910 0568 06E3103F 		.word	1058071302
 4911 056c 0425163F 		.word	1058415876
 4912 0570 D6501B3F 		.word	1058754774
 4913 0574 9165203F 		.word	1059087761
 4914 0578 4962253F 		.word	1059414601
 4915 057c 12462A3F 		.word	1059735058
 4916 0580 07102F3F 		.word	1060048903
 4917 0584 3EBF333F 		.word	1060355902
 4918 0588 D652383F 		.word	1060655830
 4919 058c EAC93C3F 		.word	1060948458
 4920 0590 9A23413F 		.word	1061233562
 4921 0594 095F453F 		.word	1061510921
 4922 0598 5B7B493F 		.word	1061780315
 4923 059c B8774D3F 		.word	1062041528
 4924 05a0 4853513F 		.word	1062294344
 4925 05a4 3A0D553F 		.word	1062538554
 4926 05a8 BDA4583F 		.word	1062773949
 4927 05ac 03195C3F 		.word	1063000323
 4928 05b0 45695F3F 		.word	1063217477
 4929 05b4 BA94623F 		.word	1063425210
 4930 05b8 A29A653F 		.word	1063623330
 4931 05bc 3D7A683F 		.word	1063811645
 4932 05c0 D0326B3F 		.word	1063989968
 4933 05c4 A6C36D3F 		.word	1064158118
 4934 05c8 0B2C703F 		.word	1064315915
 4935 05cc 536B723F 		.word	1064463187
 4936 05d0 D380743F 		.word	1064599763
 4937 05d4 E66B763F 		.word	1064725478
 4938 05d8 EE2B783F 		.word	1064840174
 4939 05dc 50C0793F 		.word	1064943696
ARM GAS  /var/folders/z2/7_lhr9dn53s9tj4s0rwtyswm0000gn/T//ccJ9q3ms.s 			page 144


 4940 05e0 76287B3F 		.word	1065035894
 4941 05e4 D0637C3F 		.word	1065116624
 4942 05e8 D3717D3F 		.word	1065185747
 4943 05ec FB517E3F 		.word	1065243131
 4944 05f0 C9037F3F 		.word	1065288649
 4945 05f4 C5867F3F 		.word	1065322181
 4946 05f8 7BDA7F3F 		.word	1065343611
 4947 05fc 7FFE7F3F 		.word	1065352831
 4948 0600 6CF27F3F 		.word	1065349740
 4949 0604 E3B57F3F 		.word	1065334243
 4950 0608 8C487F3F 		.word	1065306252
 4951 060c 16AA7E3F 		.word	1065265686
 4952 0610 38DA7D3F 		.word	1065212472
 4953 0614 B0D87C3F 		.word	1065146544
 4954 0618 43A57B3F 		.word	1065067843
 4955 061c BF3F7A3F 		.word	1064976319
 4956 0620 FAA7783F 		.word	1064871930
 4957 0624 D0DD763F 		.word	1064754640
 4958 0628 2AE1743F 		.word	1064624426
 4959 062c F4B1723F 		.word	1064481268
 4960 0630 2750703F 		.word	1064325159
 4961 0634 C3BB6D3F 		.word	1064156099
 4962 0638 D2F46A3F 		.word	1063974098
 4963 063c 67FB673F 		.word	1063779175
 4964 0640 9FCF643F 		.word	1063571359
 4965 0644 A071613F 		.word	1063350688
 4966 0648 9BE15D3F 		.word	1063117211
 4967 064c CA1F5A3F 		.word	1062870986
 4968 0650 712C563F 		.word	1062612081
 4969 0654 E207523F 		.word	1062340578
 4970 0658 75B24D3F 		.word	1062056565
 4971 065c 912C493F 		.word	1061760145
 4972 0660 A676443F 		.word	1061451430
 4973 0664 2F913F3F 		.word	1061130543
 4974 0668 B57C3A3F 		.word	1060797621
 4975 066c CA39353F 		.word	1060452810
 4976 0670 0EC92F3F 		.word	1060096270
 4977 0674 2D2B2A3F 		.word	1059728173
 4978 0678 DF60243F 		.word	1059348703
 4979 067c EA6A1E3F 		.word	1058958058
 4980 0680 1D4A183F 		.word	1058556445
 4981 0684 5AFF113F 		.word	1058144090
 4982 0688 8B8B0B3F 		.word	1057721227
 4983 068c ABEF043F 		.word	1057288107
 4984 0690 8259FC3E 		.word	1056725378
 4985 0694 C887EE3E 		.word	1055819720
 4986 0698 6D6CE03E 		.word	1054895213
 4987 069c D909D23E 		.word	1053952473
 4988 06a0 8C62C33E 		.word	1052992140
 4989 06a4 2779B43E 		.word	1052014887
 4990 06a8 6950A53E 		.word	1051021417
 4991 06ac 2FEB953E 		.word	1050012463
 4992 06b0 774C863E 		.word	1048988791
 4993 06b4 BBEE6C3E 		.word	1047326395
 4994 06b8 3DDE4C3E 		.word	1045225021
 4995 06bc 306E2C3E 		.word	1043099184
 4996 06c0 94A50B3E 		.word	1040950676
ARM GAS  /var/folders/z2/7_lhr9dn53s9tj4s0rwtyswm0000gn/T//ccJ9q3ms.s 			page 145


 4997 06c4 4F17D53D 		.word	1037375311
 4998 06c8 E54F923D 		.word	1032998885
 4999 06cc FD081E3D 		.word	1025378557
 5000 06d0 F253B43B 		.word	1001673714
 5001 06d4 9B74E3BC 		.word	-1125944165
 5002 06d8 E1A27ABD 		.word	-1116036383
 5003 06dc C805C2BD 		.word	-1111358008
 5004 06e0 E27303BE 		.word	-1107069982
 5005 06e4 31F225BE 		.word	-1104809423
 5006 06e8 037448BE 		.word	-1102547965
 5007 06ec 40EF6ABE 		.word	-1100288192
 5008 06f0 BEAC86BE 		.word	-1098470210
 5009 06f4 00D497BE 		.word	-1097346048
 5010 06f8 E0E7A8BE 		.word	-1096226848
 5011 06fc B3E2B9BE 		.word	-1095114061
 5012 0700 A0BECABE 		.word	-1094009184
 5013 0704 A775DBBE 		.word	-1092913753
 5014 0708 9D01ECBE 		.word	-1091829347
 5015 070c 2B5CFCBE 		.word	-1090757589
 5016 0710 683F06BF 		.word	-1090109592
 5017 0714 70310EBF 		.word	-1089588880
 5018 0718 BF0016BF 		.word	-1089077057
 5019 071c D2A91DBF 		.word	-1088575022
 5020 0720 0F2925BF 		.word	-1088083697
 5021 0724 C37A2CBF 		.word	-1087604029
 5022 0728 279B33BF 		.word	-1087136985
 5023 072c 58863ABF 		.word	-1086683560
 5024 0730 5F3841BF 		.word	-1086244769
 5025 0734 2AAD47BF 		.word	-1085821654
 5026 0738 91E04DBF 		.word	-1085415279
 5027 073c 50CE53BF 		.word	-1085026736
 5028 0740 0D7259BF 		.word	-1084657139
 5029 0744 53C75EBF 		.word	-1084307629
 5030 0748 94C963BF 		.word	-1083979372
 5031 074c 277468BF 		.word	-1083673561
 5032 0750 49C26CBF 		.word	-1083391415
 5033 0754 1FAF70BF 		.word	-1083134177
 5034 0758 AF3574BF 		.word	-1082903121
 5035 075c E75077BF 		.word	-1082699545
 5036 0760 98FB79BF 		.word	-1082524776
 5037 0764 78307CBF 		.word	-1082380168
 5038 0768 21EA7DBF 		.word	-1082267103
 5039 076c 10237FBF 		.word	-1082186992
 5040 0770 A5D57FBF 		.word	-1082141275
 5041 0774 26FC7FBF 		.word	-1082131418
 5042 0778 B8907FBF 		.word	-1082158920
 5043 077c 648D7EBF 		.word	-1082225308
 5044 0780 16EC7CBF 		.word	-1082332138
 5045 0784 9AA67ABF 		.word	-1082480998
 5046 0788 9FB677BF 		.word	-1082673505
 5047 078c B61574BF 		.word	-1082911306
 5048 0790 4EBD6FBF 		.word	-1083196082
 5049 0794 B9A66ABF 		.word	-1083529543
 5050 0798 28CB64BF 		.word	-1083913432
 5051 079c AC235EBF 		.word	-1084349524
 5052 07a0 38A956BF 		.word	-1084839624
 5053 07a4 9A544EBF 		.word	-1085385574
ARM GAS  /var/folders/z2/7_lhr9dn53s9tj4s0rwtyswm0000gn/T//ccJ9q3ms.s 			page 146


 5054 07a8 831E45BF 		.word	-1085989245
 5055 07ac 80FF3ABF 		.word	-1086652544
 5056 07b0 FEEF2FBF 		.word	-1087377410
 5057 07b4 46E823BF 		.word	-1088165818
 5058 07b8 82E016BF 		.word	-1089019774
 5059 07bc B6D008BF 		.word	-1089941322
 5060 07c0 8A61F3BE 		.word	-1091346038
 5061 07c4 DAF0D2BE 		.word	-1093472038
 5062 07c8 963EB0BE 		.word	-1095745898
 5063 07cc AA398BBE 		.word	-1098171990
 5064 07d0 7AA147BE 		.word	-1102601862
 5065 07d4 B2C8E7BD 		.word	-1108883278
 5066 07d8 ACC0D8BC 		.word	-1126645588
 5067 07dc 7FCF853D 		.word	1032179583
 5068 07e0 2D40263E 		.word	1042694189
 5069 07e4 688B873E 		.word	1049070440
 5070 07e8 F1C8BE3E 		.word	1052690673
 5071 07ec 1BECF83E 		.word	1056500763
 5072 07f0 4E041B3F 		.word	1058735182
 5073 07f4 3E193B3F 		.word	1060837694
 5074 07f8 09BF5C3F 		.word	1063042825
 5075 07fc 0000803F 		.word	1065353216
 5076              		.section	.rodata._ZN7daisyspL2c7E,"a"
 5077              		.align	2
 5078              		.set	.LANCHOR14,. + 0
 5081              	_ZN7daisyspL2c7E:
 5082 0000 000080BF 		.word	-1082130432
 5083 0004 656C50BF 		.word	-1085248411
 5084 0008 7ED023BF 		.word	-1088171906
 5085 000c FC22F4BE 		.word	-1091296516
 5086 0010 612AA6BE 		.word	-1096406431
 5087 0014 E6073BBE 		.word	-1103427610
 5088 0018 30ED4FBD 		.word	-1118835408
 5089 001c AF65923D 		.word	1033004463
 5090 0020 09E23C3E 		.word	1044177417
 5091 0024 C8B7933E 		.word	1049868232
 5092 0028 419BC43E 		.word	1053072193
 5093 002c E247F13E 		.word	1055999970
 5094 0030 86F40C3F 		.word	1057813638
 5095 0034 8B541F3F 		.word	1059017867
 5096 0038 A4D82F3F 		.word	1060100260
 5097 003c F4943E3F 		.word	1061065972
 5098 0040 1C9D4B3F 		.word	1061920028
 5099 0044 4004573F 		.word	1062667328
 5100 0048 07DD603F 		.word	1063312647
 5101 004c 9B39693F 		.word	1063860635
 5102 0050 B02B703F 		.word	1064315824
 5103 0054 81C4753F 		.word	1064682625
 5104 0058 D6147A3F 		.word	1064965334
 5105 005c 022D7D3F 		.word	1065168130
 5106 0060 E81C7F3F 		.word	1065295080
 5107 0064 FBF37F3F 		.word	1065350139
 5108 0068 41C17F3F 		.word	1065337153
 5109 006c 55937E3F 		.word	1065259861
 5110 0070 66787C3F 		.word	1065121894
 5111 0074 3D7E793F 		.word	1064926781
 5112 0078 3CB2753F 		.word	1064677948
ARM GAS  /var/folders/z2/7_lhr9dn53s9tj4s0rwtyswm0000gn/T//ccJ9q3ms.s 			page 147


 5113 007c 6021713F 		.word	1064378720
 5114 0080 44D86B3F 		.word	1064032324
 5115 0084 21E3653F 		.word	1063641889
 5116 0088 D24D5F3F 		.word	1063210450
 5117 008c D223583F 		.word	1062740946
 5118 0090 4270503F 		.word	1062236226
 5119 0094 E83D483F 		.word	1061699048
 5120 0098 32973F3F 		.word	1061132082
 5121 009c 3586363F 		.word	1060537909
 5122 00a0 B3142D3F 		.word	1059919027
 5123 00a4 174C233F 		.word	1059277847
 5124 00a8 7C35193F 		.word	1058616700
 5125 00ac ABD90E3F 		.word	1057937835
 5126 00b0 1F41043F 		.word	1057243423
 5127 00b4 09E8F23E 		.word	1056106505
 5128 00b8 76F4DC3E 		.word	1054667894
 5129 00bc B1B6C63E 		.word	1053210289
 5130 00c0 513DB03E 		.word	1051737425
 5131 00c4 5F96993E 		.word	1050252895
 5132 00c8 58CF823E 		.word	1048760152
 5133 00cc 57EA573E 		.word	1045949015
 5134 00d0 8C282A3E 		.word	1042950284
 5135 00d4 35E2F83D 		.word	1039721013
 5136 00d8 97B59D3D 		.word	1033745815
 5137 00dc ACED053D 		.word	1023798700
 5138 00e0 3B8339BC 		.word	-1137081541
 5139 00e4 C13061BD 		.word	-1117703999
 5140 00e8 311BC9BD 		.word	-1110893775
 5141 00ec 624A10BE 		.word	-1106228638
 5142 00f0 67713BBE 		.word	-1103400601
 5143 00f4 5EF265BE 		.word	-1100615074
 5144 00f8 EDDE87BE 		.word	-1098391827
 5145 00fc 9F629CBE 		.word	-1097047393
 5146 0100 617DB0BE 		.word	-1095729823
 5147 0104 B228C4BE 		.word	-1094440782
 5148 0108 755ED7BE 		.word	-1093181835
 5149 010c ED18EABE 		.word	-1091954451
 5150 0110 BC52FCBE 		.word	-1090760004
 5151 0114 6F0307BF 		.word	-1090059409
 5152 0118 56980FBF 		.word	-1089497002
 5153 011c EAE517BF 		.word	-1088952854
 5154 0120 2CEA1FBF 		.word	-1088427476
 5155 0124 49A327BF 		.word	-1087921335
 5156 0128 930F2FBF 		.word	-1087434861
 5157 012c 852D36BF 		.word	-1086968443
 5158 0130 C2FB3CBF 		.word	-1086522430
 5159 0134 0F7943BF 		.word	-1086097137
 5160 0138 57A449BF 		.word	-1085692841
 5161 013c A97C4FBF 		.word	-1085309783
 5162 0140 350155BF 		.word	-1084948171
 5163 0144 4B315ABF 		.word	-1084608181
 5164 0148 5E0C5FBF 		.word	-1084289954
 5165 014c FF9163BF 		.word	-1083993601
 5166 0150 DDC167BF 		.word	-1083719203
 5167 0154 C49B6BBF 		.word	-1083466812
 5168 0158 9F1F6FBF 		.word	-1083236449
 5169 015c 714D72BF 		.word	-1083028111
ARM GAS  /var/folders/z2/7_lhr9dn53s9tj4s0rwtyswm0000gn/T//ccJ9q3ms.s 			page 148


 5170 0160 5A2575BF 		.word	-1082841766
 5171 0164 94A777BF 		.word	-1082677356
 5172 0168 71D479BF 		.word	-1082534799
 5173 016c 5BAC7BBF 		.word	-1082413989
 5174 0170 D32F7DBF 		.word	-1082314797
 5175 0174 735F7EBF 		.word	-1082237069
 5176 0178 E73B7FBF 		.word	-1082180633
 5177 017c F2C57FBF 		.word	-1082145294
 5178 0180 6AFE7FBF 		.word	-1082130838
 5179 0184 3AE67FBF 		.word	-1082137030
 5180 0188 5C7E7FBF 		.word	-1082163620
 5181 018c E0C77EBF 		.word	-1082210336
 5182 0190 E3C37DBF 		.word	-1082276893
 5183 0194 95737CBF 		.word	-1082362987
 5184 0198 35D87ABF 		.word	-1082468299
 5185 019c 0FF378BF 		.word	-1082592497
 5186 01a0 80C576BF 		.word	-1082735232
 5187 01a4 EF5074BF 		.word	-1082896145
 5188 01a8 D49671BF 		.word	-1083074860
 5189 01ac AE986EBF 		.word	-1083270994
 5190 01b0 0D586BBF 		.word	-1083484147
 5191 01b4 86D667BF 		.word	-1083713914
 5192 01b8 BE1564BF 		.word	-1083959874
 5193 01bc 5F1760BF 		.word	-1084221601
 5194 01c0 1EDD5BBF 		.word	-1084498658
 5195 01c4 B96857BF 		.word	-1084790599
 5196 01c8 F3BB52BF 		.word	-1085096973
 5197 01cc 99D84DBF 		.word	-1085417319
 5198 01d0 7EC048BF 		.word	-1085751170
 5199 01d4 7A7543BF 		.word	-1086098054
 5200 01d8 6CF93DBF 		.word	-1086457492
 5201 01dc 374E38BF 		.word	-1086829001
 5202 01e0 C37532BF 		.word	-1087212093
 5203 01e4 FC712CBF 		.word	-1087606276
 5204 01e8 D14426BF 		.word	-1088011055
 5205 01ec 35F01FBF 		.word	-1088425931
 5206 01f0 1C7619BF 		.word	-1088850404
 5207 01f4 7ED812BF 		.word	-1089283970
 5208 01f8 53190CBF 		.word	-1089726125
 5209 01fc 963A05BF 		.word	-1090176362
 5210 0200 807CFCBE 		.word	-1090749312
 5211 0204 9A4CEEBE 		.word	-1091679078
 5212 0208 6EE9DFBE 		.word	-1092621970
 5213 020c F356D1BE 		.word	-1093576973
 5214 0210 1999C2BE 		.word	-1094543079
 5215 0214 D2B3B3BE 		.word	-1095519278
 5216 0218 0AABA4BE 		.word	-1096504566
 5217 021c AA8295BE 		.word	-1097497942
 5218 0220 963E86BE 		.word	-1098498410
 5219 0224 59C56DBE 		.word	-1100102311
 5220 0228 8BE54EBE 		.word	-1102125685
 5221 022c 65E52FBE 		.word	-1104157339
 5222 0230 7CCC10BE 		.word	-1106195332
 5223 0234 A544E3BD 		.word	-1109179227
 5224 0238 B5DCA4BD 		.word	-1113269067
 5225 023c D0DF4CBD 		.word	-1119035440
 5226 0240 5433A0BC 		.word	-1130351788
ARM GAS  /var/folders/z2/7_lhr9dn53s9tj4s0rwtyswm0000gn/T//ccJ9q3ms.s 			page 149


 5227 0244 B1F0313C 		.word	1009905841
 5228 0248 30C5283D 		.word	1026082096
 5229 024c 9D52923D 		.word	1032999581
 5230 0250 4200D03D 		.word	1037041730
 5231 0254 EBAE063E 		.word	1040625387
 5232 0258 ED2E253E 		.word	1042624237
 5233 025c 8479433E 		.word	1044609412
 5234 0260 2888613E 		.word	1046579240
 5235 0264 6E547F3E 		.word	1048532078
 5236 0268 046C8E3E 		.word	1049521156
 5237 026c 62069D3E 		.word	1050478178
 5238 0270 4B76AB3E 		.word	1051424331
 5239 0274 C4B8B93E 		.word	1052358852
 5240 0278 E7CAC73E 		.word	1053280999
 5241 027c DBA9D53E 		.word	1054190043
 5242 0280 D952E33E 		.word	1055085273
 5243 0284 2CC3F03E 		.word	1055965996
 5244 0288 30F8FD3E 		.word	1056831536
 5245 028c A977053F 		.word	1057322921
 5246 0290 08D30B3F 		.word	1057739528
 5247 0294 FF0C123F 		.word	1058147583
 5248 0298 6024183F 		.word	1058546784
 5249 029c 06181E3F 		.word	1058936838
 5250 02a0 D6E6233F 		.word	1059317462
 5251 02a4 BD8F293F 		.word	1059688381
 5252 02a8 B6112F3F 		.word	1060049334
 5253 02ac C06B343F 		.word	1060400064
 5254 02b0 E79C393F 		.word	1060740327
 5255 02b4 41A43E3F 		.word	1061069889
 5256 02b8 ED80433F 		.word	1061388525
 5257 02bc 1432483F 		.word	1061696020
 5258 02c0 E9B64C3F 		.word	1061992169
 5259 02c4 AA0E513F 		.word	1062276778
 5260 02c8 9D38553F 		.word	1062549661
 5261 02cc 1534593F 		.word	1062810645
 5262 02d0 6D005D3F 		.word	1063059565
 5263 02d4 0A9D603F 		.word	1063296266
 5264 02d8 5C09643F 		.word	1063520604
 5265 02dc DE44673F 		.word	1063732446
 5266 02e0 134F6A3F 		.word	1063931667
 5267 02e4 8B276D3F 		.word	1064118155
 5268 02e8 DECD6F3F 		.word	1064291806
 5269 02ec AE41723F 		.word	1064452526
 5270 02f0 A982743F 		.word	1064600233
 5271 02f4 8590763F 		.word	1064734853
 5272 02f8 046B783F 		.word	1064856324
 5273 02fc F0117A3F 		.word	1064964592
 5274 0300 1F857B3F 		.word	1065059615
 5275 0304 70C47C3F 		.word	1065141360
 5276 0308 CCCF7D3F 		.word	1065209804
 5277 030c 26A77E3F 		.word	1065264934
 5278 0310 7A4A7F3F 		.word	1065306746
 5279 0314 CEB97F3F 		.word	1065335246
 5280 0318 33F57F3F 		.word	1065350451
 5281 031c C2FC7F3F 		.word	1065352386
 5282 0320 9ED07F3F 		.word	1065341086
 5283 0324 F3707F3F 		.word	1065316595
ARM GAS  /var/folders/z2/7_lhr9dn53s9tj4s0rwtyswm0000gn/T//ccJ9q3ms.s 			page 150


 5284 0328 F8DD7E3F 		.word	1065278968
 5285 032c EB177E3F 		.word	1065228267
 5286 0330 151F7D3F 		.word	1065164565
 5287 0334 C6F37B3F 		.word	1065087942
 5288 0338 59967A3F 		.word	1064998489
 5289 033c 3007793F 		.word	1064896304
 5290 0340 B846773F 		.word	1064781496
 5291 0344 6455753F 		.word	1064654180
 5292 0348 B233733F 		.word	1064514482
 5293 034c 25E2703F 		.word	1064362533
 5294 0350 4C616E3F 		.word	1064198476
 5295 0354 BDB16B3F 		.word	1064022461
 5296 0358 13D4683F 		.word	1063834643
 5297 035c F5C8653F 		.word	1063635189
 5298 0360 0F91623F 		.word	1063424271
 5299 0364 162D5F3F 		.word	1063202070
 5300 0368 C59D5B3F 		.word	1062968773
 5301 036c E0E3573F 		.word	1062724576
 5302 0370 3100543F 		.word	1062469681
 5303 0374 89F34F3F 		.word	1062204297
 5304 0378 BFBE4B3F 		.word	1061928639
 5305 037c B262473F 		.word	1061642930
 5306 0380 48E0423F 		.word	1061347400
 5307 0384 6B383E3F 		.word	1061042283
 5308 0388 0C6C393F 		.word	1060727820
 5309 038c 247C343F 		.word	1060404260
 5310 0390 AF692F3F 		.word	1060071855
 5311 0394 B0352A3F 		.word	1059730864
 5312 0398 2FE1243F 		.word	1059381551
 5313 039c 3A6D1F3F 		.word	1059024186
 5314 03a0 E2DA193F 		.word	1058659042
 5315 03a4 402B143F 		.word	1058286400
 5316 03a8 6F5F0E3F 		.word	1057906543
 5317 03ac 9078083F 		.word	1057519760
 5318 03b0 C877023F 		.word	1057126344
 5319 03b4 81BCF83E 		.word	1056488577
 5320 03b8 4A5AEC3E 		.word	1055677002
 5321 03bc 4FCBDF3E 		.word	1054853967
 5322 03c0 F811D33E 		.word	1054020088
 5323 03c4 B530C63E 		.word	1053175989
 5324 03c8 FA29B93E 		.word	1052322298
 5325 03cc 4300AC3E 		.word	1051459651
 5326 03d0 12B69E3E 		.word	1050588690
 5327 03d4 EC4D913E 		.word	1049710060
 5328 03d8 5DCA833E 		.word	1048824413
 5329 03dc E95B6C3E 		.word	1047288809
 5330 03e0 88F6503E 		.word	1045493384
 5331 03e4 C869353E 		.word	1043687880
 5332 03e8 DABA193E 		.word	1041873626
 5333 03ec F0DDFB3D 		.word	1039916528
 5334 03f0 BF16C43D 		.word	1036261055
 5335 03f4 A32A8C3D 		.word	1032596131
 5336 03f8 4948283D 		.word	1026050121
 5337 03fc 756E603C 		.word	1012952693
 5338 0400 756E60BC 		.word	-1134530955
 5339 0404 494828BD 		.word	-1121433527
 5340 0408 A32A8CBD 		.word	-1114887517
ARM GAS  /var/folders/z2/7_lhr9dn53s9tj4s0rwtyswm0000gn/T//ccJ9q3ms.s 			page 151


 5341 040c BF16C4BD 		.word	-1111222593
 5342 0410 F0DDFBBD 		.word	-1107567120
 5343 0414 DABA19BE 		.word	-1105610022
 5344 0418 C86935BE 		.word	-1103795768
 5345 041c 88F650BE 		.word	-1101990264
 5346 0420 E95B6CBE 		.word	-1100194839
 5347 0424 5DCA83BE 		.word	-1098659235
 5348 0428 EC4D91BE 		.word	-1097773588
 5349 042c 12B69EBE 		.word	-1096894958
 5350 0430 4300ACBE 		.word	-1096023997
 5351 0434 FA29B9BE 		.word	-1095161350
 5352 0438 B530C6BE 		.word	-1094307659
 5353 043c F811D3BE 		.word	-1093463560
 5354 0440 4FCBDFBE 		.word	-1092629681
 5355 0444 4A5AECBE 		.word	-1091806646
 5356 0448 81BCF8BE 		.word	-1090995071
 5357 044c C87702BF 		.word	-1090357304
 5358 0450 907808BF 		.word	-1089963888
 5359 0454 6F5F0EBF 		.word	-1089577105
 5360 0458 402B14BF 		.word	-1089197248
 5361 045c E2DA19BF 		.word	-1088824606
 5362 0460 3A6D1FBF 		.word	-1088459462
 5363 0464 2FE124BF 		.word	-1088102097
 5364 0468 B0352ABF 		.word	-1087752784
 5365 046c AF692FBF 		.word	-1087411793
 5366 0470 247C34BF 		.word	-1087079388
 5367 0474 0C6C39BF 		.word	-1086755828
 5368 0478 6B383EBF 		.word	-1086441365
 5369 047c 48E042BF 		.word	-1086136248
 5370 0480 B26247BF 		.word	-1085840718
 5371 0484 BFBE4BBF 		.word	-1085555009
 5372 0488 89F34FBF 		.word	-1085279351
 5373 048c 310054BF 		.word	-1085013967
 5374 0490 E0E357BF 		.word	-1084759072
 5375 0494 C59D5BBF 		.word	-1084514875
 5376 0498 162D5FBF 		.word	-1084281578
 5377 049c 0F9162BF 		.word	-1084059377
 5378 04a0 F5C865BF 		.word	-1083848459
 5379 04a4 13D468BF 		.word	-1083649005
 5380 04a8 BDB16BBF 		.word	-1083461187
 5381 04ac 4C616EBF 		.word	-1083285172
 5382 04b0 25E270BF 		.word	-1083121115
 5383 04b4 B23373BF 		.word	-1082969166
 5384 04b8 645575BF 		.word	-1082829468
 5385 04bc B84677BF 		.word	-1082702152
 5386 04c0 300779BF 		.word	-1082587344
 5387 04c4 59967ABF 		.word	-1082485159
 5388 04c8 C6F37BBF 		.word	-1082395706
 5389 04cc 151F7DBF 		.word	-1082319083
 5390 04d0 EB177EBF 		.word	-1082255381
 5391 04d4 F8DD7EBF 		.word	-1082204680
 5392 04d8 F3707FBF 		.word	-1082167053
 5393 04dc 9ED07FBF 		.word	-1082142562
 5394 04e0 C2FC7FBF 		.word	-1082131262
 5395 04e4 33F57FBF 		.word	-1082133197
 5396 04e8 CEB97FBF 		.word	-1082148402
 5397 04ec 7A4A7FBF 		.word	-1082176902
ARM GAS  /var/folders/z2/7_lhr9dn53s9tj4s0rwtyswm0000gn/T//ccJ9q3ms.s 			page 152


 5398 04f0 26A77EBF 		.word	-1082218714
 5399 04f4 CCCF7DBF 		.word	-1082273844
 5400 04f8 70C47CBF 		.word	-1082342288
 5401 04fc 1F857BBF 		.word	-1082424033
 5402 0500 F0117ABF 		.word	-1082519056
 5403 0504 046B78BF 		.word	-1082627324
 5404 0508 859076BF 		.word	-1082748795
 5405 050c A98274BF 		.word	-1082883415
 5406 0510 AE4172BF 		.word	-1083031122
 5407 0514 DECD6FBF 		.word	-1083191842
 5408 0518 8B276DBF 		.word	-1083365493
 5409 051c 134F6ABF 		.word	-1083551981
 5410 0520 DE4467BF 		.word	-1083751202
 5411 0524 5C0964BF 		.word	-1083963044
 5412 0528 0A9D60BF 		.word	-1084187382
 5413 052c 6D005DBF 		.word	-1084424083
 5414 0530 153459BF 		.word	-1084673003
 5415 0534 9D3855BF 		.word	-1084933987
 5416 0538 AA0E51BF 		.word	-1085206870
 5417 053c E9B64CBF 		.word	-1085491479
 5418 0540 143248BF 		.word	-1085787628
 5419 0544 ED8043BF 		.word	-1086095123
 5420 0548 41A43EBF 		.word	-1086413759
 5421 054c E79C39BF 		.word	-1086743321
 5422 0550 C06B34BF 		.word	-1087083584
 5423 0554 B6112FBF 		.word	-1087434314
 5424 0558 BD8F29BF 		.word	-1087795267
 5425 055c D6E623BF 		.word	-1088166186
 5426 0560 06181EBF 		.word	-1088546810
 5427 0564 602418BF 		.word	-1088936864
 5428 0568 FF0C12BF 		.word	-1089336065
 5429 056c 08D30BBF 		.word	-1089744120
 5430 0570 A97705BF 		.word	-1090160727
 5431 0574 30F8FDBE 		.word	-1090652112
 5432 0578 2CC3F0BE 		.word	-1091517652
 5433 057c D952E3BE 		.word	-1092398375
 5434 0580 DBA9D5BE 		.word	-1093293605
 5435 0584 E7CAC7BE 		.word	-1094202649
 5436 0588 C4B8B9BE 		.word	-1095124796
 5437 058c 4B76ABBE 		.word	-1096059317
 5438 0590 62069DBE 		.word	-1097005470
 5439 0594 046C8EBE 		.word	-1097962492
 5440 0598 6E547FBE 		.word	-1098951570
 5441 059c 288861BE 		.word	-1100904408
 5442 05a0 847943BE 		.word	-1102874236
 5443 05a4 ED2E25BE 		.word	-1104859411
 5444 05a8 EBAE06BE 		.word	-1106858261
 5445 05ac 4200D0BD 		.word	-1110441918
 5446 05b0 9D5292BD 		.word	-1114484067
 5447 05b4 30C528BD 		.word	-1121401552
 5448 05b8 B1F031BC 		.word	-1137577807
 5449 05bc 5433A03C 		.word	1017131860
 5450 05c0 D0DF4C3D 		.word	1028448208
 5451 05c4 B5DCA43D 		.word	1034214581
 5452 05c8 A544E33D 		.word	1038304421
 5453 05cc 7CCC103E 		.word	1041288316
 5454 05d0 65E52F3E 		.word	1043326309
ARM GAS  /var/folders/z2/7_lhr9dn53s9tj4s0rwtyswm0000gn/T//ccJ9q3ms.s 			page 153


 5455 05d4 8BE54E3E 		.word	1045357963
 5456 05d8 59C56D3E 		.word	1047381337
 5457 05dc 963E863E 		.word	1048985238
 5458 05e0 AA82953E 		.word	1049985706
 5459 05e4 0AABA43E 		.word	1050979082
 5460 05e8 D2B3B33E 		.word	1051964370
 5461 05ec 1999C23E 		.word	1052940569
 5462 05f0 F356D13E 		.word	1053906675
 5463 05f4 6EE9DF3E 		.word	1054861678
 5464 05f8 9A4CEE3E 		.word	1055804570
 5465 05fc 807CFC3E 		.word	1056734336
 5466 0600 963A053F 		.word	1057307286
 5467 0604 53190C3F 		.word	1057757523
 5468 0608 7ED8123F 		.word	1058199678
 5469 060c 1C76193F 		.word	1058633244
 5470 0610 35F01F3F 		.word	1059057717
 5471 0614 D144263F 		.word	1059472593
 5472 0618 FC712C3F 		.word	1059877372
 5473 061c C375323F 		.word	1060271555
 5474 0620 374E383F 		.word	1060654647
 5475 0624 6CF93D3F 		.word	1061026156
 5476 0628 7A75433F 		.word	1061385594
 5477 062c 7EC0483F 		.word	1061732478
 5478 0630 99D84D3F 		.word	1062066329
 5479 0634 F3BB523F 		.word	1062386675
 5480 0638 B968573F 		.word	1062693049
 5481 063c 1EDD5B3F 		.word	1062984990
 5482 0640 5F17603F 		.word	1063262047
 5483 0644 BE15643F 		.word	1063523774
 5484 0648 86D6673F 		.word	1063769734
 5485 064c 0D586B3F 		.word	1063999501
 5486 0650 AE986E3F 		.word	1064212654
 5487 0654 D496713F 		.word	1064408788
 5488 0658 EF50743F 		.word	1064587503
 5489 065c 80C5763F 		.word	1064748416
 5490 0660 0FF3783F 		.word	1064891151
 5491 0664 35D87A3F 		.word	1065015349
 5492 0668 95737C3F 		.word	1065120661
 5493 066c E3C37D3F 		.word	1065206755
 5494 0670 E0C77E3F 		.word	1065273312
 5495 0674 5C7E7F3F 		.word	1065320028
 5496 0678 3AE67F3F 		.word	1065346618
 5497 067c 6AFE7F3F 		.word	1065352810
 5498 0680 F2C57F3F 		.word	1065338354
 5499 0684 E73B7F3F 		.word	1065303015
 5500 0688 735F7E3F 		.word	1065246579
 5501 068c D32F7D3F 		.word	1065168851
 5502 0690 5BAC7B3F 		.word	1065069659
 5503 0694 71D4793F 		.word	1064948849
 5504 0698 94A7773F 		.word	1064806292
 5505 069c 5A25753F 		.word	1064641882
 5506 06a0 714D723F 		.word	1064455537
 5507 06a4 9F1F6F3F 		.word	1064247199
 5508 06a8 C49B6B3F 		.word	1064016836
 5509 06ac DDC1673F 		.word	1063764445
 5510 06b0 FF91633F 		.word	1063490047
 5511 06b4 5E0C5F3F 		.word	1063193694
ARM GAS  /var/folders/z2/7_lhr9dn53s9tj4s0rwtyswm0000gn/T//ccJ9q3ms.s 			page 154


 5512 06b8 4B315A3F 		.word	1062875467
 5513 06bc 3501553F 		.word	1062535477
 5514 06c0 A97C4F3F 		.word	1062173865
 5515 06c4 57A4493F 		.word	1061790807
 5516 06c8 0F79433F 		.word	1061386511
 5517 06cc C2FB3C3F 		.word	1060961218
 5518 06d0 852D363F 		.word	1060515205
 5519 06d4 930F2F3F 		.word	1060048787
 5520 06d8 49A3273F 		.word	1059562313
 5521 06dc 2CEA1F3F 		.word	1059056172
 5522 06e0 EAE5173F 		.word	1058530794
 5523 06e4 56980F3F 		.word	1057986646
 5524 06e8 6F03073F 		.word	1057424239
 5525 06ec BC52FC3E 		.word	1056723644
 5526 06f0 ED18EA3E 		.word	1055529197
 5527 06f4 755ED73E 		.word	1054301813
 5528 06f8 B228C43E 		.word	1053042866
 5529 06fc 617DB03E 		.word	1051753825
 5530 0700 9F629C3E 		.word	1050436255
 5531 0704 EDDE873E 		.word	1049091821
 5532 0708 5EF2653E 		.word	1046868574
 5533 070c 67713B3E 		.word	1044083047
 5534 0710 624A103E 		.word	1041255010
 5535 0714 311BC93D 		.word	1036589873
 5536 0718 C130613D 		.word	1029779649
 5537 071c 3B83393C 		.word	1010402107
 5538 0720 ACED05BD 		.word	-1123684948
 5539 0724 97B59DBD 		.word	-1113737833
 5540 0728 35E2F8BD 		.word	-1107762635
 5541 072c 8C282ABE 		.word	-1104533364
 5542 0730 57EA57BE 		.word	-1101534633
 5543 0734 58CF82BE 		.word	-1098723496
 5544 0738 5F9699BE 		.word	-1097230753
 5545 073c 513DB0BE 		.word	-1095746223
 5546 0740 B1B6C6BE 		.word	-1094273359
 5547 0744 76F4DCBE 		.word	-1092815754
 5548 0748 09E8F2BE 		.word	-1091377143
 5549 074c 1F4104BF 		.word	-1090240225
 5550 0750 ABD90EBF 		.word	-1089545813
 5551 0754 7C3519BF 		.word	-1088866948
 5552 0758 174C23BF 		.word	-1088205801
 5553 075c B3142DBF 		.word	-1087564621
 5554 0760 358636BF 		.word	-1086945739
 5555 0764 32973FBF 		.word	-1086351566
 5556 0768 E83D48BF 		.word	-1085784600
 5557 076c 427050BF 		.word	-1085247422
 5558 0770 D22358BF 		.word	-1084742702
 5559 0774 D24D5FBF 		.word	-1084273198
 5560 0778 21E365BF 		.word	-1083841759
 5561 077c 44D86BBF 		.word	-1083451324
 5562 0780 602171BF 		.word	-1083104928
 5563 0784 3CB275BF 		.word	-1082805700
 5564 0788 3D7E79BF 		.word	-1082556867
 5565 078c 66787CBF 		.word	-1082361754
 5566 0790 55937EBF 		.word	-1082223787
 5567 0794 41C17FBF 		.word	-1082146495
 5568 0798 FBF37FBF 		.word	-1082133509
ARM GAS  /var/folders/z2/7_lhr9dn53s9tj4s0rwtyswm0000gn/T//ccJ9q3ms.s 			page 155


 5569 079c E81C7FBF 		.word	-1082188568
 5570 07a0 022D7DBF 		.word	-1082315518
 5571 07a4 D6147ABF 		.word	-1082518314
 5572 07a8 81C475BF 		.word	-1082801023
 5573 07ac B02B70BF 		.word	-1083167824
 5574 07b0 9B3969BF 		.word	-1083623013
 5575 07b4 07DD60BF 		.word	-1084171001
 5576 07b8 400457BF 		.word	-1084816320
 5577 07bc 1C9D4BBF 		.word	-1085563620
 5578 07c0 F4943EBF 		.word	-1086417676
 5579 07c4 A4D82FBF 		.word	-1087383388
 5580 07c8 8B541FBF 		.word	-1088465781
 5581 07cc 86F40CBF 		.word	-1089670010
 5582 07d0 E247F1BE 		.word	-1091483678
 5583 07d4 419BC4BE 		.word	-1094411455
 5584 07d8 C8B793BE 		.word	-1097615416
 5585 07dc 09E23CBE 		.word	-1103306231
 5586 07e0 AF6592BD 		.word	-1114479185
 5587 07e4 30ED4F3D 		.word	1028648240
 5588 07e8 E6073B3E 		.word	1044056038
 5589 07ec 612AA63E 		.word	1051077217
 5590 07f0 FC22F43E 		.word	1056187132
 5591 07f4 7ED0233F 		.word	1059311742
 5592 07f8 656C503F 		.word	1062235237
 5593 07fc 0000803F 		.word	1065353216
 5594              		.section	.rodata._ZN7daisyspL2c8E,"a"
 5595              		.align	2
 5596              		.set	.LANCHOR15,. + 0
 5599              	_ZN7daisyspL2c8E:
 5600 0000 0000803F 		.word	1065353216
 5601 0004 1778423F 		.word	1061320727
 5602 0008 33F7093F 		.word	1057617715
 5603 000c AB81AC3E 		.word	1051492779
 5604 0010 74691C3E 		.word	1042049396
 5605 0014 E2406DBC 		.word	-1133690654
 5606 0018 399129BE 		.word	-1104572103
 5607 001c 89519ABE 		.word	-1097182839
 5608 0020 E46BD8BE 		.word	-1093112860
 5609 0024 B3BD07BF 		.word	-1090011725
 5610 0028 41F01FBF 		.word	-1088425919
 5611 002c 3BFC34BF 		.word	-1087046597
 5612 0030 AD0E47BF 		.word	-1085862227
 5613 0034 1A5356BF 		.word	-1084861670
 5614 0038 86F362BF 		.word	-1084034170
 5615 003c 7E186DBF 		.word	-1083369346
 5616 0040 1FE974BF 		.word	-1082857185
 5617 0044 208B7ABF 		.word	-1082488032
 5618 0048 DB227EBF 		.word	-1082252581
 5619 004c 54D37FBF 		.word	-1082141868
 5620 0050 40BE7FBF 		.word	-1082147264
 5621 0054 0F047EBF 		.word	-1082260465
 5622 0058 F5C37ABF 		.word	-1082473483
 5623 005c EB1B76BF 		.word	-1082778645
 5624 0060 C12870BF 		.word	-1083168575
 5625 0064 1C0669BF 		.word	-1083636196
 5626 0068 82CE60BF 		.word	-1084174718
 5627 006c 619B57BF 		.word	-1084777631
ARM GAS  /var/folders/z2/7_lhr9dn53s9tj4s0rwtyswm0000gn/T//ccJ9q3ms.s 			page 156


 5628 0070 15854DBF 		.word	-1085438699
 5629 0074 F0A242BF 		.word	-1086151952
 5630 0078 3F0B37BF 		.word	-1086911681
 5631 007c 54D32ABF 		.word	-1087712428
 5632 0080 8A0F1EBF 		.word	-1088548982
 5633 0084 4BD310BF 		.word	-1089416373
 5634 0088 1B3103BF 		.word	-1090309861
 5635 008c 2E75EABE 		.word	-1091930834
 5636 0090 0701CEBE 		.word	-1093795577
 5637 0094 9725B1BE 		.word	-1095686761
 5638 0098 150194BE 		.word	-1097596651
 5639 009c 48606DBE 		.word	-1100128184
 5640 00a0 B69B32BE 		.word	-1103979594
 5641 00a4 54CFEFBD 		.word	-1108357292
 5642 00a8 C4D175BD 		.word	-1116352060
 5643 00ac 7FE25BBB 		.word	-1151606145
 5644 00b0 1BF1573D 		.word	1029173531
 5645 00b4 C44DDD3D 		.word	1037913540
 5646 00b8 B86A263E 		.word	1042705080
 5647 00bc B7245D3E 		.word	1046291639
 5648 00c0 195A893E 		.word	1049188889
 5649 00c4 677DA33E 		.word	1050901863
 5650 00c8 3CEEBC3E 		.word	1052569148
 5651 00cc A29FD53E 		.word	1054187426
 5652 00d0 B185ED3E 		.word	1055753649
 5653 00d4 C34A023F 		.word	1057114819
 5654 00d8 9C620D3F 		.word	1057841820
 5655 00dc E905183F 		.word	1058538985
 5656 00e0 A430223F 		.word	1059205284
 5657 00e4 38DF2B3F 		.word	1059839800
 5658 00e8 7D0E353F 		.word	1060441725
 5659 00ec B3BB3D3F 		.word	1061010355
 5660 00f0 7EE4453F 		.word	1061545086
 5661 00f4 E4864D3F 		.word	1062045412
 5662 00f8 47A1543F 		.word	1062510919
 5663 00fc 62325B3F 		.word	1062941282
 5664 0100 4839613F 		.word	1063336264
 5665 0104 5AB5663F 		.word	1063695706
 5666 0108 4AA66B3F 		.word	1064019530
 5667 010c 140C703F 		.word	1064307732
 5668 0110 FEE6733F 		.word	1064560382
 5669 0114 8F37773F 		.word	1064777615
 5670 0118 92FE793F 		.word	1064959634
 5671 011c 0F3D7C3F 		.word	1065106703
 5672 0120 49F47D3F 		.word	1065219145
 5673 0124 BB257F3F 		.word	1065297339
 5674 0128 15D37F3F 		.word	1065341717
 5675 012c 3CFE7F3F 		.word	1065352764
 5676 0130 42A97F3F 		.word	1065331010
 5677 0134 65D67E3F 		.word	1065277029
 5678 0138 11887D3F 		.word	1065191441
 5679 013c D6C07B3F 		.word	1065074902
 5680 0140 6B83793F 		.word	1064928107
 5681 0144 A9D2763F 		.word	1064751785
 5682 0148 8CB1733F 		.word	1064546700
 5683 014c 2A23703F 		.word	1064313642
 5684 0150 B72A6C3F 		.word	1064053431
ARM GAS  /var/folders/z2/7_lhr9dn53s9tj4s0rwtyswm0000gn/T//ccJ9q3ms.s 			page 157


 5685 0154 82CB673F 		.word	1063766914
 5686 0158 EE08633F 		.word	1063454958
 5687 015c 77E65D3F 		.word	1063118455
 5688 0160 AB67583F 		.word	1062758315
 5689 0164 2890523F 		.word	1062375464
 5690 0168 9E634C3F 		.word	1061970846
 5691 016c C9E5453F 		.word	1061545417
 5692 0170 711A3F3F 		.word	1061100145
 5693 0174 6B05383F 		.word	1060636011
 5694 0178 90AA303F 		.word	1060154000
 5695 017c C30D293F 		.word	1059655107
 5696 0180 EC32213F 		.word	1059140332
 5697 0184 F51D193F 		.word	1058610677
 5698 0188 CDD2103F 		.word	1058067149
 5699 018c 6255083F 		.word	1057510754
 5700 0190 4253FF3E 		.word	1056920386
 5701 0194 EEA6ED3E 		.word	1055762158
 5702 0198 99ADDB3E 		.word	1054584217
 5703 019c 0D6FC93E 		.word	1053388557
 5704 01a0 08F3B63E 		.word	1052177160
 5705 01a4 3B41A43E 		.word	1050951995
 5706 01a8 4761913E 		.word	1049715015
 5707 01ac 77B57C3E 		.word	1048360311
 5708 01b0 296A563E 		.word	1045850665
 5709 01b4 70EF2F3E 		.word	1043328880
 5710 01b8 E953093E 		.word	1040798697
 5711 01bc FF4BC53D 		.word	1036340223
 5712 01c0 A0CF6F3D 		.word	1030737824
 5713 01c4 EB5CAA3C 		.word	1017797867
 5714 01c8 07298ABC 		.word	-1131796217
 5715 01cc 4DC35EBD 		.word	-1117863091
 5716 01d0 77D4BBBD 		.word	-1111763849
 5717 01d4 62E403BE 		.word	-1107041182
 5718 01d8 939229BE 		.word	-1104571757
 5719 01dc 68E84EBE 		.word	-1102124952
 5720 01e0 C4D973BE 		.word	-1099703868
 5721 01e4 6C2D8CBE 		.word	-1098109588
 5722 01e8 13309EBE 		.word	-1096929261
 5723 01ec 40EFAFBE 		.word	-1095766208
 5724 01f0 8765C1BE 		.word	-1094621817
 5725 01f4 A58DD2BE 		.word	-1093497435
 5726 01f8 8262E3BE 		.word	-1092394366
 5727 01fc 34DFF3BE 		.word	-1091313868
 5728 0200 7DFF01BF 		.word	-1090388099
 5729 0204 A3DE09BF 		.word	-1089872221
 5730 0208 D78A11BF 		.word	-1089369385
 5731 020c FF0119BF 		.word	-1088880129
 5732 0210 184220BF 		.word	-1088404968
 5733 0214 334927BF 		.word	-1087944397
 5734 0218 7B152EBF 		.word	-1087498885
 5735 021c 33A534BF 		.word	-1087068877
 5736 0220 B4F63ABF 		.word	-1086654796
 5737 0224 700841BF 		.word	-1086257040
 5738 0228 EFD846BF 		.word	-1085875985
 5739 022c D3664CBF 		.word	-1085511981
 5740 0230 D5B051BF 		.word	-1085165355
 5741 0234 C3B556BF 		.word	-1084836413
ARM GAS  /var/folders/z2/7_lhr9dn53s9tj4s0rwtyswm0000gn/T//ccJ9q3ms.s 			page 158


 5742 0238 88745BBF 		.word	-1084525432
 5743 023c 22EC5FBF 		.word	-1084232670
 5744 0240 A81B64BF 		.word	-1083958360
 5745 0244 490268BF 		.word	-1083702711
 5746 0248 4A9F6BBF 		.word	-1083465910
 5747 024c 0AF26EBF 		.word	-1083248118
 5748 0250 FBF971BF 		.word	-1083049477
 5749 0254 A8B674BF 		.word	-1082870104
 5750 0258 B32777BF 		.word	-1082710093
 5751 025c D24C79BF 		.word	-1082569518
 5752 0260 D5257BBF 		.word	-1082448427
 5753 0264 9EB27CBF 		.word	-1082346850
 5754 0268 27F37DBF 		.word	-1082264793
 5755 026c 7EE77EBF 		.word	-1082202242
 5756 0270 C78F7FBF 		.word	-1082159161
 5757 0274 3AEC7FBF 		.word	-1082135494
 5758 0278 24FD7FBF 		.word	-1082131164
 5759 027c E7C27FBF 		.word	-1082146073
 5760 0280 F63D7FBF 		.word	-1082180106
 5761 0284 DB6E7EBF 		.word	-1082233125
 5762 0288 2F567DBF 		.word	-1082304977
 5763 028c A1F47BBF 		.word	-1082395487
 5764 0290 F24A7ABF 		.word	-1082504462
 5765 0294 F25978BF 		.word	-1082631694
 5766 0298 862276BF 		.word	-1082776954
 5767 029c A2A573BF 		.word	-1082939998
 5768 02a0 4BE470BF 		.word	-1083120565
 5769 02a4 97DF6DBF 		.word	-1083318377
 5770 02a8 AB986ABF 		.word	-1083533141
 5771 02ac BC1067BF 		.word	-1083764548
 5772 02b0 0C4963BF 		.word	-1084012276
 5773 02b4 EF425FBF 		.word	-1084275985
 5774 02b8 C4FF5ABF 		.word	-1084555324
 5775 02bc F88056BF 		.word	-1084849928
 5776 02c0 05C851BF 		.word	-1085159419
 5777 02c4 74D64CBF 		.word	-1085483404
 5778 02c8 D6AD47BF 		.word	-1085821482
 5779 02cc CA4F42BF 		.word	-1086173238
 5780 02d0 FBBD3CBF 		.word	-1086538245
 5781 02d4 1CFA36BF 		.word	-1086916068
 5782 02d8 ED0531BF 		.word	-1087306259
 5783 02dc 34E32ABF 		.word	-1087708364
 5784 02e0 C49324BF 		.word	-1088121916
 5785 02e4 76191EBF 		.word	-1088546442
 5786 02e8 2B7617BF 		.word	-1088981461
 5787 02ec CFAB10BF 		.word	-1089426481
 5788 02f0 50BC09BF 		.word	-1089881008
 5789 02f4 A7A902BF 		.word	-1090344537
 5790 02f8 9FEBF6BE 		.word	-1091114081
 5791 02fc 9C45E8BE 		.word	-1092074084
 5792 0300 5365D9BE 		.word	-1093049005
 5793 0304 DD4ECABE 		.word	-1094037795
 5794 0308 5D06BBBE 		.word	-1095039395
 5795 030c F88FABBE 		.word	-1096052744
 5796 0310 DFEF9BBE 		.word	-1097076769
 5797 0314 442A8CBE 		.word	-1098110396
 5798 0318 BE8678BE 		.word	-1099397442
ARM GAS  /var/folders/z2/7_lhr9dn53s9tj4s0rwtyswm0000gn/T//ccJ9q3ms.s 			page 159


 5799 031c D67E58BE 		.word	-1101496618
 5800 0320 4A4538BE 		.word	-1103608502
 5801 0324 95E217BE 		.word	-1105730923
 5802 0328 68BEEEBD 		.word	-1108427160
 5803 032c 4587ADBD 		.word	-1112701115
 5804 0330 646158BD 		.word	-1118281372
 5805 0334 4C2EABBC 		.word	-1129632180
 5806 0338 01BA343C 		.word	1010088449
 5807 033c 05CE2F3D 		.word	1026543109
 5808 0340 0413993D 		.word	1033442052
 5809 0344 AE0ADA3D 		.word	1037699758
 5810 0348 C45E0D3E 		.word	1041063620
 5811 034c 9B8D2D3E 		.word	1043172763
 5812 0350 C1894D3E 		.word	1045268929
 5813 0354 2F4B6D3E 		.word	1047350063
 5814 0358 FA64863E 		.word	1048995066
 5815 035c 19FF953E 		.word	1050017561
 5816 0360 1470A53E 		.word	1051029524
 5817 0364 17B4B43E 		.word	1052029975
 5818 0368 5BC7C33E 		.word	1053017947
 5819 036c 28A6D23E 		.word	1053992488
 5820 0370 D64CE13E 		.word	1054952662
 5821 0374 CCB7EF3E 		.word	1055897548
 5822 0378 83E3FD3E 		.word	1056826243
 5823 037c 43E6053F 		.word	1057351235
 5824 0380 B8B70C3F 		.word	1057798072
 5825 0384 7864133F 		.word	1058235512
 5826 0388 E5EA193F 		.word	1058663141
 5827 038c 6B49203F 		.word	1059080555
 5828 0390 7F7E263F 		.word	1059487359
 5829 0394 A2882C3F 		.word	1059883170
 5830 0398 6066323F 		.word	1060267616
 5831 039c 4F16383F 		.word	1060640335
 5832 03a0 14973D3F 		.word	1061000980
 5833 03a4 5BE7423F 		.word	1061349211
 5834 03a8 E005483F 		.word	1061684704
 5835 03ac 6AF14C3F 		.word	1062007146
 5836 03b0 CCA8513F 		.word	1062316236
 5837 03b4 E72A563F 		.word	1062611687
 5838 03b8 A7765A3F 		.word	1062893223
 5839 03bc 088B5E3F 		.word	1063160584
 5840 03c0 1267623F 		.word	1063413522
 5841 03c4 DA09663F 		.word	1063651802
 5842 03c8 8472693F 		.word	1063875204
 5843 03cc 41A06C3F 		.word	1064083521
 5844 03d0 51926F3F 		.word	1064276561
 5845 03d4 0248723F 		.word	1064454146
 5846 03d8 AFC0743F 		.word	1064616111
 5847 03dc C4FB763F 		.word	1064762308
 5848 03e0 B9F8783F 		.word	1064892601
 5849 03e4 17B77A3F 		.word	1065006871
 5850 03e8 75367C3F 		.word	1065105013
 5851 03ec 78767D3F 		.word	1065186936
 5852 03f0 D5767E3F 		.word	1065252565
 5853 03f4 50377F3F 		.word	1065301840
 5854 03f8 BBB77F3F 		.word	1065334715
 5855 03fc F8F77F3F 		.word	1065351160
ARM GAS  /var/folders/z2/7_lhr9dn53s9tj4s0rwtyswm0000gn/T//ccJ9q3ms.s 			page 160


 5856 0400 F8F77F3F 		.word	1065351160
 5857 0404 BBB77F3F 		.word	1065334715
 5858 0408 50377F3F 		.word	1065301840
 5859 040c D5767E3F 		.word	1065252565
 5860 0410 78767D3F 		.word	1065186936
 5861 0414 75367C3F 		.word	1065105013
 5862 0418 17B77A3F 		.word	1065006871
 5863 041c B9F8783F 		.word	1064892601
 5864 0420 C4FB763F 		.word	1064762308
 5865 0424 AFC0743F 		.word	1064616111
 5866 0428 0248723F 		.word	1064454146
 5867 042c 51926F3F 		.word	1064276561
 5868 0430 41A06C3F 		.word	1064083521
 5869 0434 8472693F 		.word	1063875204
 5870 0438 DA09663F 		.word	1063651802
 5871 043c 1267623F 		.word	1063413522
 5872 0440 088B5E3F 		.word	1063160584
 5873 0444 A7765A3F 		.word	1062893223
 5874 0448 E72A563F 		.word	1062611687
 5875 044c CCA8513F 		.word	1062316236
 5876 0450 6AF14C3F 		.word	1062007146
 5877 0454 E005483F 		.word	1061684704
 5878 0458 5BE7423F 		.word	1061349211
 5879 045c 14973D3F 		.word	1061000980
 5880 0460 4F16383F 		.word	1060640335
 5881 0464 6066323F 		.word	1060267616
 5882 0468 A2882C3F 		.word	1059883170
 5883 046c 7F7E263F 		.word	1059487359
 5884 0470 6B49203F 		.word	1059080555
 5885 0474 E5EA193F 		.word	1058663141
 5886 0478 7864133F 		.word	1058235512
 5887 047c B8B70C3F 		.word	1057798072
 5888 0480 43E6053F 		.word	1057351235
 5889 0484 83E3FD3E 		.word	1056826243
 5890 0488 CCB7EF3E 		.word	1055897548
 5891 048c D64CE13E 		.word	1054952662
 5892 0490 28A6D23E 		.word	1053992488
 5893 0494 5BC7C33E 		.word	1053017947
 5894 0498 17B4B43E 		.word	1052029975
 5895 049c 1470A53E 		.word	1051029524
 5896 04a0 19FF953E 		.word	1050017561
 5897 04a4 FA64863E 		.word	1048995066
 5898 04a8 2F4B6D3E 		.word	1047350063
 5899 04ac C1894D3E 		.word	1045268929
 5900 04b0 9B8D2D3E 		.word	1043172763
 5901 04b4 C45E0D3E 		.word	1041063620
 5902 04b8 AE0ADA3D 		.word	1037699758
 5903 04bc 0413993D 		.word	1033442052
 5904 04c0 05CE2F3D 		.word	1026543109
 5905 04c4 01BA343C 		.word	1010088449
 5906 04c8 4C2EABBC 		.word	-1129632180
 5907 04cc 646158BD 		.word	-1118281372
 5908 04d0 4587ADBD 		.word	-1112701115
 5909 04d4 68BEEEBD 		.word	-1108427160
 5910 04d8 95E217BE 		.word	-1105730923
 5911 04dc 4A4538BE 		.word	-1103608502
 5912 04e0 D67E58BE 		.word	-1101496618
ARM GAS  /var/folders/z2/7_lhr9dn53s9tj4s0rwtyswm0000gn/T//ccJ9q3ms.s 			page 161


 5913 04e4 BE8678BE 		.word	-1099397442
 5914 04e8 442A8CBE 		.word	-1098110396
 5915 04ec DFEF9BBE 		.word	-1097076769
 5916 04f0 F88FABBE 		.word	-1096052744
 5917 04f4 5D06BBBE 		.word	-1095039395
 5918 04f8 DD4ECABE 		.word	-1094037795
 5919 04fc 5365D9BE 		.word	-1093049005
 5920 0500 9C45E8BE 		.word	-1092074084
 5921 0504 9FEBF6BE 		.word	-1091114081
 5922 0508 A7A902BF 		.word	-1090344537
 5923 050c 50BC09BF 		.word	-1089881008
 5924 0510 CFAB10BF 		.word	-1089426481
 5925 0514 2B7617BF 		.word	-1088981461
 5926 0518 76191EBF 		.word	-1088546442
 5927 051c C49324BF 		.word	-1088121916
 5928 0520 34E32ABF 		.word	-1087708364
 5929 0524 ED0531BF 		.word	-1087306259
 5930 0528 1CFA36BF 		.word	-1086916068
 5931 052c FBBD3CBF 		.word	-1086538245
 5932 0530 CA4F42BF 		.word	-1086173238
 5933 0534 D6AD47BF 		.word	-1085821482
 5934 0538 74D64CBF 		.word	-1085483404
 5935 053c 05C851BF 		.word	-1085159419
 5936 0540 F88056BF 		.word	-1084849928
 5937 0544 C4FF5ABF 		.word	-1084555324
 5938 0548 EF425FBF 		.word	-1084275985
 5939 054c 0C4963BF 		.word	-1084012276
 5940 0550 BC1067BF 		.word	-1083764548
 5941 0554 AB986ABF 		.word	-1083533141
 5942 0558 97DF6DBF 		.word	-1083318377
 5943 055c 4BE470BF 		.word	-1083120565
 5944 0560 A2A573BF 		.word	-1082939998
 5945 0564 862276BF 		.word	-1082776954
 5946 0568 F25978BF 		.word	-1082631694
 5947 056c F24A7ABF 		.word	-1082504462
 5948 0570 A1F47BBF 		.word	-1082395487
 5949 0574 2F567DBF 		.word	-1082304977
 5950 0578 DB6E7EBF 		.word	-1082233125
 5951 057c F63D7FBF 		.word	-1082180106
 5952 0580 E7C27FBF 		.word	-1082146073
 5953 0584 24FD7FBF 		.word	-1082131164
 5954 0588 3AEC7FBF 		.word	-1082135494
 5955 058c C78F7FBF 		.word	-1082159161
 5956 0590 7EE77EBF 		.word	-1082202242
 5957 0594 27F37DBF 		.word	-1082264793
 5958 0598 9EB27CBF 		.word	-1082346850
 5959 059c D5257BBF 		.word	-1082448427
 5960 05a0 D24C79BF 		.word	-1082569518
 5961 05a4 B32777BF 		.word	-1082710093
 5962 05a8 A8B674BF 		.word	-1082870104
 5963 05ac FBF971BF 		.word	-1083049477
 5964 05b0 0AF26EBF 		.word	-1083248118
 5965 05b4 4A9F6BBF 		.word	-1083465910
 5966 05b8 490268BF 		.word	-1083702711
 5967 05bc A81B64BF 		.word	-1083958360
 5968 05c0 22EC5FBF 		.word	-1084232670
 5969 05c4 88745BBF 		.word	-1084525432
ARM GAS  /var/folders/z2/7_lhr9dn53s9tj4s0rwtyswm0000gn/T//ccJ9q3ms.s 			page 162


 5970 05c8 C3B556BF 		.word	-1084836413
 5971 05cc D5B051BF 		.word	-1085165355
 5972 05d0 D3664CBF 		.word	-1085511981
 5973 05d4 EFD846BF 		.word	-1085875985
 5974 05d8 700841BF 		.word	-1086257040
 5975 05dc B4F63ABF 		.word	-1086654796
 5976 05e0 33A534BF 		.word	-1087068877
 5977 05e4 7B152EBF 		.word	-1087498885
 5978 05e8 334927BF 		.word	-1087944397
 5979 05ec 184220BF 		.word	-1088404968
 5980 05f0 FF0119BF 		.word	-1088880129
 5981 05f4 D78A11BF 		.word	-1089369385
 5982 05f8 A3DE09BF 		.word	-1089872221
 5983 05fc 7DFF01BF 		.word	-1090388099
 5984 0600 34DFF3BE 		.word	-1091313868
 5985 0604 8262E3BE 		.word	-1092394366
 5986 0608 A58DD2BE 		.word	-1093497435
 5987 060c 8765C1BE 		.word	-1094621817
 5988 0610 40EFAFBE 		.word	-1095766208
 5989 0614 13309EBE 		.word	-1096929261
 5990 0618 6C2D8CBE 		.word	-1098109588
 5991 061c C4D973BE 		.word	-1099703868
 5992 0620 68E84EBE 		.word	-1102124952
 5993 0624 939229BE 		.word	-1104571757
 5994 0628 62E403BE 		.word	-1107041182
 5995 062c 77D4BBBD 		.word	-1111763849
 5996 0630 4DC35EBD 		.word	-1117863091
 5997 0634 07298ABC 		.word	-1131796217
 5998 0638 EB5CAA3C 		.word	1017797867
 5999 063c A0CF6F3D 		.word	1030737824
 6000 0640 FF4BC53D 		.word	1036340223
 6001 0644 E953093E 		.word	1040798697
 6002 0648 70EF2F3E 		.word	1043328880
 6003 064c 296A563E 		.word	1045850665
 6004 0650 77B57C3E 		.word	1048360311
 6005 0654 4761913E 		.word	1049715015
 6006 0658 3B41A43E 		.word	1050951995
 6007 065c 08F3B63E 		.word	1052177160
 6008 0660 0D6FC93E 		.word	1053388557
 6009 0664 99ADDB3E 		.word	1054584217
 6010 0668 EEA6ED3E 		.word	1055762158
 6011 066c 4253FF3E 		.word	1056920386
 6012 0670 6255083F 		.word	1057510754
 6013 0674 CDD2103F 		.word	1058067149
 6014 0678 F51D193F 		.word	1058610677
 6015 067c EC32213F 		.word	1059140332
 6016 0680 C30D293F 		.word	1059655107
 6017 0684 90AA303F 		.word	1060154000
 6018 0688 6B05383F 		.word	1060636011
 6019 068c 711A3F3F 		.word	1061100145
 6020 0690 C9E5453F 		.word	1061545417
 6021 0694 9E634C3F 		.word	1061970846
 6022 0698 2890523F 		.word	1062375464
 6023 069c AB67583F 		.word	1062758315
 6024 06a0 77E65D3F 		.word	1063118455
 6025 06a4 EE08633F 		.word	1063454958
 6026 06a8 82CB673F 		.word	1063766914
ARM GAS  /var/folders/z2/7_lhr9dn53s9tj4s0rwtyswm0000gn/T//ccJ9q3ms.s 			page 163


 6027 06ac B72A6C3F 		.word	1064053431
 6028 06b0 2A23703F 		.word	1064313642
 6029 06b4 8CB1733F 		.word	1064546700
 6030 06b8 A9D2763F 		.word	1064751785
 6031 06bc 6B83793F 		.word	1064928107
 6032 06c0 D6C07B3F 		.word	1065074902
 6033 06c4 11887D3F 		.word	1065191441
 6034 06c8 65D67E3F 		.word	1065277029
 6035 06cc 42A97F3F 		.word	1065331010
 6036 06d0 3CFE7F3F 		.word	1065352764
 6037 06d4 15D37F3F 		.word	1065341717
 6038 06d8 BB257F3F 		.word	1065297339
 6039 06dc 49F47D3F 		.word	1065219145
 6040 06e0 0F3D7C3F 		.word	1065106703
 6041 06e4 92FE793F 		.word	1064959634
 6042 06e8 8F37773F 		.word	1064777615
 6043 06ec FEE6733F 		.word	1064560382
 6044 06f0 140C703F 		.word	1064307732
 6045 06f4 4AA66B3F 		.word	1064019530
 6046 06f8 5AB5663F 		.word	1063695706
 6047 06fc 4839613F 		.word	1063336264
 6048 0700 62325B3F 		.word	1062941282
 6049 0704 47A1543F 		.word	1062510919
 6050 0708 E4864D3F 		.word	1062045412
 6051 070c 7EE4453F 		.word	1061545086
 6052 0710 B3BB3D3F 		.word	1061010355
 6053 0714 7D0E353F 		.word	1060441725
 6054 0718 38DF2B3F 		.word	1059839800
 6055 071c A430223F 		.word	1059205284
 6056 0720 E905183F 		.word	1058538985
 6057 0724 9C620D3F 		.word	1057841820
 6058 0728 C34A023F 		.word	1057114819
 6059 072c B185ED3E 		.word	1055753649
 6060 0730 A29FD53E 		.word	1054187426
 6061 0734 3CEEBC3E 		.word	1052569148
 6062 0738 677DA33E 		.word	1050901863
 6063 073c 195A893E 		.word	1049188889
 6064 0740 B7245D3E 		.word	1046291639
 6065 0744 B86A263E 		.word	1042705080
 6066 0748 C44DDD3D 		.word	1037913540
 6067 074c 1BF1573D 		.word	1029173531
 6068 0750 7FE25BBB 		.word	-1151606145
 6069 0754 C4D175BD 		.word	-1116352060
 6070 0758 54CFEFBD 		.word	-1108357292
 6071 075c B69B32BE 		.word	-1103979594
 6072 0760 48606DBE 		.word	-1100128184
 6073 0764 150194BE 		.word	-1097596651
 6074 0768 9725B1BE 		.word	-1095686761
 6075 076c 0701CEBE 		.word	-1093795577
 6076 0770 2E75EABE 		.word	-1091930834
 6077 0774 1B3103BF 		.word	-1090309861
 6078 0778 4BD310BF 		.word	-1089416373
 6079 077c 8A0F1EBF 		.word	-1088548982
 6080 0780 54D32ABF 		.word	-1087712428
 6081 0784 3F0B37BF 		.word	-1086911681
 6082 0788 F0A242BF 		.word	-1086151952
 6083 078c 15854DBF 		.word	-1085438699
ARM GAS  /var/folders/z2/7_lhr9dn53s9tj4s0rwtyswm0000gn/T//ccJ9q3ms.s 			page 164


 6084 0790 619B57BF 		.word	-1084777631
 6085 0794 82CE60BF 		.word	-1084174718
 6086 0798 1C0669BF 		.word	-1083636196
 6087 079c C12870BF 		.word	-1083168575
 6088 07a0 EB1B76BF 		.word	-1082778645
 6089 07a4 F5C37ABF 		.word	-1082473483
 6090 07a8 0F047EBF 		.word	-1082260465
 6091 07ac 40BE7FBF 		.word	-1082147264
 6092 07b0 54D37FBF 		.word	-1082141868
 6093 07b4 DB227EBF 		.word	-1082252581
 6094 07b8 208B7ABF 		.word	-1082488032
 6095 07bc 1FE974BF 		.word	-1082857185
 6096 07c0 7E186DBF 		.word	-1083369346
 6097 07c4 86F362BF 		.word	-1084034170
 6098 07c8 1A5356BF 		.word	-1084861670
 6099 07cc AD0E47BF 		.word	-1085862227
 6100 07d0 3BFC34BF 		.word	-1087046597
 6101 07d4 41F01FBF 		.word	-1088425919
 6102 07d8 B3BD07BF 		.word	-1090011725
 6103 07dc E46BD8BE 		.word	-1093112860
 6104 07e0 89519ABE 		.word	-1097182839
 6105 07e4 399129BE 		.word	-1104572103
 6106 07e8 E2406DBC 		.word	-1133690654
 6107 07ec 74691C3E 		.word	1042049396
 6108 07f0 AB81AC3E 		.word	1051492779
 6109 07f4 33F7093F 		.word	1057617715
 6110 07f8 1778423F 		.word	1061320727
 6111 07fc 0000803F 		.word	1065353216
 6112              		.section	.rodata._ZN7daisyspL2c9E,"a"
 6113              		.align	2
 6114              		.set	.LANCHOR16,. + 0
 6117              	_ZN7daisyspL2c9E:
 6118 0000 000080BF 		.word	-1082130432
 6119 0004 16FE32BF 		.word	-1087177194
 6120 0008 EEE9DBBE 		.word	-1092883986
 6121 000c 94A641BE 		.word	-1102993772
 6122 0010 C83CC33C 		.word	1019428040
 6123 0014 701B583E 		.word	1045961584
 6124 0018 7A93BF3E 		.word	1052742522
 6125 001c 7BCA033F 		.word	1057213051
 6126 0020 9F6C223F 		.word	1059220639
 6127 0024 630F3C3F 		.word	1060900707
 6128 0028 DA0D513F 		.word	1062276570
 6129 002c 0DBF613F 		.word	1063370509
 6130 0030 19766E3F 		.word	1064203801
 6131 0034 5082773F 		.word	1064796752
 6132 0038 562F7D3F 		.word	1065168726
 6133 003c 3DC57F3F 		.word	1065338173
 6134 0040 A7887F3F 		.word	1065322663
 6135 0044 DABA7C3F 		.word	1065138906
 6136 0048 E199773F 		.word	1064802785
 6137 004c A860703F 		.word	1064329384
 6138 0050 1147673F 		.word	1063733009
 6139 0054 12825C3F 		.word	1063027218
 6140 0058 CE43503F 		.word	1062224846
 6141 005c A9BB423F 		.word	1061338025
 6142 0060 6716343F 		.word	1060378215
ARM GAS  /var/folders/z2/7_lhr9dn53s9tj4s0rwtyswm0000gn/T//ccJ9q3ms.s 			page 165


 6143 0064 3E7E243F 		.word	1059356222
 6144 0068 F01A143F 		.word	1058282224
 6145 006c DE11033F 		.word	1057165790
 6146 0070 430CE33E 		.word	1055067203
 6147 0074 4131BF3E 		.word	1052717377
 6148 0078 42D09A3E 		.word	1050333250
 6149 007c 7D456C3E 		.word	1047283069
 6150 0080 83BC223E 		.word	1042463875
 6151 0084 38D2B23D 		.word	1035129400
 6152 0088 673C853C 		.word	1015364711
 6153 008c 7DCB5CBD 		.word	-1117992067
 6154 0090 1CAFFBBD 		.word	-1107579108
 6155 0094 50FE42BE 		.word	-1102905776
 6156 0098 8F3283BE 		.word	-1098698097
 6157 009c ECE7A3BE 		.word	-1096554516
 6158 00a0 FF83C3BE 		.word	-1094482945
 6159 00a4 3CEEE1BE 		.word	-1092489668
 6160 00a8 AE10FFBE 		.word	-1090580306
 6161 00ac E96B0DBF 		.word	-1089639447
 6162 00b0 41991ABF 		.word	-1088775871
 6163 00b4 EB0827BF 		.word	-1087960853
 6164 00b8 83B432BF 		.word	-1087196029
 6165 00bc A9963DBF 		.word	-1086482775
 6166 00c0 F5AA47BF 		.word	-1085822219
 6167 00c4 E9ED50BF 		.word	-1085215255
 6168 00c8 E45C59BF 		.word	-1084662556
 6169 00cc 19F660BF 		.word	-1084164583
 6170 00d0 80B867BF 		.word	-1083721600
 6171 00d4 D0A36DBF 		.word	-1083333680
 6172 00d8 6FB872BF 		.word	-1083000721
 6173 00dc 69F776BF 		.word	-1082722455
 6174 00e0 67627ABF 		.word	-1082498457
 6175 00e4 A5FB7CBF 		.word	-1082328155
 6176 00e8 EAC57EBF 		.word	-1082210838
 6177 00ec 78C47FBF 		.word	-1082145672
 6178 00f0 0EFB7FBF 		.word	-1082131698
 6179 00f4 D66D7FBF 		.word	-1082167850
 6180 00f8 60217EBF 		.word	-1082252960
 6181 00fc 9C1A7CBF 		.word	-1082385764
 6182 0100 D05E79BF 		.word	-1082564912
 6183 0104 91F375BF 		.word	-1082788975
 6184 0108 BBDE71BF 		.word	-1083056453
 6185 010c 6D266DBF 		.word	-1083365779
 6186 0110 FDD067BF 		.word	-1083715331
 6187 0114 F9E461BF 		.word	-1084103431
 6188 0118 18695BBF 		.word	-1084528360
 6189 011c 3D6454BF 		.word	-1084988355
 6190 0120 6BDD4CBF 		.word	-1085481621
 6191 0124 C2DB44BF 		.word	-1086006334
 6192 0128 78663CBF 		.word	-1086560648
 6193 012c D78433BF 		.word	-1087142697
 6194 0130 373E2ABF 		.word	-1087750601
 6195 0134 F69920BF 		.word	-1088382474
 6196 0138 7A9F16BF 		.word	-1089036422
 6197 013c 27560CBF 		.word	-1089710553
 6198 0140 5EC501BF 		.word	-1090402978
 6199 0144 F1E8EDBE 		.word	-1091704591
ARM GAS  /var/folders/z2/7_lhr9dn53s9tj4s0rwtyswm0000gn/T//ccJ9q3ms.s 			page 166


 6200 0148 8BD5D7BE 		.word	-1093151349
 6201 014c 0A5FC1BE 		.word	-1094623478
 6202 0150 C993AABE 		.word	-1096117303
 6203 0154 FC8193BE 		.word	-1097629188
 6204 0158 4B6F78BE 		.word	-1099403445
 6205 015c 288549BE 		.word	-1102478040
 6206 0160 B5601ABE 		.word	-1105567563
 6207 0164 3B39D6BD 		.word	-1110034117
 6208 0168 0C4C6FBD 		.word	-1116779508
 6209 016c 83D749BC 		.word	-1136011389
 6210 0170 20AC093D 		.word	1024044064
 6211 0174 445CA23D 		.word	1034050628
 6212 0178 4028FF3D 		.word	1040132160
 6213 017c F8852D3E 		.word	1043170808
 6214 0180 53ED5A3E 		.word	1046146387
 6215 0184 49DA833E 		.word	1048828489
 6216 0188 67E3993E 		.word	1050272615
 6217 018c F387AF3E 		.word	1051690995
 6218 0190 3DBEC43E 		.word	1053081149
 6219 0194 F97CD93E 		.word	1054440697
 6220 0198 41BBED3E 		.word	1055767361
 6221 019c 4BB8003F 		.word	1057011787
 6222 01a0 6F4A0A3F 		.word	1057639023
 6223 01a4 3690133F 		.word	1058246710
 6224 01a8 FC851C3F 		.word	1058833916
 6225 01ac 5428253F 		.word	1059399764
 6226 01b0 05742D3F 		.word	1059943429
 6227 01b4 0C66353F 		.word	1060464140
 6228 01b8 99FB3C3F 		.word	1060961177
 6229 01bc 1332443F 		.word	1061433875
 6230 01c0 17074B3F 		.word	1061881623
 6231 01c4 7578513F 		.word	1062303861
 6232 01c8 3284573F 		.word	1062700082
 6233 01cc 87285D3F 		.word	1063069831
 6234 01d0 E163623F 		.word	1063412705
 6235 01d4 E134673F 		.word	1063728353
 6236 01d8 599A6B3F 		.word	1064016473
 6237 01dc 4F936F3F 		.word	1064276815
 6238 01e0 F91E733F 		.word	1064509177
 6239 01e4 BF3C763F 		.word	1064713407
 6240 01e8 37EC783F 		.word	1064889399
 6241 01ec 282D7B3F 		.word	1065037096
 6242 01f0 88FF7C3F 		.word	1065156488
 6243 01f4 78637E3F 		.word	1065247608
 6244 01f8 48597F3F 		.word	1065310536
 6245 01fc 73E17F3F 		.word	1065345395
 6246 0200 9DFC7F3F 		.word	1065352349
 6247 0204 96AB7F3F 		.word	1065331606
 6248 0208 55EF7E3F 		.word	1065283413
 6249 020c FAC87D3F 		.word	1065208058
 6250 0210 C8397C3F 		.word	1065105864
 6251 0214 2B437A3F 		.word	1064977195
 6252 0218 B1E6773F 		.word	1064822449
 6253 021c 0C26753F 		.word	1064642060
 6254 0220 0F03723F 		.word	1064436495
 6255 0224 AD7F6E3F 		.word	1064206253
 6256 0228 F99D6A3F 		.word	1063951865
ARM GAS  /var/folders/z2/7_lhr9dn53s9tj4s0rwtyswm0000gn/T//ccJ9q3ms.s 			page 167


 6257 022c 2360663F 		.word	1063673891
 6258 0230 79C8613F 		.word	1063372921
 6259 0234 65D95C3F 		.word	1063049573
 6260 0238 6895573F 		.word	1062704488
 6261 023c 1FFF513F 		.word	1062338335
 6262 0240 3E194C3F 		.word	1061951806
 6263 0244 8DE6453F 		.word	1061545613
 6264 0248 ED693F3F 		.word	1061120493
 6265 024c 4FA6383F 		.word	1060677199
 6266 0250 B99E313F 		.word	1060216505
 6267 0254 40562A3F 		.word	1059739200
 6268 0258 0BD0223F 		.word	1059246091
 6269 025c 4E0F1B3F 		.word	1058737998
 6270 0260 4A17133F 		.word	1058215754
 6271 0264 4DEB0A3F 		.word	1057680205
 6272 0268 B08E023F 		.word	1057132208
 6273 026c A909F43E 		.word	1056180649
 6274 0270 48A2E23E 		.word	1055040072
 6275 0274 20EED03E 		.word	1053879840
 6276 0278 1EF4BE3E 		.word	1052701726
 6277 027c 38BBAC3E 		.word	1051507512
 6278 0280 6B4A9A3E 		.word	1050298987
 6279 0284 B8A8873E 		.word	1049077944
 6280 0288 47BA693E 		.word	1047116359
 6281 028c 5DDD433E 		.word	1044634973
 6282 0290 B4C81D3E 		.word	1042139316
 6283 0294 8314EF3D 		.word	1039078531
 6284 0298 DD5FA23D 		.word	1034051549
 6285 029c 3E1E2B3D 		.word	1026235966
 6286 02a0 84DC8B3B 		.word	999021700
 6287 02a4 C0F107BD 		.word	-1123552832
 6288 02a8 D07990BD 		.word	-1114605104
 6289 02ac 43AADCBD 		.word	-1109611965
 6290 02b0 E13714BE 		.word	-1105971231
 6291 02b4 17D839BE 		.word	-1103505385
 6292 02b8 E0285FBE 		.word	-1101059872
 6293 02bc C60E82BE 		.word	-1098772794
 6294 02c0 D05494BE 		.word	-1097575216
 6295 02c4 6C60A6BE 		.word	-1096392596
 6296 02c8 972BB8BE 		.word	-1095226473
 6297 02cc 6FB0C9BE 		.word	-1094078353
 6298 02d0 2FE9DABE 		.word	-1092949713
 6299 02d4 39D0EBBE 		.word	-1091841991
 6300 02d8 1160FCBE 		.word	-1090756591
 6301 02dc B04906BF 		.word	-1090106960
 6302 02e0 7B320EBF 		.word	-1089588613
 6303 02e4 E6E715BF 		.word	-1089083418
 6304 02e8 81671DBF 		.word	-1088591999
 6305 02ec F3AE24BF 		.word	-1088114957
 6306 02f0 F7BB2BBF 		.word	-1087652873
 6307 02f4 5F8C32BF 		.word	-1087206305
 6308 02f8 141E39BF 		.word	-1086775788
 6309 02fc 156F3FBF 		.word	-1086361835
 6310 0300 797D45BF 		.word	-1085964935
 6311 0304 71474BBF 		.word	-1085585551
 6312 0308 43CB50BF 		.word	-1085224125
 6313 030c 500756BF 		.word	-1084881072
ARM GAS  /var/folders/z2/7_lhr9dn53s9tj4s0rwtyswm0000gn/T//ccJ9q3ms.s 			page 168


 6314 0310 11FA5ABF 		.word	-1084556783
 6315 0314 19A25FBF 		.word	-1084251623
 6316 0318 15FE63BF 		.word	-1083965931
 6317 031c CB0C68BF 		.word	-1083700021
 6318 0320 19CD6BBF 		.word	-1083454183
 6319 0324 FB3D6FBF 		.word	-1083228677
 6320 0328 865E72BF 		.word	-1083023738
 6321 032c E72D75BF 		.word	-1082839577
 6322 0330 68AB77BF 		.word	-1082676376
 6323 0334 6DD679BF 		.word	-1082534291
 6324 0338 74AE7BBF 		.word	-1082413452
 6325 033c 17337DBF 		.word	-1082313961
 6326 0340 08647EBF 		.word	-1082235896
 6327 0344 16417FBF 		.word	-1082179306
 6328 0348 29CA7FBF 		.word	-1082144215
 6329 034c 42FF7FBF 		.word	-1082130622
 6330 0350 80E07FBF 		.word	-1082138496
 6331 0354 186E7FBF 		.word	-1082167784
 6332 0358 5CA87EBF 		.word	-1082218404
 6333 035c B48F7DBF 		.word	-1082290252
 6334 0360 A4247CBF 		.word	-1082383196
 6335 0364 C9677ABF 		.word	-1082497079
 6336 0368 D75978BF 		.word	-1082631721
 6337 036c 9DFB75BF 		.word	-1082786915
 6338 0370 004E73BF 		.word	-1082962432
 6339 0374 FD5170BF 		.word	-1083158019
 6340 0378 AA086DBF 		.word	-1083373398
 6341 037c 317369BF 		.word	-1083608271
 6342 0380 D79265BF 		.word	-1083862313
 6343 0384 F46861BF 		.word	-1084135180
 6344 0388 F5F65CBF 		.word	-1084426507
 6345 038c 5E3E58BF 		.word	-1084735906
 6346 0390 C84053BF 		.word	-1085062968
 6347 0394 DFFF4DBF 		.word	-1085407265
 6348 0398 627D48BF 		.word	-1085768350
 6349 039c 26BB42BF 		.word	-1086145754
 6350 03a0 0FBB3CBF 		.word	-1086538993
 6351 03a4 157F36BF 		.word	-1086947563
 6352 03a8 410930BF 		.word	-1087370943
 6353 03ac AC5B29BF 		.word	-1087808596
 6354 03b0 807822BF 		.word	-1088259968
 6355 03b4 F5611BBF 		.word	-1088724491
 6356 03b8 551A14BF 		.word	-1089201579
 6357 03bc F3A30CBF 		.word	-1089690637
 6358 03c0 340105BF 		.word	-1090191052
 6359 03c4 0C69FABE 		.word	-1090885364
 6360 03c8 CD80EABE 		.word	-1091927859
 6361 03cc B74EDABE 		.word	-1092989257
 6362 03d0 EDD7C9BE 		.word	-1094068243
 6363 03d4 A621B9BE 		.word	-1095163482
 6364 03d8 2B31A8BE 		.word	-1096273621
 6365 03dc D30B97BE 		.word	-1097397293
 6366 03e0 08B785BE 		.word	-1098533112
 6367 03e4 7C7068BE 		.word	-1100451716
 6368 03e8 EE2945BE 		.word	-1102763538
 6369 03ec 7CA521BE 		.word	-1105091204
 6370 03f0 A1DCFBBD 		.word	-1107567455
ARM GAS  /var/folders/z2/7_lhr9dn53s9tj4s0rwtyswm0000gn/T//ccJ9q3ms.s 			page 169


 6371 03f4 421FB4BD 		.word	-1112268990
 6372 03f8 C15258BD 		.word	-1118285119
 6373 03fc 414690BC 		.word	-1131395519
 6374 0400 4146903C 		.word	1016088129
 6375 0404 C152583D 		.word	1029198529
 6376 0408 421FB43D 		.word	1035214658
 6377 040c A1DCFB3D 		.word	1039916193
 6378 0410 7CA5213E 		.word	1042392444
 6379 0414 EE29453E 		.word	1044720110
 6380 0418 7C70683E 		.word	1047031932
 6381 041c 08B7853E 		.word	1048950536
 6382 0420 D30B973E 		.word	1050086355
 6383 0424 2B31A83E 		.word	1051210027
 6384 0428 A621B93E 		.word	1052320166
 6385 042c EDD7C93E 		.word	1053415405
 6386 0430 B74EDA3E 		.word	1054494391
 6387 0434 CD80EA3E 		.word	1055555789
 6388 0438 0C69FA3E 		.word	1056598284
 6389 043c 3401053F 		.word	1057292596
 6390 0440 F3A30C3F 		.word	1057793011
 6391 0444 551A143F 		.word	1058282069
 6392 0448 F5611B3F 		.word	1058759157
 6393 044c 8078223F 		.word	1059223680
 6394 0450 AC5B293F 		.word	1059675052
 6395 0454 4109303F 		.word	1060112705
 6396 0458 157F363F 		.word	1060536085
 6397 045c 0FBB3C3F 		.word	1060944655
 6398 0460 26BB423F 		.word	1061337894
 6399 0464 627D483F 		.word	1061715298
 6400 0468 DFFF4D3F 		.word	1062076383
 6401 046c C840533F 		.word	1062420680
 6402 0470 5E3E583F 		.word	1062747742
 6403 0474 F5F65C3F 		.word	1063057141
 6404 0478 F468613F 		.word	1063348468
 6405 047c D792653F 		.word	1063621335
 6406 0480 3173693F 		.word	1063875377
 6407 0484 AA086D3F 		.word	1064110250
 6408 0488 FD51703F 		.word	1064325629
 6409 048c 004E733F 		.word	1064521216
 6410 0490 9DFB753F 		.word	1064696733
 6411 0494 D759783F 		.word	1064851927
 6412 0498 C9677A3F 		.word	1064986569
 6413 049c A4247C3F 		.word	1065100452
 6414 04a0 B48F7D3F 		.word	1065193396
 6415 04a4 5CA87E3F 		.word	1065265244
 6416 04a8 186E7F3F 		.word	1065315864
 6417 04ac 80E07F3F 		.word	1065345152
 6418 04b0 42FF7F3F 		.word	1065353026
 6419 04b4 29CA7F3F 		.word	1065339433
 6420 04b8 16417F3F 		.word	1065304342
 6421 04bc 08647E3F 		.word	1065247752
 6422 04c0 17337D3F 		.word	1065169687
 6423 04c4 74AE7B3F 		.word	1065070196
 6424 04c8 6DD6793F 		.word	1064949357
 6425 04cc 68AB773F 		.word	1064807272
 6426 04d0 E72D753F 		.word	1064644071
 6427 04d4 865E723F 		.word	1064459910
ARM GAS  /var/folders/z2/7_lhr9dn53s9tj4s0rwtyswm0000gn/T//ccJ9q3ms.s 			page 170


 6428 04d8 FB3D6F3F 		.word	1064254971
 6429 04dc 19CD6B3F 		.word	1064029465
 6430 04e0 CB0C683F 		.word	1063783627
 6431 04e4 15FE633F 		.word	1063517717
 6432 04e8 19A25F3F 		.word	1063232025
 6433 04ec 11FA5A3F 		.word	1062926865
 6434 04f0 5007563F 		.word	1062602576
 6435 04f4 43CB503F 		.word	1062259523
 6436 04f8 71474B3F 		.word	1061898097
 6437 04fc 797D453F 		.word	1061518713
 6438 0500 156F3F3F 		.word	1061121813
 6439 0504 141E393F 		.word	1060707860
 6440 0508 5F8C323F 		.word	1060277343
 6441 050c F7BB2B3F 		.word	1059830775
 6442 0510 F3AE243F 		.word	1059368691
 6443 0514 81671D3F 		.word	1058891649
 6444 0518 E6E7153F 		.word	1058400230
 6445 051c 7B320E3F 		.word	1057895035
 6446 0520 B049063F 		.word	1057376688
 6447 0524 1160FC3E 		.word	1056727057
 6448 0528 39D0EB3E 		.word	1055641657
 6449 052c 2FE9DA3E 		.word	1054533935
 6450 0530 6FB0C93E 		.word	1053405295
 6451 0534 972BB83E 		.word	1052257175
 6452 0538 6C60A63E 		.word	1051091052
 6453 053c D054943E 		.word	1049908432
 6454 0540 C60E823E 		.word	1048710854
 6455 0544 E0285F3E 		.word	1046423776
 6456 0548 17D8393E 		.word	1043978263
 6457 054c E137143E 		.word	1041512417
 6458 0550 43AADC3D 		.word	1037871683
 6459 0554 D079903D 		.word	1032878544
 6460 0558 C0F1073D 		.word	1023930816
 6461 055c 84DC8BBB 		.word	-1148461948
 6462 0560 3E1E2BBD 		.word	-1121247682
 6463 0564 DD5FA2BD 		.word	-1113432099
 6464 0568 8314EFBD 		.word	-1108405117
 6465 056c B4C81DBE 		.word	-1105344332
 6466 0570 5DDD43BE 		.word	-1102848675
 6467 0574 47BA69BE 		.word	-1100367289
 6468 0578 B8A887BE 		.word	-1098405704
 6469 057c 6B4A9ABE 		.word	-1097184661
 6470 0580 38BBACBE 		.word	-1095976136
 6471 0584 1EF4BEBE 		.word	-1094781922
 6472 0588 20EED0BE 		.word	-1093603808
 6473 058c 48A2E2BE 		.word	-1092443576
 6474 0590 A909F4BE 		.word	-1091302999
 6475 0594 B08E02BF 		.word	-1090351440
 6476 0598 4DEB0ABF 		.word	-1089803443
 6477 059c 4A1713BF 		.word	-1089267894
 6478 05a0 4E0F1BBF 		.word	-1088745650
 6479 05a4 0BD022BF 		.word	-1088237557
 6480 05a8 40562ABF 		.word	-1087744448
 6481 05ac B99E31BF 		.word	-1087267143
 6482 05b0 4FA638BF 		.word	-1086806449
 6483 05b4 ED693FBF 		.word	-1086363155
 6484 05b8 8DE645BF 		.word	-1085938035
ARM GAS  /var/folders/z2/7_lhr9dn53s9tj4s0rwtyswm0000gn/T//ccJ9q3ms.s 			page 171


 6485 05bc 3E194CBF 		.word	-1085531842
 6486 05c0 1FFF51BF 		.word	-1085145313
 6487 05c4 689557BF 		.word	-1084779160
 6488 05c8 65D95CBF 		.word	-1084434075
 6489 05cc 79C861BF 		.word	-1084110727
 6490 05d0 236066BF 		.word	-1083809757
 6491 05d4 F99D6ABF 		.word	-1083531783
 6492 05d8 AD7F6EBF 		.word	-1083277395
 6493 05dc 0F0372BF 		.word	-1083047153
 6494 05e0 0C2675BF 		.word	-1082841588
 6495 05e4 B1E677BF 		.word	-1082661199
 6496 05e8 2B437ABF 		.word	-1082506453
 6497 05ec C8397CBF 		.word	-1082377784
 6498 05f0 FAC87DBF 		.word	-1082275590
 6499 05f4 55EF7EBF 		.word	-1082200235
 6500 05f8 96AB7FBF 		.word	-1082152042
 6501 05fc 9DFC7FBF 		.word	-1082131299
 6502 0600 73E17FBF 		.word	-1082138253
 6503 0604 48597FBF 		.word	-1082173112
 6504 0608 78637EBF 		.word	-1082236040
 6505 060c 88FF7CBF 		.word	-1082327160
 6506 0610 282D7BBF 		.word	-1082446552
 6507 0614 37EC78BF 		.word	-1082594249
 6508 0618 BF3C76BF 		.word	-1082770241
 6509 061c F91E73BF 		.word	-1082974471
 6510 0620 4F936FBF 		.word	-1083206833
 6511 0624 599A6BBF 		.word	-1083467175
 6512 0628 E13467BF 		.word	-1083755295
 6513 062c E16362BF 		.word	-1084070943
 6514 0630 87285DBF 		.word	-1084413817
 6515 0634 328457BF 		.word	-1084783566
 6516 0638 757851BF 		.word	-1085179787
 6517 063c 17074BBF 		.word	-1085602025
 6518 0640 133244BF 		.word	-1086049773
 6519 0644 99FB3CBF 		.word	-1086522471
 6520 0648 0C6635BF 		.word	-1087019508
 6521 064c 05742DBF 		.word	-1087540219
 6522 0650 542825BF 		.word	-1088083884
 6523 0654 FC851CBF 		.word	-1088649732
 6524 0658 369013BF 		.word	-1089236938
 6525 065c 6F4A0ABF 		.word	-1089844625
 6526 0660 4BB800BF 		.word	-1090471861
 6527 0664 41BBEDBE 		.word	-1091716287
 6528 0668 F97CD9BE 		.word	-1093042951
 6529 066c 3DBEC4BE 		.word	-1094402499
 6530 0670 F387AFBE 		.word	-1095792653
 6531 0674 67E399BE 		.word	-1097211033
 6532 0678 49DA83BE 		.word	-1098655159
 6533 067c 53ED5ABE 		.word	-1101337261
 6534 0680 F8852DBE 		.word	-1104312840
 6535 0684 4028FFBD 		.word	-1107351488
 6536 0688 445CA2BD 		.word	-1113433020
 6537 068c 20AC09BD 		.word	-1123439584
 6538 0690 83D7493C 		.word	1011472259
 6539 0694 0C4C6F3D 		.word	1030704140
 6540 0698 3B39D63D 		.word	1037449531
 6541 069c B5601A3E 		.word	1041916085
ARM GAS  /var/folders/z2/7_lhr9dn53s9tj4s0rwtyswm0000gn/T//ccJ9q3ms.s 			page 172


 6542 06a0 2885493E 		.word	1045005608
 6543 06a4 4B6F783E 		.word	1048080203
 6544 06a8 FC81933E 		.word	1049854460
 6545 06ac C993AA3E 		.word	1051366345
 6546 06b0 0A5FC13E 		.word	1052860170
 6547 06b4 8BD5D73E 		.word	1054332299
 6548 06b8 F1E8ED3E 		.word	1055779057
 6549 06bc 5EC5013F 		.word	1057080670
 6550 06c0 27560C3F 		.word	1057773095
 6551 06c4 7A9F163F 		.word	1058447226
 6552 06c8 F699203F 		.word	1059101174
 6553 06cc 373E2A3F 		.word	1059733047
 6554 06d0 D784333F 		.word	1060340951
 6555 06d4 78663C3F 		.word	1060923000
 6556 06d8 C2DB443F 		.word	1061477314
 6557 06dc 6BDD4C3F 		.word	1062002027
 6558 06e0 3D64543F 		.word	1062495293
 6559 06e4 18695B3F 		.word	1062955288
 6560 06e8 F9E4613F 		.word	1063380217
 6561 06ec FDD0673F 		.word	1063768317
 6562 06f0 6D266D3F 		.word	1064117869
 6563 06f4 BBDE713F 		.word	1064427195
 6564 06f8 91F3753F 		.word	1064694673
 6565 06fc D05E793F 		.word	1064918736
 6566 0700 9C1A7C3F 		.word	1065097884
 6567 0704 60217E3F 		.word	1065230688
 6568 0708 D66D7F3F 		.word	1065315798
 6569 070c 0EFB7F3F 		.word	1065351950
 6570 0710 78C47F3F 		.word	1065337976
 6571 0714 EAC57E3F 		.word	1065272810
 6572 0718 A5FB7C3F 		.word	1065155493
 6573 071c 67627A3F 		.word	1064985191
 6574 0720 69F7763F 		.word	1064761193
 6575 0724 6FB8723F 		.word	1064482927
 6576 0728 D0A36D3F 		.word	1064149968
 6577 072c 80B8673F 		.word	1063762048
 6578 0730 19F6603F 		.word	1063319065
 6579 0734 E45C593F 		.word	1062821092
 6580 0738 E9ED503F 		.word	1062268393
 6581 073c F5AA473F 		.word	1061661429
 6582 0740 A9963D3F 		.word	1061000873
 6583 0744 83B4323F 		.word	1060287619
 6584 0748 EB08273F 		.word	1059522795
 6585 074c 41991A3F 		.word	1058707777
 6586 0750 E96B0D3F 		.word	1057844201
 6587 0754 AE10FF3E 		.word	1056903342
 6588 0758 3CEEE13E 		.word	1054993980
 6589 075c FF83C33E 		.word	1053000703
 6590 0760 ECE7A33E 		.word	1050929132
 6591 0764 8F32833E 		.word	1048785551
 6592 0768 50FE423E 		.word	1044577872
 6593 076c 1CAFFB3D 		.word	1039904540
 6594 0770 7DCB5C3D 		.word	1029491581
 6595 0774 673C85BC 		.word	-1132118937
 6596 0778 38D2B2BD 		.word	-1112354248
 6597 077c 83BC22BE 		.word	-1105019773
 6598 0780 7D456CBE 		.word	-1100200579
ARM GAS  /var/folders/z2/7_lhr9dn53s9tj4s0rwtyswm0000gn/T//ccJ9q3ms.s 			page 173


 6599 0784 42D09ABE 		.word	-1097150398
 6600 0788 4131BFBE 		.word	-1094766271
 6601 078c 430CE3BE 		.word	-1092416445
 6602 0790 DE1103BF 		.word	-1090317858
 6603 0794 F01A14BF 		.word	-1089201424
 6604 0798 3E7E24BF 		.word	-1088127426
 6605 079c 671634BF 		.word	-1087105433
 6606 07a0 A9BB42BF 		.word	-1086145623
 6607 07a4 CE4350BF 		.word	-1085258802
 6608 07a8 12825CBF 		.word	-1084456430
 6609 07ac 114767BF 		.word	-1083750639
 6610 07b0 A86070BF 		.word	-1083154264
 6611 07b4 E19977BF 		.word	-1082680863
 6612 07b8 DABA7CBF 		.word	-1082344742
 6613 07bc A7887FBF 		.word	-1082160985
 6614 07c0 3DC57FBF 		.word	-1082145475
 6615 07c4 562F7DBF 		.word	-1082314922
 6616 07c8 508277BF 		.word	-1082686896
 6617 07cc 19766EBF 		.word	-1083279847
 6618 07d0 0DBF61BF 		.word	-1084113139
 6619 07d4 DA0D51BF 		.word	-1085207078
 6620 07d8 630F3CBF 		.word	-1086582941
 6621 07dc 9F6C22BF 		.word	-1088263009
 6622 07e0 7BCA03BF 		.word	-1090270597
 6623 07e4 7A93BFBE 		.word	-1094741126
 6624 07e8 701B58BE 		.word	-1101522064
 6625 07ec C83CC3BC 		.word	-1128055608
 6626 07f0 94A6413E 		.word	1044489876
 6627 07f4 EEE9DB3E 		.word	1054599662
 6628 07f8 16FE323F 		.word	1060306454
 6629 07fc 0000803F 		.word	1065353216
 6630              		.section	.rodata._ZN7daisyspL3c10E,"a"
 6631              		.align	2
 6632              		.set	.LANCHOR17,. + 0
 6635              	_ZN7daisyspL3c10E:
 6636 0000 0000803F 		.word	1065353216
 6637 0004 661D223F 		.word	1059200358
 6638 0008 1674A03E 		.word	1050702870
 6639 000c 8FF6163D 		.word	1024915087
 6640 0010 07754CBE 		.word	-1102285561
 6641 0014 C276CCBE 		.word	-1093896510
 6642 0018 77AF10BF 		.word	-1089425545
 6643 001c 833333BF 		.word	-1087163517
 6644 0020 6C774EBF 		.word	-1085376660
 6645 0024 5E2163BF 		.word	-1084022434
 6646 0028 30CE71BF 		.word	-1083060688
 6647 002c BC117BBF 		.word	-1082453572
 6648 0030 40777FBF 		.word	-1082165440
 6649 0034 B2817FBF 		.word	-1082162766
 6650 0038 19AC7BBF 		.word	-1082414055
 6651 003c DC6974BF 		.word	-1082889764
 6652 0040 1A276ABF 		.word	-1083562214
 6653 0044 F1485DBF 		.word	-1084405519
 6654 0048 D22D4EBF 		.word	-1085395502
 6655 004c C32D3DBF 		.word	-1086509629
 6656 0050 AD9A2ABF 		.word	-1087726931
 6657 0054 9EC016BF 		.word	-1089027938
ARM GAS  /var/folders/z2/7_lhr9dn53s9tj4s0rwtyswm0000gn/T//ccJ9q3ms.s 			page 174


 6658 0058 10E601BF 		.word	-1090394608
 6659 005c 4D98D8BE 		.word	-1093101491
 6660 0060 DF5DACBE 		.word	-1096000033
 6661 0064 81167FBE 		.word	-1098967423
 6662 0068 4B0B25BE 		.word	-1104868533
 6663 006c E1A596BD 		.word	-1114200607
 6664 0070 92A6563C 		.word	1012311698
 6665 0074 E928C93D 		.word	1036593385
 6666 0078 EEA1393E 		.word	1043964398
 6667 007c EA0B863E 		.word	1048972266
 6668 0080 51C4AD3E 		.word	1051575377
 6669 0084 CDC9D33E 		.word	1054067149
 6670 0088 05F2F73E 		.word	1056436741
 6671 008c 290C0D3F 		.word	1057819689
 6672 0090 B40E1D3F 		.word	1058868916
 6673 0094 83F32B3F 		.word	1059844995
 6674 0098 D7AF393F 		.word	1060745175
 6675 009c 263B463F 		.word	1061567270
 6676 00a0 FE8E513F 		.word	1062309630
 6677 00a4 DEA65B3F 		.word	1062971102
 6678 00a8 1780643F 		.word	1063550999
 6679 00ac A7196C3F 		.word	1064049063
 6680 00b0 2374723F 		.word	1064465443
 6681 00b4 9091773F 		.word	1064800656
 6682 00b8 4D757B3F 		.word	1065055565
 6683 00bc F3237E3F 		.word	1065231347
 6684 00c0 40A37F3F 		.word	1065329472
 6685 00c4 F9F97F3F 		.word	1065351673
 6686 00c8 D72F7F3F 		.word	1065299927
 6687 00cc 6B4D7D3F 		.word	1065176427
 6688 00d0 0B5C7A3F 		.word	1064983563
 6689 00d4 BE65763F 		.word	1064723902
 6690 00d8 2775713F 		.word	1064400167
 6691 00dc 70956B3F 		.word	1064015216
 6692 00e0 3CD2643F 		.word	1063572028
 6693 00e4 93375D3F 		.word	1063073683
 6694 00e8 D2D1543F 		.word	1062523346
 6695 00ec 9FAD4B3F 		.word	1061924255
 6696 00f0 D3D7413F 		.word	1061279699
 6697 00f4 745D373F 		.word	1060593012
 6698 00f8 A44B2C3F 		.word	1059867556
 6699 00fc 93AF203F 		.word	1059106707
 6700 0100 7A96143F 		.word	1058313850
 6701 0104 870D083F 		.word	1057492359
 6702 0108 B443F63E 		.word	1056326580
 6703 010c F0C0DB3E 		.word	1054589168
 6704 0110 88ACC03E 		.word	1052814472
 6705 0114 E61FA53E 		.word	1051008998
 6706 0118 1134893E 		.word	1049179153
 6707 011c 33035A3E 		.word	1046086451
 6708 0120 1B41213E 		.word	1042366747
 6709 0124 ADA1D03D 		.word	1037083053
 6710 0128 C1803D3D 		.word	1027440833
 6711 012c 9C4516BC 		.word	-1139391076
 6712 0130 47A383BD 		.word	-1115446457
 6713 0134 EF7BF3BD 		.word	-1108116497
 6714 0138 1C0131BE 		.word	-1104084708
ARM GAS  /var/folders/z2/7_lhr9dn53s9tj4s0rwtyswm0000gn/T//ccJ9q3ms.s 			page 175


 6715 013c 617467BE 		.word	-1100516255
 6716 0140 57798EBE 		.word	-1097959081
 6717 0144 45ACA8BE 		.word	-1096242107
 6718 0148 1342C2BE 		.word	-1094565357
 6719 014c B12ADBBE 		.word	-1092932943
 6720 0150 EC56F3BE 		.word	-1091348756
 6721 0154 385C05BF 		.word	-1090167752
 6722 0158 E2A010BF 		.word	-1089429278
 6723 015c 2B731BBF 		.word	-1088720085
 6724 0160 3ACD25BF 		.word	-1088041670
 6725 0164 A6A92FBF 		.word	-1087395418
 6726 0168 780339BF 		.word	-1086782600
 6727 016c 29D641BF 		.word	-1086204375
 6728 0170 A11D4ABF 		.word	-1085661791
 6729 0174 37D651BF 		.word	-1085155785
 6730 0178 B2FC58BF 		.word	-1084687182
 6731 017c 438E5FBF 		.word	-1084256701
 6732 0180 858865BF 		.word	-1083864955
 6733 0184 81E96ABF 		.word	-1083512447
 6734 0188 A3AF6FBF 		.word	-1083199581
 6735 018c C0D973BF 		.word	-1082926656
 6736 0190 0D6777BF 		.word	-1082693875
 6737 0194 25577ABF 		.word	-1082501339
 6738 0198 FDA97CBF 		.word	-1082349059
 6739 019c EC5F7EBF 		.word	-1082236948
 6740 01a0 9D797FBF 		.word	-1082164835
 6741 01a4 18F87FBF 		.word	-1082132456
 6742 01a8 B7DC7FBF 		.word	-1082139465
 6743 01ac 25297FBF 		.word	-1082185435
 6744 01b0 5FDF7DBF 		.word	-1082269857
 6745 01b4 AA017CBF 		.word	-1082392150
 6746 01b8 989279BF 		.word	-1082551656
 6747 01bc FD9476BF 		.word	-1082747651
 6748 01c0 F40B73BF 		.word	-1082979340
 6749 01c4 D6FA6EBF 		.word	-1083245866
 6750 01c8 36656ABF 		.word	-1083546314
 6751 01cc E54E65BF 		.word	-1083879707
 6752 01d0 E7BB5FBF 		.word	-1084245017
 6753 01d4 74B059BF 		.word	-1084641164
 6754 01d8 F43053BF 		.word	-1085067020
 6755 01dc FC414CBF 		.word	-1085521412
 6756 01e0 48E844BF 		.word	-1086003128
 6757 01e4 BE283DBF 		.word	-1086510914
 6758 01e8 640835BF 		.word	-1087043484
 6759 01ec 608C2CBF 		.word	-1087599520
 6760 01f0 F7B923BF 		.word	-1088177673
 6761 01f4 86961ABF 		.word	-1088776570
 6762 01f8 7F2711BF 		.word	-1089394817
 6763 01fc 6B7207BF 		.word	-1090030997
 6764 0200 C3F9FABE 		.word	-1090848317
 6765 0204 0D99E6BE 		.word	-1092183795
 6766 0208 15CED1BE 		.word	-1093546475
 6767 020c 4BA4BCBE 		.word	-1094933429
 6768 0210 2627A7BE 		.word	-1096341722
 6769 0214 256291BE 		.word	-1097768411
 6770 0218 89C176BE 		.word	-1099513463
 6771 021c F35C4ABE 		.word	-1102422797
ARM GAS  /var/folders/z2/7_lhr9dn53s9tj4s0rwtyswm0000gn/T//ccJ9q3ms.s 			page 176


 6772 0220 5FAD1DBE 		.word	-1105351329
 6773 0224 0593E1BD 		.word	-1109290235
 6774 0228 CC8F87BD 		.word	-1115189300
 6775 022c FCF6B5BC 		.word	-1128925444
 6776 0230 BFDBB13C 		.word	1018289087
 6777 0234 9C22863D 		.word	1032200860
 6778 0238 405ADF3D 		.word	1038047808
 6779 023c C2F91B3E 		.word	1042020802
 6780 0240 66E2473E 		.word	1044898406
 6781 0244 A852733E 		.word	1047745192
 6782 0248 481B8F3E 		.word	1049566024
 6783 024c 4E3DA43E 		.word	1050950990
 6784 0250 E405B93E 		.word	1052313060
 6785 0254 C96BCD3E 		.word	1053649865
 6786 0258 FF65E13E 		.word	1054959103
 6787 025c D1EBF43E 		.word	1056238545
 6788 0260 6BFA033F 		.word	1057225323
 6789 0264 763C0D3F 		.word	1057832054
 6790 0268 2338163F 		.word	1058420771
 6791 026c B4E91E3F 		.word	1058990516
 6792 0270 924D273F 		.word	1059540370
 6793 0274 55602F3F 		.word	1060069461
 6794 0278 BC1E373F 		.word	1060576956
 6795 027c B6853E3F 		.word	1061062070
 6796 0280 5E92453F 		.word	1061524062
 6797 0284 FC414C3F 		.word	1061962236
 6798 0288 0992523F 		.word	1062375945
 6799 028c 2980583F 		.word	1062764585
 6800 0290 330A5E3F 		.word	1063127603
 6801 0294 2C2E633F 		.word	1063464492
 6802 0298 49EA673F 		.word	1063774793
 6803 029c EF3C6C3F 		.word	1064058095
 6804 02a0 B424703F 		.word	1064314036
 6805 02a4 5DA0733F 		.word	1064542301
 6806 02a8 E2AE763F 		.word	1064742626
 6807 02ac 684F793F 		.word	1064914792
 6808 02b0 46817B3F 		.word	1065058630
 6809 02b4 01447D3F 		.word	1065174017
 6810 02b8 51977E3F 		.word	1065260881
 6811 02bc 1A7B7F3F 		.word	1065319194
 6812 02c0 6FEF7F3F 		.word	1065348975
 6813 02c4 94F47F3F 		.word	1065350292
 6814 02c8 F78A7F3F 		.word	1065323255
 6815 02cc 35B37E3F 		.word	1065268021
 6816 02d0 196E7D3F 		.word	1065184793
 6817 02d4 96BC7B3F 		.word	1065073814
 6818 02d8 CE9F793F 		.word	1064935374
 6819 02dc 0C19773F 		.word	1064769804
 6820 02e0 C129743F 		.word	1064577473
 6821 02e4 8CD3703F 		.word	1064358796
 6822 02e8 30186D3F 		.word	1064114224
 6823 02ec 96F9683F 		.word	1063844246
 6824 02f0 CE79643F 		.word	1063549390
 6825 02f4 0D9B5F3F 		.word	1063230221
 6826 02f8 A95F5A3F 		.word	1062887337
 6827 02fc 1BCA543F 		.word	1062521371
 6828 0300 FEDC4E3F 		.word	1062132990
ARM GAS  /var/folders/z2/7_lhr9dn53s9tj4s0rwtyswm0000gn/T//ccJ9q3ms.s 			page 177


 6829 0304 0B9B483F 		.word	1061722891
 6830 0308 1907423F 		.word	1061291801
 6831 030c 1F243B3F 		.word	1060840479
 6832 0310 2CF5333F 		.word	1060369708
 6833 0314 6C7D2C3F 		.word	1059880300
 6834 0318 22C0243F 		.word	1059373090
 6835 031c ABC01C3F 		.word	1058848939
 6836 0320 7982143F 		.word	1058308729
 6837 0324 11090C3F 		.word	1057753361
 6838 0328 0F58033F 		.word	1057183759
 6839 032c 3BE6F43E 		.word	1056237115
 6840 0330 F2BBE23E 		.word	1055046642
 6841 0334 DA38D03E 		.word	1053833434
 6842 0338 A364BD3E 		.word	1052599459
 6843 033c 1747AA3E 		.word	1051346711
 6844 0340 14E8963E 		.word	1050077204
 6845 0344 884F833E 		.word	1048792968
 6846 0348 E30A5F3E 		.word	1046416099
 6847 034c B723373E 		.word	1043801015
 6848 0350 AFF90E3E 		.word	1041168815
 6849 0354 FA39CD3D 		.word	1036859898
 6850 0358 5D77783D 		.word	1031305053
 6851 035c 9563AC3C 		.word	1017930645
 6852 0360 0C3898BC 		.word	-1130874868
 6853 0364 8A316EBD 		.word	-1116851830
 6854 0368 40E7C7BD 		.word	-1110972608
 6855 036c C12C0CBE 		.word	-1106498367
 6856 0370 EB2734BE 		.word	-1103878165
 6857 0374 66D55BBE 		.word	-1101277850
 6858 0378 D29281BE 		.word	-1098804526
 6859 037c A30495BE 		.word	-1097530205
 6860 0380 8E38A8BE 		.word	-1096271730
 6861 0384 1B27BBBE 		.word	-1095031013
 6862 0388 EFC8CDBE 		.word	-1093809937
 6863 038c D216E0BE 		.word	-1092610350
 6864 0390 AE09F2BE 		.word	-1091434066
 6865 0394 4BCD01BF 		.word	-1090400949
 6866 0398 63610ABF 		.word	-1089838749
 6867 039c D1BD12BF 		.word	-1089290799
 6868 03a0 60DF1ABF 		.word	-1088757920
 6869 03a4 F2C222BF 		.word	-1088240910
 6870 03a8 82652ABF 		.word	-1087740542
 6871 03ac 25C431BF 		.word	-1087257563
 6872 03b0 0ADC38BF 		.word	-1086792694
 6873 03b4 7EAA3FBF 		.word	-1086346626
 6874 03b8 E92C46BF 		.word	-1085920023
 6875 03bc D1604CBF 		.word	-1085513519
 6876 03c0 DB4352BF 		.word	-1085127717
 6877 03c4 CCD357BF 		.word	-1084763188
 6878 03c8 870E5DBF 		.word	-1084420473
 6879 03cc 12F261BF 		.word	-1084100078
 6880 03d0 937C66BF 		.word	-1083802477
 6881 03d4 52AC6ABF 		.word	-1083528110
 6882 03d8 BB7F6EBF 		.word	-1083277381
 6883 03dc 5CF571BF 		.word	-1083050660
 6884 03e0 E60B75BF 		.word	-1082848282
 6885 03e4 2FC277BF 		.word	-1082670545
ARM GAS  /var/folders/z2/7_lhr9dn53s9tj4s0rwtyswm0000gn/T//ccJ9q3ms.s 			page 178


 6886 03e8 32177ABF 		.word	-1082517710
 6887 03ec 0E0A7CBF 		.word	-1082390002
 6888 03f0 069A7DBF 		.word	-1082287610
 6889 03f4 84C67EBF 		.word	-1082210684
 6890 03f8 178F7FBF 		.word	-1082159337
 6891 03fc 74F37FBF 		.word	-1082133644
 6892 0400 74F37FBF 		.word	-1082133644
 6893 0404 178F7FBF 		.word	-1082159337
 6894 0408 84C67EBF 		.word	-1082210684
 6895 040c 069A7DBF 		.word	-1082287610
 6896 0410 0E0A7CBF 		.word	-1082390002
 6897 0414 32177ABF 		.word	-1082517710
 6898 0418 2FC277BF 		.word	-1082670545
 6899 041c E60B75BF 		.word	-1082848282
 6900 0420 5CF571BF 		.word	-1083050660
 6901 0424 BB7F6EBF 		.word	-1083277381
 6902 0428 52AC6ABF 		.word	-1083528110
 6903 042c 937C66BF 		.word	-1083802477
 6904 0430 12F261BF 		.word	-1084100078
 6905 0434 870E5DBF 		.word	-1084420473
 6906 0438 CCD357BF 		.word	-1084763188
 6907 043c DB4352BF 		.word	-1085127717
 6908 0440 D1604CBF 		.word	-1085513519
 6909 0444 E92C46BF 		.word	-1085920023
 6910 0448 7EAA3FBF 		.word	-1086346626
 6911 044c 0ADC38BF 		.word	-1086792694
 6912 0450 25C431BF 		.word	-1087257563
 6913 0454 82652ABF 		.word	-1087740542
 6914 0458 F2C222BF 		.word	-1088240910
 6915 045c 60DF1ABF 		.word	-1088757920
 6916 0460 D1BD12BF 		.word	-1089290799
 6917 0464 63610ABF 		.word	-1089838749
 6918 0468 4BCD01BF 		.word	-1090400949
 6919 046c AE09F2BE 		.word	-1091434066
 6920 0470 D216E0BE 		.word	-1092610350
 6921 0474 EFC8CDBE 		.word	-1093809937
 6922 0478 1B27BBBE 		.word	-1095031013
 6923 047c 8E38A8BE 		.word	-1096271730
 6924 0480 A30495BE 		.word	-1097530205
 6925 0484 D29281BE 		.word	-1098804526
 6926 0488 66D55BBE 		.word	-1101277850
 6927 048c EB2734BE 		.word	-1103878165
 6928 0490 C12C0CBE 		.word	-1106498367
 6929 0494 40E7C7BD 		.word	-1110972608
 6930 0498 8A316EBD 		.word	-1116851830
 6931 049c 0C3898BC 		.word	-1130874868
 6932 04a0 9563AC3C 		.word	1017930645
 6933 04a4 5D77783D 		.word	1031305053
 6934 04a8 FA39CD3D 		.word	1036859898
 6935 04ac AFF90E3E 		.word	1041168815
 6936 04b0 B723373E 		.word	1043801015
 6937 04b4 E30A5F3E 		.word	1046416099
 6938 04b8 884F833E 		.word	1048792968
 6939 04bc 14E8963E 		.word	1050077204
 6940 04c0 1747AA3E 		.word	1051346711
 6941 04c4 A364BD3E 		.word	1052599459
 6942 04c8 DA38D03E 		.word	1053833434
ARM GAS  /var/folders/z2/7_lhr9dn53s9tj4s0rwtyswm0000gn/T//ccJ9q3ms.s 			page 179


 6943 04cc F2BBE23E 		.word	1055046642
 6944 04d0 3BE6F43E 		.word	1056237115
 6945 04d4 0F58033F 		.word	1057183759
 6946 04d8 11090C3F 		.word	1057753361
 6947 04dc 7982143F 		.word	1058308729
 6948 04e0 ABC01C3F 		.word	1058848939
 6949 04e4 22C0243F 		.word	1059373090
 6950 04e8 6C7D2C3F 		.word	1059880300
 6951 04ec 2CF5333F 		.word	1060369708
 6952 04f0 1F243B3F 		.word	1060840479
 6953 04f4 1907423F 		.word	1061291801
 6954 04f8 0B9B483F 		.word	1061722891
 6955 04fc FEDC4E3F 		.word	1062132990
 6956 0500 1BCA543F 		.word	1062521371
 6957 0504 A95F5A3F 		.word	1062887337
 6958 0508 0D9B5F3F 		.word	1063230221
 6959 050c CE79643F 		.word	1063549390
 6960 0510 96F9683F 		.word	1063844246
 6961 0514 30186D3F 		.word	1064114224
 6962 0518 8CD3703F 		.word	1064358796
 6963 051c C129743F 		.word	1064577473
 6964 0520 0C19773F 		.word	1064769804
 6965 0524 CE9F793F 		.word	1064935374
 6966 0528 96BC7B3F 		.word	1065073814
 6967 052c 196E7D3F 		.word	1065184793
 6968 0530 35B37E3F 		.word	1065268021
 6969 0534 F78A7F3F 		.word	1065323255
 6970 0538 94F47F3F 		.word	1065350292
 6971 053c 6FEF7F3F 		.word	1065348975
 6972 0540 1A7B7F3F 		.word	1065319194
 6973 0544 51977E3F 		.word	1065260881
 6974 0548 01447D3F 		.word	1065174017
 6975 054c 46817B3F 		.word	1065058630
 6976 0550 684F793F 		.word	1064914792
 6977 0554 E2AE763F 		.word	1064742626
 6978 0558 5DA0733F 		.word	1064542301
 6979 055c B424703F 		.word	1064314036
 6980 0560 EF3C6C3F 		.word	1064058095
 6981 0564 49EA673F 		.word	1063774793
 6982 0568 2C2E633F 		.word	1063464492
 6983 056c 330A5E3F 		.word	1063127603
 6984 0570 2980583F 		.word	1062764585
 6985 0574 0992523F 		.word	1062375945
 6986 0578 FC414C3F 		.word	1061962236
 6987 057c 5E92453F 		.word	1061524062
 6988 0580 B6853E3F 		.word	1061062070
 6989 0584 BC1E373F 		.word	1060576956
 6990 0588 55602F3F 		.word	1060069461
 6991 058c 924D273F 		.word	1059540370
 6992 0590 B4E91E3F 		.word	1058990516
 6993 0594 2338163F 		.word	1058420771
 6994 0598 763C0D3F 		.word	1057832054
 6995 059c 6BFA033F 		.word	1057225323
 6996 05a0 D1EBF43E 		.word	1056238545
 6997 05a4 FF65E13E 		.word	1054959103
 6998 05a8 C96BCD3E 		.word	1053649865
 6999 05ac E405B93E 		.word	1052313060
ARM GAS  /var/folders/z2/7_lhr9dn53s9tj4s0rwtyswm0000gn/T//ccJ9q3ms.s 			page 180


 7000 05b0 4E3DA43E 		.word	1050950990
 7001 05b4 481B8F3E 		.word	1049566024
 7002 05b8 A852733E 		.word	1047745192
 7003 05bc 66E2473E 		.word	1044898406
 7004 05c0 C2F91B3E 		.word	1042020802
 7005 05c4 405ADF3D 		.word	1038047808
 7006 05c8 9C22863D 		.word	1032200860
 7007 05cc BFDBB13C 		.word	1018289087
 7008 05d0 FCF6B5BC 		.word	-1128925444
 7009 05d4 CC8F87BD 		.word	-1115189300
 7010 05d8 0593E1BD 		.word	-1109290235
 7011 05dc 5FAD1DBE 		.word	-1105351329
 7012 05e0 F35C4ABE 		.word	-1102422797
 7013 05e4 89C176BE 		.word	-1099513463
 7014 05e8 256291BE 		.word	-1097768411
 7015 05ec 2627A7BE 		.word	-1096341722
 7016 05f0 4BA4BCBE 		.word	-1094933429
 7017 05f4 15CED1BE 		.word	-1093546475
 7018 05f8 0D99E6BE 		.word	-1092183795
 7019 05fc C3F9FABE 		.word	-1090848317
 7020 0600 6B7207BF 		.word	-1090030997
 7021 0604 7F2711BF 		.word	-1089394817
 7022 0608 86961ABF 		.word	-1088776570
 7023 060c F7B923BF 		.word	-1088177673
 7024 0610 608C2CBF 		.word	-1087599520
 7025 0614 640835BF 		.word	-1087043484
 7026 0618 BE283DBF 		.word	-1086510914
 7027 061c 48E844BF 		.word	-1086003128
 7028 0620 FC414CBF 		.word	-1085521412
 7029 0624 F43053BF 		.word	-1085067020
 7030 0628 74B059BF 		.word	-1084641164
 7031 062c E7BB5FBF 		.word	-1084245017
 7032 0630 E54E65BF 		.word	-1083879707
 7033 0634 36656ABF 		.word	-1083546314
 7034 0638 D6FA6EBF 		.word	-1083245866
 7035 063c F40B73BF 		.word	-1082979340
 7036 0640 FD9476BF 		.word	-1082747651
 7037 0644 989279BF 		.word	-1082551656
 7038 0648 AA017CBF 		.word	-1082392150
 7039 064c 5FDF7DBF 		.word	-1082269857
 7040 0650 25297FBF 		.word	-1082185435
 7041 0654 B7DC7FBF 		.word	-1082139465
 7042 0658 18F87FBF 		.word	-1082132456
 7043 065c 9D797FBF 		.word	-1082164835
 7044 0660 EC5F7EBF 		.word	-1082236948
 7045 0664 FDA97CBF 		.word	-1082349059
 7046 0668 25577ABF 		.word	-1082501339
 7047 066c 0D6777BF 		.word	-1082693875
 7048 0670 C0D973BF 		.word	-1082926656
 7049 0674 A3AF6FBF 		.word	-1083199581
 7050 0678 81E96ABF 		.word	-1083512447
 7051 067c 858865BF 		.word	-1083864955
 7052 0680 438E5FBF 		.word	-1084256701
 7053 0684 B2FC58BF 		.word	-1084687182
 7054 0688 37D651BF 		.word	-1085155785
 7055 068c A11D4ABF 		.word	-1085661791
 7056 0690 29D641BF 		.word	-1086204375
ARM GAS  /var/folders/z2/7_lhr9dn53s9tj4s0rwtyswm0000gn/T//ccJ9q3ms.s 			page 181


 7057 0694 780339BF 		.word	-1086782600
 7058 0698 A6A92FBF 		.word	-1087395418
 7059 069c 3ACD25BF 		.word	-1088041670
 7060 06a0 2B731BBF 		.word	-1088720085
 7061 06a4 E2A010BF 		.word	-1089429278
 7062 06a8 385C05BF 		.word	-1090167752
 7063 06ac EC56F3BE 		.word	-1091348756
 7064 06b0 B12ADBBE 		.word	-1092932943
 7065 06b4 1342C2BE 		.word	-1094565357
 7066 06b8 45ACA8BE 		.word	-1096242107
 7067 06bc 57798EBE 		.word	-1097959081
 7068 06c0 617467BE 		.word	-1100516255
 7069 06c4 1C0131BE 		.word	-1104084708
 7070 06c8 EF7BF3BD 		.word	-1108116497
 7071 06cc 47A383BD 		.word	-1115446457
 7072 06d0 9C4516BC 		.word	-1139391076
 7073 06d4 C1803D3D 		.word	1027440833
 7074 06d8 ADA1D03D 		.word	1037083053
 7075 06dc 1B41213E 		.word	1042366747
 7076 06e0 33035A3E 		.word	1046086451
 7077 06e4 1134893E 		.word	1049179153
 7078 06e8 E61FA53E 		.word	1051008998
 7079 06ec 88ACC03E 		.word	1052814472
 7080 06f0 F0C0DB3E 		.word	1054589168
 7081 06f4 B443F63E 		.word	1056326580
 7082 06f8 870D083F 		.word	1057492359
 7083 06fc 7A96143F 		.word	1058313850
 7084 0700 93AF203F 		.word	1059106707
 7085 0704 A44B2C3F 		.word	1059867556
 7086 0708 745D373F 		.word	1060593012
 7087 070c D3D7413F 		.word	1061279699
 7088 0710 9FAD4B3F 		.word	1061924255
 7089 0714 D2D1543F 		.word	1062523346
 7090 0718 93375D3F 		.word	1063073683
 7091 071c 3CD2643F 		.word	1063572028
 7092 0720 70956B3F 		.word	1064015216
 7093 0724 2775713F 		.word	1064400167
 7094 0728 BE65763F 		.word	1064723902
 7095 072c 0B5C7A3F 		.word	1064983563
 7096 0730 6B4D7D3F 		.word	1065176427
 7097 0734 D72F7F3F 		.word	1065299927
 7098 0738 F9F97F3F 		.word	1065351673
 7099 073c 40A37F3F 		.word	1065329472
 7100 0740 F3237E3F 		.word	1065231347
 7101 0744 4D757B3F 		.word	1065055565
 7102 0748 9091773F 		.word	1064800656
 7103 074c 2374723F 		.word	1064465443
 7104 0750 A7196C3F 		.word	1064049063
 7105 0754 1780643F 		.word	1063550999
 7106 0758 DEA65B3F 		.word	1062971102
 7107 075c FE8E513F 		.word	1062309630
 7108 0760 263B463F 		.word	1061567270
 7109 0764 D7AF393F 		.word	1060745175
 7110 0768 83F32B3F 		.word	1059844995
 7111 076c B40E1D3F 		.word	1058868916
 7112 0770 290C0D3F 		.word	1057819689
 7113 0774 05F2F73E 		.word	1056436741
ARM GAS  /var/folders/z2/7_lhr9dn53s9tj4s0rwtyswm0000gn/T//ccJ9q3ms.s 			page 182


 7114 0778 CDC9D33E 		.word	1054067149
 7115 077c 51C4AD3E 		.word	1051575377
 7116 0780 EA0B863E 		.word	1048972266
 7117 0784 EEA1393E 		.word	1043964398
 7118 0788 E928C93D 		.word	1036593385
 7119 078c 92A6563C 		.word	1012311698
 7120 0790 E1A596BD 		.word	-1114200607
 7121 0794 4B0B25BE 		.word	-1104868533
 7122 0798 81167FBE 		.word	-1098967423
 7123 079c DF5DACBE 		.word	-1096000033
 7124 07a0 4D98D8BE 		.word	-1093101491
 7125 07a4 10E601BF 		.word	-1090394608
 7126 07a8 9EC016BF 		.word	-1089027938
 7127 07ac AD9A2ABF 		.word	-1087726931
 7128 07b0 C32D3DBF 		.word	-1086509629
 7129 07b4 D22D4EBF 		.word	-1085395502
 7130 07b8 F1485DBF 		.word	-1084405519
 7131 07bc 1A276ABF 		.word	-1083562214
 7132 07c0 DC6974BF 		.word	-1082889764
 7133 07c4 19AC7BBF 		.word	-1082414055
 7134 07c8 B2817FBF 		.word	-1082162766
 7135 07cc 40777FBF 		.word	-1082165440
 7136 07d0 BC117BBF 		.word	-1082453572
 7137 07d4 30CE71BF 		.word	-1083060688
 7138 07d8 5E2163BF 		.word	-1084022434
 7139 07dc 6C774EBF 		.word	-1085376660
 7140 07e0 833333BF 		.word	-1087163517
 7141 07e4 77AF10BF 		.word	-1089425545
 7142 07e8 C276CCBE 		.word	-1093896510
 7143 07ec 07754CBE 		.word	-1102285561
 7144 07f0 8FF6163D 		.word	1024915087
 7145 07f4 1674A03E 		.word	1050702870
 7146 07f8 661D223F 		.word	1059200358
 7147 07fc 0000803F 		.word	1065353216
 7148              		.text
 7149              	.Letext0:
 7150              		.file 23 "/Applications/ARM/arm-none-eabi/include/machine/_default_types.h"
 7151              		.file 24 "/Applications/ARM/arm-none-eabi/include/sys/_stdint.h"
 7152              		.file 25 "/Applications/ARM/arm-none-eabi/include/stdint.h"
 7153              		.file 26 "/Applications/ARM/lib/gcc/arm-none-eabi/10.3.1/include/stddef.h"
 7154              		.file 27 "/Applications/ARM/arm-none-eabi/include/c++/10.3.1/bits/std_abs.h"
 7155              		.file 28 "/Applications/ARM/arm-none-eabi/include/c++/10.3.1/cstdlib"
 7156              		.file 29 "/Applications/ARM/arm-none-eabi/include/c++/10.3.1/cstdint"
 7157              		.file 30 "/Applications/ARM/arm-none-eabi/include/c++/10.3.1/arm-none-eabi/thumb/v7e-m+dp/hard/bit
 7158              		.file 31 "/Applications/ARM/arm-none-eabi/include/c++/10.3.1/type_traits"
 7159              		.file 32 "/Applications/ARM/arm-none-eabi/include/c++/10.3.1/debug/debug.h"
 7160              		.file 33 "/Applications/ARM/arm-none-eabi/include/c++/10.3.1/bits/algorithmfwd.h"
 7161              		.file 34 "/Applications/ARM/arm-none-eabi/include/c++/10.3.1/bits/stl_pair.h"
 7162              		.file 35 "/Applications/ARM/arm-none-eabi/include/c++/10.3.1/bits/exception_ptr.h"
 7163              		.file 36 "/Applications/ARM/arm-none-eabi/include/c++/10.3.1/cstdarg"
 7164              		.file 37 "/Applications/ARM/arm-none-eabi/include/c++/10.3.1/cstdio"
 7165              		.file 38 "/Applications/ARM/arm-none-eabi/include/c++/10.3.1/cstring"
 7166              		.file 39 "/Applications/ARM/arm-none-eabi/include/c++/10.3.1/cwchar"
 7167              		.file 40 "/Applications/ARM/arm-none-eabi/include/c++/10.3.1/clocale"
 7168              		.file 41 "/Applications/ARM/arm-none-eabi/include/c++/10.3.1/bits/basic_string.h"
 7169              		.file 42 "/Applications/ARM/arm-none-eabi/include/c++/10.3.1/bits/stl_iterator.h"
 7170              		.file 43 "/Applications/ARM/arm-none-eabi/include/c++/10.3.1/bits/predefined_ops.h"
ARM GAS  /var/folders/z2/7_lhr9dn53s9tj4s0rwtyswm0000gn/T//ccJ9q3ms.s 			page 183


 7171              		.file 44 "/Applications/ARM/arm-none-eabi/include/sys/_types.h"
 7172              		.file 45 "/Applications/ARM/arm-none-eabi/include/sys/reent.h"
 7173              		.file 46 "/Applications/ARM/arm-none-eabi/include/sys/lock.h"
 7174              		.file 47 "/Applications/ARM/arm-none-eabi/include/math.h"
 7175              		.file 48 "/Applications/ARM/arm-none-eabi/include/stdlib.h"
 7176              		.file 49 "/Applications/ARM/arm-none-eabi/include/c++/10.3.1/math.h"
 7177              		.file 50 "/Applications/ARM/arm-none-eabi/include/c++/10.3.1/stdlib.h"
 7178              		.file 51 "../../libDaisy//src/daisy_core.h"
 7179              		.file 52 "../../libDaisy//src/per/tim.h"
 7180              		.file 53 "../../libDaisy//src/util/wav_format.h"
 7181              		.file 54 "../../libDaisy//src/util/color.h"
 7182              		.file 55 "../../libDaisy//src/dev/max11300.h"
 7183              		.file 56 "../../libDaisy//src/per/gpio.h"
 7184              		.file 57 "../../libDaisy//src/dev/sdram.h"
 7185              		.file 58 "/Applications/ARM/lib/gcc/arm-none-eabi/10.3.1/include/stdarg.h"
 7186              		.file 59 "/Applications/ARM/arm-none-eabi/include/stdio.h"
 7187              		.file 60 "/Applications/ARM/arm-none-eabi/include/string.h"
 7188              		.file 61 "../..//DaisySP//Source/Control/adenv.h"
 7189              		.file 62 "/Applications/ARM/arm-none-eabi/include/wchar.h"
 7190              		.file 63 "/Applications/ARM/arm-none-eabi/include/locale.h"
 7191              		.file 64 "<built-in>"
 7192              		.file 65 "../../libDaisy//src/dev/sr_595.h"
ARM GAS  /var/folders/z2/7_lhr9dn53s9tj4s0rwtyswm0000gn/T//ccJ9q3ms.s 			page 184


DEFINED SYMBOLS
                            *ABS*:0000000000000000 chebyshev.cpp
/var/folders/z2/7_lhr9dn53s9tj4s0rwtyswm0000gn/T//ccJ9q3ms.s:19     .text._ZN5daisy10TusenskonaD2Ev:0000000000000000 $t
/var/folders/z2/7_lhr9dn53s9tj4s0rwtyswm0000gn/T//ccJ9q3ms.s:26     .text._ZN5daisy10TusenskonaD2Ev:0000000000000000 _ZN5daisy10TusenskonaD2Ev
/var/folders/z2/7_lhr9dn53s9tj4s0rwtyswm0000gn/T//ccJ9q3ms.s:26     .text._ZN5daisy10TusenskonaD2Ev:0000000000000000 _ZN5daisy10TusenskonaD1Ev
/var/folders/z2/7_lhr9dn53s9tj4s0rwtyswm0000gn/T//ccJ9q3ms.s:135    .text._ZN7daisysp10OscillatorD2Ev:0000000000000000 $t
/var/folders/z2/7_lhr9dn53s9tj4s0rwtyswm0000gn/T//ccJ9q3ms.s:142    .text._ZN7daisysp10OscillatorD2Ev:0000000000000000 _ZN7daisysp10OscillatorD2Ev
/var/folders/z2/7_lhr9dn53s9tj4s0rwtyswm0000gn/T//ccJ9q3ms.s:142    .text._ZN7daisysp10OscillatorD2Ev:0000000000000000 _ZN7daisysp10OscillatorD1Ev
/var/folders/z2/7_lhr9dn53s9tj4s0rwtyswm0000gn/T//ccJ9q3ms.s:159    .text._Z14UpdateControlsv:0000000000000000 $t
/var/folders/z2/7_lhr9dn53s9tj4s0rwtyswm0000gn/T//ccJ9q3ms.s:166    .text._Z14UpdateControlsv:0000000000000000 _Z14UpdateControlsv
/var/folders/z2/7_lhr9dn53s9tj4s0rwtyswm0000gn/T//ccJ9q3ms.s:334    .text._Z14UpdateControlsv:000000000000008c $d
/var/folders/z2/7_lhr9dn53s9tj4s0rwtyswm0000gn/T//ccJ9q3ms.s:345    .text._Z9UpdateLedv:0000000000000000 $t
/var/folders/z2/7_lhr9dn53s9tj4s0rwtyswm0000gn/T//ccJ9q3ms.s:352    .text._Z9UpdateLedv:0000000000000000 _Z9UpdateLedv
/var/folders/z2/7_lhr9dn53s9tj4s0rwtyswm0000gn/T//ccJ9q3ms.s:417    .text._Z9UpdateLedv:0000000000000058 $d
/var/folders/z2/7_lhr9dn53s9tj4s0rwtyswm0000gn/T//ccJ9q3ms.s:426    .text._ZN7daisysp6ShaperILj512EE7processEf:0000000000000000 $t
/var/folders/z2/7_lhr9dn53s9tj4s0rwtyswm0000gn/T//ccJ9q3ms.s:433    .text._ZN7daisysp6ShaperILj512EE7processEf:0000000000000000 _ZN7daisysp6ShaperILj512EE7processEf
/var/folders/z2/7_lhr9dn53s9tj4s0rwtyswm0000gn/T//ccJ9q3ms.s:910    .text._ZN7daisysp6ShaperILj512EE7processEf:00000000000001e0 $d
/var/folders/z2/7_lhr9dn53s9tj4s0rwtyswm0000gn/T//ccJ9q3ms.s:926    .text._Z13AudioCallbackPKPKfPPfj:0000000000000000 $t
/var/folders/z2/7_lhr9dn53s9tj4s0rwtyswm0000gn/T//ccJ9q3ms.s:933    .text._Z13AudioCallbackPKPKfPPfj:0000000000000000 _Z13AudioCallbackPKPKfPPfj
/var/folders/z2/7_lhr9dn53s9tj4s0rwtyswm0000gn/T//ccJ9q3ms.s:1219   .text._Z13AudioCallbackPKPKfPPfj:0000000000000150 $d
/var/folders/z2/7_lhr9dn53s9tj4s0rwtyswm0000gn/T//ccJ9q3ms.s:1234   .text._ZN7daisysp6ShaperILj512EE4initEv:0000000000000000 $t
/var/folders/z2/7_lhr9dn53s9tj4s0rwtyswm0000gn/T//ccJ9q3ms.s:1241   .text._ZN7daisysp6ShaperILj512EE4initEv:0000000000000000 _ZN7daisysp6ShaperILj512EE4initEv
/var/folders/z2/7_lhr9dn53s9tj4s0rwtyswm0000gn/T//ccJ9q3ms.s:1336   .text._ZN7daisysp6ShaperILj512EE4initEv:000000000000002c $d
/var/folders/z2/7_lhr9dn53s9tj4s0rwtyswm0000gn/T//ccJ9q3ms.s:1341   .text.startup.main:0000000000000000 $t
/var/folders/z2/7_lhr9dn53s9tj4s0rwtyswm0000gn/T//ccJ9q3ms.s:1348   .text.startup.main:0000000000000000 main
/var/folders/z2/7_lhr9dn53s9tj4s0rwtyswm0000gn/T//ccJ9q3ms.s:1604   .text.startup.main:00000000000000c8 $d
/var/folders/z2/7_lhr9dn53s9tj4s0rwtyswm0000gn/T//ccJ9q3ms.s:1620   .text.startup._GLOBAL__sub_I_hw:0000000000000000 $t
/var/folders/z2/7_lhr9dn53s9tj4s0rwtyswm0000gn/T//ccJ9q3ms.s:1626   .text.startup._GLOBAL__sub_I_hw:0000000000000000 _GLOBAL__sub_I_hw
/var/folders/z2/7_lhr9dn53s9tj4s0rwtyswm0000gn/T//ccJ9q3ms.s:1853   .text.startup._GLOBAL__sub_I_hw:0000000000000024 $d
/var/folders/z2/7_lhr9dn53s9tj4s0rwtyswm0000gn/T//ccJ9q3ms.s:1864   .init_array:0000000000000000 $d
/var/folders/z2/7_lhr9dn53s9tj4s0rwtyswm0000gn/T//ccJ9q3ms.s:1945   .bss.z:0000000000000000 z
/var/folders/z2/7_lhr9dn53s9tj4s0rwtyswm0000gn/T//ccJ9q3ms.s:1966   .data.inc2:0000000000000000 inc2
/var/folders/z2/7_lhr9dn53s9tj4s0rwtyswm0000gn/T//ccJ9q3ms.s:1959   .data.inc:0000000000000000 inc
/var/folders/z2/7_lhr9dn53s9tj4s0rwtyswm0000gn/T//ccJ9q3ms.s:1898   .bss.ph2:0000000000000000 ph2
/var/folders/z2/7_lhr9dn53s9tj4s0rwtyswm0000gn/T//ccJ9q3ms.s:1891   .bss.ph:0000000000000000 ph
/var/folders/z2/7_lhr9dn53s9tj4s0rwtyswm0000gn/T//ccJ9q3ms.s:1938   .bss.y:0000000000000000 y
/var/folders/z2/7_lhr9dn53s9tj4s0rwtyswm0000gn/T//ccJ9q3ms.s:1932   .bss.x:0000000000000000 x
/var/folders/z2/7_lhr9dn53s9tj4s0rwtyswm0000gn/T//ccJ9q3ms.s:1926   .bss.waver:0000000000000000 waver
/var/folders/z2/7_lhr9dn53s9tj4s0rwtyswm0000gn/T//ccJ9q3ms.s:1919   .bss.sine:0000000000000000 sine
/var/folders/z2/7_lhr9dn53s9tj4s0rwtyswm0000gn/T//ccJ9q3ms.s:1912   .bss.shaper2:0000000000000000 shaper2
/var/folders/z2/7_lhr9dn53s9tj4s0rwtyswm0000gn/T//ccJ9q3ms.s:1905   .bss.shaper:0000000000000000 shaper
/var/folders/z2/7_lhr9dn53s9tj4s0rwtyswm0000gn/T//ccJ9q3ms.s:1952   .data.freq:0000000000000000 freq
/var/folders/z2/7_lhr9dn53s9tj4s0rwtyswm0000gn/T//ccJ9q3ms.s:1884   .bss.hw:0000000000000000 hw
/var/folders/z2/7_lhr9dn53s9tj4s0rwtyswm0000gn/T//ccJ9q3ms.s:1880   .bss.hw:0000000000000000 $d
/var/folders/z2/7_lhr9dn53s9tj4s0rwtyswm0000gn/T//ccJ9q3ms.s:1887   .bss.ph:0000000000000000 $d
/var/folders/z2/7_lhr9dn53s9tj4s0rwtyswm0000gn/T//ccJ9q3ms.s:1894   .bss.ph2:0000000000000000 $d
/var/folders/z2/7_lhr9dn53s9tj4s0rwtyswm0000gn/T//ccJ9q3ms.s:1901   .bss.shaper:0000000000000000 $d
/var/folders/z2/7_lhr9dn53s9tj4s0rwtyswm0000gn/T//ccJ9q3ms.s:1908   .bss.shaper2:0000000000000000 $d
/var/folders/z2/7_lhr9dn53s9tj4s0rwtyswm0000gn/T//ccJ9q3ms.s:1915   .bss.sine:0000000000000000 $d
/var/folders/z2/7_lhr9dn53s9tj4s0rwtyswm0000gn/T//ccJ9q3ms.s:1922   .bss.waver:0000000000000000 $d
/var/folders/z2/7_lhr9dn53s9tj4s0rwtyswm0000gn/T//ccJ9q3ms.s:1929   .bss.x:0000000000000000 $d
/var/folders/z2/7_lhr9dn53s9tj4s0rwtyswm0000gn/T//ccJ9q3ms.s:1935   .bss.y:0000000000000000 $d
/var/folders/z2/7_lhr9dn53s9tj4s0rwtyswm0000gn/T//ccJ9q3ms.s:1941   .bss.z:0000000000000000 $d
/var/folders/z2/7_lhr9dn53s9tj4s0rwtyswm0000gn/T//ccJ9q3ms.s:1948   .data.freq:0000000000000000 $d
/var/folders/z2/7_lhr9dn53s9tj4s0rwtyswm0000gn/T//ccJ9q3ms.s:1955   .data.inc:0000000000000000 $d
/var/folders/z2/7_lhr9dn53s9tj4s0rwtyswm0000gn/T//ccJ9q3ms.s:1962   .data.inc2:0000000000000000 $d
/var/folders/z2/7_lhr9dn53s9tj4s0rwtyswm0000gn/T//ccJ9q3ms.s:1969   .rodata._ZN7daisyspL2c1E:0000000000000000 $d
ARM GAS  /var/folders/z2/7_lhr9dn53s9tj4s0rwtyswm0000gn/T//ccJ9q3ms.s 			page 185


/var/folders/z2/7_lhr9dn53s9tj4s0rwtyswm0000gn/T//ccJ9q3ms.s:1973   .rodata._ZN7daisyspL2c1E:0000000000000000 _ZN7daisyspL2c1E
/var/folders/z2/7_lhr9dn53s9tj4s0rwtyswm0000gn/T//ccJ9q3ms.s:2487   .rodata._ZN7daisyspL2c2E:0000000000000000 $d
/var/folders/z2/7_lhr9dn53s9tj4s0rwtyswm0000gn/T//ccJ9q3ms.s:2491   .rodata._ZN7daisyspL2c2E:0000000000000000 _ZN7daisyspL2c2E
/var/folders/z2/7_lhr9dn53s9tj4s0rwtyswm0000gn/T//ccJ9q3ms.s:3005   .rodata._ZN7daisyspL2c3E:0000000000000000 $d
/var/folders/z2/7_lhr9dn53s9tj4s0rwtyswm0000gn/T//ccJ9q3ms.s:3009   .rodata._ZN7daisyspL2c3E:0000000000000000 _ZN7daisyspL2c3E
/var/folders/z2/7_lhr9dn53s9tj4s0rwtyswm0000gn/T//ccJ9q3ms.s:3523   .rodata._ZN7daisyspL2c4E:0000000000000000 $d
/var/folders/z2/7_lhr9dn53s9tj4s0rwtyswm0000gn/T//ccJ9q3ms.s:3527   .rodata._ZN7daisyspL2c4E:0000000000000000 _ZN7daisyspL2c4E
/var/folders/z2/7_lhr9dn53s9tj4s0rwtyswm0000gn/T//ccJ9q3ms.s:4041   .rodata._ZN7daisyspL2c5E:0000000000000000 $d
/var/folders/z2/7_lhr9dn53s9tj4s0rwtyswm0000gn/T//ccJ9q3ms.s:4045   .rodata._ZN7daisyspL2c5E:0000000000000000 _ZN7daisyspL2c5E
/var/folders/z2/7_lhr9dn53s9tj4s0rwtyswm0000gn/T//ccJ9q3ms.s:4559   .rodata._ZN7daisyspL2c6E:0000000000000000 $d
/var/folders/z2/7_lhr9dn53s9tj4s0rwtyswm0000gn/T//ccJ9q3ms.s:4563   .rodata._ZN7daisyspL2c6E:0000000000000000 _ZN7daisyspL2c6E
/var/folders/z2/7_lhr9dn53s9tj4s0rwtyswm0000gn/T//ccJ9q3ms.s:5077   .rodata._ZN7daisyspL2c7E:0000000000000000 $d
/var/folders/z2/7_lhr9dn53s9tj4s0rwtyswm0000gn/T//ccJ9q3ms.s:5081   .rodata._ZN7daisyspL2c7E:0000000000000000 _ZN7daisyspL2c7E
/var/folders/z2/7_lhr9dn53s9tj4s0rwtyswm0000gn/T//ccJ9q3ms.s:5595   .rodata._ZN7daisyspL2c8E:0000000000000000 $d
/var/folders/z2/7_lhr9dn53s9tj4s0rwtyswm0000gn/T//ccJ9q3ms.s:5599   .rodata._ZN7daisyspL2c8E:0000000000000000 _ZN7daisyspL2c8E
/var/folders/z2/7_lhr9dn53s9tj4s0rwtyswm0000gn/T//ccJ9q3ms.s:6113   .rodata._ZN7daisyspL2c9E:0000000000000000 $d
/var/folders/z2/7_lhr9dn53s9tj4s0rwtyswm0000gn/T//ccJ9q3ms.s:6117   .rodata._ZN7daisyspL2c9E:0000000000000000 _ZN7daisyspL2c9E
/var/folders/z2/7_lhr9dn53s9tj4s0rwtyswm0000gn/T//ccJ9q3ms.s:6631   .rodata._ZN7daisyspL3c10E:0000000000000000 $d
/var/folders/z2/7_lhr9dn53s9tj4s0rwtyswm0000gn/T//ccJ9q3ms.s:6635   .rodata._ZN7daisyspL3c10E:0000000000000000 _ZN7daisyspL3c10E
                           .group:0000000000000000 _ZN5daisy10TusenskonaD5Ev
                           .group:0000000000000000 _ZN7daisysp10OscillatorD5Ev

UNDEFINED SYMBOLS
_ZN5daisy10Tusenskona21ProcessAnalogControlsEv
_ZN5daisy10Tusenskona22ProcessDigitalControlsEv
_ZN5daisy10Tusenskona12GetKnobValueENS0_4KnobE
powf
_ZN7daisysp10Oscillator12CalcPhaseIncEf
sinf
_ZN5daisy6RgbLed3SetEfff
_ZN5daisy10Tusenskona10UpdateLedsEv
_ZN7daisysp10Oscillator7ProcessEv
fmodf
_ZN5daisy10Tusenskona4InitEb
_ZN5daisy10Tusenskona17SetAudioBlockSizeEj
_ZN5daisy10Tusenskona18SetAudioSampleRateENS_9SaiHandle6Config10SampleRateE
expf
_ZN5daisy10Tusenskona8StartAdcEv
_ZN5daisy10Tusenskona10StartAudioEPFvPKPKfPPfjE
__aeabi_atexit
__dso_handle
