ARM GAS  /var/folders/z2/7_lhr9dn53s9tj4s0rwtyswm0000gn/T//ccJ9q3ms.s 			page 1


   1              		.cpu cortex-m7
   2              		.arch armv7e-m
   3              		.fpu fpv5-d16
   4              		.eabi_attribute 28, 1
   5              		.eabi_attribute 20, 1
   6              		.eabi_attribute 21, 1
   7              		.eabi_attribute 23, 3
   8              		.eabi_attribute 24, 1
   9              		.eabi_attribute 25, 1
  10              		.eabi_attribute 26, 1
  11              		.eabi_attribute 30, 2
  12              		.eabi_attribute 34, 1
  13              		.eabi_attribute 18, 4
  14              		.file	"chebyshev.cpp"
  15              		.text
  16              	.Ltext0:
  17              		.cfi_sections	.debug_frame
  18              		.section	.text._ZN5daisy10TusenskonaD2Ev,"axG",%progbits,_ZN5daisy10TusenskonaD5Ev,comdat
  19              		.align	1
  20              		.p2align 2,,3
  21              		.weak	_ZN5daisy10TusenskonaD2Ev
  22              		.syntax unified
  23              		.thumb
  24              		.thumb_func
  26              	_ZN5daisy10TusenskonaD2Ev:
  27              	.LVL0:
  28              	.LFB2580:
  29              		.file 1 "../../tusenskona/src/tusenskona.h"
   1:../../tusenskona/src/tusenskona.h **** #ifndef TUSENSKONA_H
   2:../../tusenskona/src/tusenskona.h **** #define TUSENSKONA_H
   3:../../tusenskona/src/tusenskona.h **** 
   4:../../tusenskona/src/tusenskona.h **** #include "daisy_seed.h"
   5:../../tusenskona/src/tusenskona.h **** 
   6:../../tusenskona/src/tusenskona.h **** namespace daisy
   7:../../tusenskona/src/tusenskona.h **** {
   8:../../tusenskona/src/tusenskona.h **** 
   9:../../tusenskona/src/tusenskona.h **** class Tusenskona
  10:../../tusenskona/src/tusenskona.h **** {
  11:../../tusenskona/src/tusenskona.h ****   public:
  12:../../tusenskona/src/tusenskona.h ****     /** Switches */
  13:../../tusenskona/src/tusenskona.h ****     enum Sw
  14:../../tusenskona/src/tusenskona.h ****     {
  15:../../tusenskona/src/tusenskona.h ****         BUTTON_1,    /** & */
  16:../../tusenskona/src/tusenskona.h ****         BUTTON_2,    /** & */
  17:../../tusenskona/src/tusenskona.h ****         BUTTON_LAST, /** &  */
  18:../../tusenskona/src/tusenskona.h ****     };
  19:../../tusenskona/src/tusenskona.h **** 
  20:../../tusenskona/src/tusenskona.h ****     /** Knobs */
  21:../../tusenskona/src/tusenskona.h ****     enum Knob
  22:../../tusenskona/src/tusenskona.h ****     {
  23:../../tusenskona/src/tusenskona.h ****         KNOB_1,    /** &  */
  24:../../tusenskona/src/tusenskona.h ****         KNOB_2,    /** & */
  25:../../tusenskona/src/tusenskona.h ****         KNOB_3,    /** & */
  26:../../tusenskona/src/tusenskona.h ****         KNOB_4,    /** & */
  27:../../tusenskona/src/tusenskona.h ****         KNOB_LAST, /** & */
  28:../../tusenskona/src/tusenskona.h ****     };
  29:../../tusenskona/src/tusenskona.h **** 
ARM GAS  /var/folders/z2/7_lhr9dn53s9tj4s0rwtyswm0000gn/T//ccJ9q3ms.s 			page 2


  30:../../tusenskona/src/tusenskona.h ****     Tusenskona() {}
  31:../../tusenskona/src/tusenskona.h ****     ~Tusenskona() {}
  30              		.loc 1 31 5 view -0
  31              		.cfi_startproc
  32              		@ args = 0, pretend = 0, frame = 0
  33              		@ frame_needed = 0, uses_anonymous_args = 0
  34              		@ link register save eliminated.
  35              	.LBB476:
  36              	.LBI476:
  37              		.file 2 "../../libDaisy//src/hid/rgb_led.h"
   1:../../libDaisy//src/hid/rgb_led.h **** #pragma once
   2:../../libDaisy//src/hid/rgb_led.h **** #ifndef DSY_RGB_LED_H
   3:../../libDaisy//src/hid/rgb_led.h **** #define DSY_RGB_LED_H
   4:../../libDaisy//src/hid/rgb_led.h **** #include "hid/led.h"
   5:../../libDaisy//src/hid/rgb_led.h **** #include "util/color.h"
   6:../../libDaisy//src/hid/rgb_led.h **** 
   7:../../libDaisy//src/hid/rgb_led.h **** namespace daisy
   8:../../libDaisy//src/hid/rgb_led.h **** {
   9:../../libDaisy//src/hid/rgb_led.h **** /** @addtogroup feedback
  10:../../libDaisy//src/hid/rgb_led.h ****     @{
  11:../../libDaisy//src/hid/rgb_led.h **** */
  12:../../libDaisy//src/hid/rgb_led.h **** 
  13:../../libDaisy//src/hid/rgb_led.h **** /** 3x LEDs configured as an RGB for ease of use. */
  14:../../libDaisy//src/hid/rgb_led.h **** class RgbLed
  15:../../libDaisy//src/hid/rgb_led.h **** {
  16:../../libDaisy//src/hid/rgb_led.h ****   public:
  17:../../libDaisy//src/hid/rgb_led.h ****     RgbLed() {}
  18:../../libDaisy//src/hid/rgb_led.h ****     ~RgbLed() {}
  38              		.loc 2 18 5 view .LVU1
  39              	.LBB477:
  40              	.LBI477:
  41              		.file 3 "../../libDaisy//src/hid/led.h"
   1:../../libDaisy//src/hid/led.h **** 
   2:../../libDaisy//src/hid/led.h **** #pragma once
   3:../../libDaisy//src/hid/led.h **** #ifndef DSY_LED_H
   4:../../libDaisy//src/hid/led.h **** #define DSY_LED_H
   5:../../libDaisy//src/hid/led.h **** #include "daisy_core.h"
   6:../../libDaisy//src/hid/led.h **** #include "per/gpio.h"
   7:../../libDaisy//src/hid/led.h **** 
   8:../../libDaisy//src/hid/led.h **** /* TODO - Get this set up to work with the dev_leddriver stuff as well
   9:../../libDaisy//src/hid/led.h **** - Setup Hardware PWM for pins that have it
  10:../../libDaisy//src/hid/led.h **** */
  11:../../libDaisy//src/hid/led.h **** 
  12:../../libDaisy//src/hid/led.h **** namespace daisy
  13:../../libDaisy//src/hid/led.h **** {
  14:../../libDaisy//src/hid/led.h **** /**
  15:../../libDaisy//src/hid/led.h ****     @brief LED Class providing simple Software PWM ability, etc \n 
  16:../../libDaisy//src/hid/led.h ****     Eventually this will work with hardware PWM, and external LED Driver devices as well.
  17:../../libDaisy//src/hid/led.h ****     @author shensley
  18:../../libDaisy//src/hid/led.h ****     @date March 2020
  19:../../libDaisy//src/hid/led.h ****     @ingroup feedback
  20:../../libDaisy//src/hid/led.h **** */
  21:../../libDaisy//src/hid/led.h **** class Led
  22:../../libDaisy//src/hid/led.h **** {
  23:../../libDaisy//src/hid/led.h ****   public:
  24:../../libDaisy//src/hid/led.h ****     Led() {}
  25:../../libDaisy//src/hid/led.h ****     ~Led() {}
ARM GAS  /var/folders/z2/7_lhr9dn53s9tj4s0rwtyswm0000gn/T//ccJ9q3ms.s 			page 3


  42              		.loc 3 25 5 view .LVU2
  43              		.loc 3 25 5 is_stmt 0 view .LVU3
  44              	.LBE477:
  45              	.LBB478:
  46              	.LBI478:
  47              		.loc 3 25 5 is_stmt 1 view .LVU4
  48              		.loc 3 25 5 is_stmt 0 view .LVU5
  49              	.LBE478:
  50              	.LBB479:
  51              	.LBI479:
  52              		.loc 3 25 5 is_stmt 1 view .LVU6
  53              		.loc 3 25 5 is_stmt 0 view .LVU7
  54              	.LBE479:
  55              	.LBE476:
  56              	.LBB480:
  57              	.LBI480:
  58              		.file 4 "../../libDaisy//src/hid/switch.h"
   1:../../libDaisy//src/hid/switch.h **** #pragma once
   2:../../libDaisy//src/hid/switch.h **** #ifndef DSY_SWITCH_H
   3:../../libDaisy//src/hid/switch.h **** #define DSY_SWITCH_H
   4:../../libDaisy//src/hid/switch.h **** #include "daisy_core.h"
   5:../../libDaisy//src/hid/switch.h **** #include "per/gpio.h"
   6:../../libDaisy//src/hid/switch.h **** #include "sys/system.h"
   7:../../libDaisy//src/hid/switch.h **** 
   8:../../libDaisy//src/hid/switch.h **** namespace daisy
   9:../../libDaisy//src/hid/switch.h **** {
  10:../../libDaisy//src/hid/switch.h **** /** 
  11:../../libDaisy//src/hid/switch.h ****     Generic Class for handling momentary/latching switches \n 
  12:../../libDaisy//src/hid/switch.h ****     Inspired/influenced by Mutable Instruments (pichenettes) Switch classes
  13:../../libDaisy//src/hid/switch.h ****     @author Stephen Hensley
  14:../../libDaisy//src/hid/switch.h ****     @date December 2019
  15:../../libDaisy//src/hid/switch.h ****     @ingroup controls
  16:../../libDaisy//src/hid/switch.h **** */
  17:../../libDaisy//src/hid/switch.h **** class Switch
  18:../../libDaisy//src/hid/switch.h **** {
  19:../../libDaisy//src/hid/switch.h ****   public:
  20:../../libDaisy//src/hid/switch.h ****     /** Specifies the expected behavior of the switch */
  21:../../libDaisy//src/hid/switch.h ****     enum Type
  22:../../libDaisy//src/hid/switch.h ****     {
  23:../../libDaisy//src/hid/switch.h ****         TYPE_TOGGLE,    /**< & */
  24:../../libDaisy//src/hid/switch.h ****         TYPE_MOMENTARY, /**< & */
  25:../../libDaisy//src/hid/switch.h ****     };
  26:../../libDaisy//src/hid/switch.h ****     /** Specifies whether the pressed is HIGH or LOW. */
  27:../../libDaisy//src/hid/switch.h ****     enum Polarity
  28:../../libDaisy//src/hid/switch.h ****     {
  29:../../libDaisy//src/hid/switch.h ****         POLARITY_NORMAL,   /**< & */
  30:../../libDaisy//src/hid/switch.h ****         POLARITY_INVERTED, /**< & */
  31:../../libDaisy//src/hid/switch.h ****     };
  32:../../libDaisy//src/hid/switch.h **** 
  33:../../libDaisy//src/hid/switch.h ****     /** Specifies whether to use built-in Pull Up/Down resistors to hold button at a given state wh
  34:../../libDaisy//src/hid/switch.h ****     enum Pull
  35:../../libDaisy//src/hid/switch.h ****     {
  36:../../libDaisy//src/hid/switch.h ****         PULL_UP,   /**< & */
  37:../../libDaisy//src/hid/switch.h ****         PULL_DOWN, /**< & */
  38:../../libDaisy//src/hid/switch.h ****         PULL_NONE, /**< & */
  39:../../libDaisy//src/hid/switch.h ****     };
  40:../../libDaisy//src/hid/switch.h **** 
ARM GAS  /var/folders/z2/7_lhr9dn53s9tj4s0rwtyswm0000gn/T//ccJ9q3ms.s 			page 4


  41:../../libDaisy//src/hid/switch.h ****     Switch() {}
  42:../../libDaisy//src/hid/switch.h ****     ~Switch() {}
  59              		.loc 4 42 5 is_stmt 1 view .LVU8
  60              		.loc 4 42 5 is_stmt 0 view .LVU9
  61              	.LBE480:
  62              	.LBB481:
  63              	.LBI481:
  64              		.loc 4 42 5 is_stmt 1 view .LVU10
  65              		.loc 4 42 5 is_stmt 0 view .LVU11
  66              	.LBE481:
  67              	.LBB482:
  68              	.LBI482:
  69              		.file 5 "../../libDaisy//src/hid/ctrl.h"
   1:../../libDaisy//src/hid/ctrl.h **** #pragma once
   2:../../libDaisy//src/hid/ctrl.h **** #ifndef DSY_KNOB_H
   3:../../libDaisy//src/hid/ctrl.h **** #define DSY_KNOB_H /**< & */
   4:../../libDaisy//src/hid/ctrl.h **** #include <stdint.h>
   5:../../libDaisy//src/hid/ctrl.h **** 
   6:../../libDaisy//src/hid/ctrl.h **** #ifdef __cplusplus
   7:../../libDaisy//src/hid/ctrl.h **** namespace daisy
   8:../../libDaisy//src/hid/ctrl.h **** {
   9:../../libDaisy//src/hid/ctrl.h **** /**
  10:../../libDaisy//src/hid/ctrl.h ****     @brief Hardware Interface for control inputs \n 
  11:../../libDaisy//src/hid/ctrl.h ****     Primarily designed for ADC input controls such as \n 
  12:../../libDaisy//src/hid/ctrl.h ****     potentiometers, and control voltage. \n 
  13:../../libDaisy//src/hid/ctrl.h ****     @author Stephen Hensley
  14:../../libDaisy//src/hid/ctrl.h ****     @date November 2019
  15:../../libDaisy//src/hid/ctrl.h ****     @ingroup controls
  16:../../libDaisy//src/hid/ctrl.h **** */
  17:../../libDaisy//src/hid/ctrl.h **** class AnalogControl
  18:../../libDaisy//src/hid/ctrl.h **** {
  19:../../libDaisy//src/hid/ctrl.h ****   public:
  20:../../libDaisy//src/hid/ctrl.h ****     /** Constructor */
  21:../../libDaisy//src/hid/ctrl.h ****     AnalogControl() {}
  22:../../libDaisy//src/hid/ctrl.h ****     /** destructor */
  23:../../libDaisy//src/hid/ctrl.h ****     ~AnalogControl() {}
  70              		.loc 5 23 5 is_stmt 1 view .LVU12
  71              		.loc 5 23 5 is_stmt 0 view .LVU13
  72              	.LBE482:
  73              	.LBB483:
  74              	.LBI483:
  75              		.loc 5 23 5 is_stmt 1 view .LVU14
  76              		.loc 5 23 5 is_stmt 0 view .LVU15
  77              	.LBE483:
  78              	.LBB484:
  79              	.LBI484:
  80              		.loc 5 23 5 is_stmt 1 view .LVU16
  81              		.loc 5 23 5 is_stmt 0 view .LVU17
  82              	.LBE484:
  83              	.LBB485:
  84              	.LBI485:
  85              		.loc 5 23 5 is_stmt 1 view .LVU18
  86              		.loc 5 23 5 is_stmt 0 view .LVU19
  87              	.LBE485:
  88              	.LBB486:
  89              	.LBI486:
  90              		.file 6 "../../libDaisy//src/hid/encoder.h"
ARM GAS  /var/folders/z2/7_lhr9dn53s9tj4s0rwtyswm0000gn/T//ccJ9q3ms.s 			page 5


   1:../../libDaisy//src/hid/encoder.h **** #pragma once
   2:../../libDaisy//src/hid/encoder.h **** #ifndef DSY_ENCODER_H
   3:../../libDaisy//src/hid/encoder.h **** #define DSY_ENCODER_H
   4:../../libDaisy//src/hid/encoder.h **** #include "daisy_core.h"
   5:../../libDaisy//src/hid/encoder.h **** #include "per/gpio.h"
   6:../../libDaisy//src/hid/encoder.h **** #include "hid/switch.h"
   7:../../libDaisy//src/hid/encoder.h **** 
   8:../../libDaisy//src/hid/encoder.h **** namespace daisy
   9:../../libDaisy//src/hid/encoder.h **** {
  10:../../libDaisy//src/hid/encoder.h **** /** 
  11:../../libDaisy//src/hid/encoder.h ****     @brief Generic Class for handling Quadrature Encoders \n 
  12:../../libDaisy//src/hid/encoder.h ****     Inspired/influenced by Mutable Instruments (pichenettes) Encoder classes
  13:../../libDaisy//src/hid/encoder.h ****     @author Stephen Hensley
  14:../../libDaisy//src/hid/encoder.h ****     @date December 2019
  15:../../libDaisy//src/hid/encoder.h ****     @ingroup controls
  16:../../libDaisy//src/hid/encoder.h **** */
  17:../../libDaisy//src/hid/encoder.h **** class Encoder
  18:../../libDaisy//src/hid/encoder.h **** {
  19:../../libDaisy//src/hid/encoder.h ****   public:
  20:../../libDaisy//src/hid/encoder.h ****     Encoder() {}
  21:../../libDaisy//src/hid/encoder.h ****     ~Encoder() {}
  91              		.loc 6 21 5 is_stmt 1 view .LVU20
  92              	.LBB487:
  93              	.LBI487:
  94              		.loc 4 42 5 view .LVU21
  95              		.loc 4 42 5 is_stmt 0 view .LVU22
  96              	.LBE487:
  97              	.LBE486:
  98              	.LBB488:
  99              	.LBI488:
 100              		.file 7 "../../libDaisy//src/daisy_seed.h"
   1:../../libDaisy//src/daisy_seed.h **** #pragma once
   2:../../libDaisy//src/daisy_seed.h **** #ifndef DSY_SEED_H
   3:../../libDaisy//src/daisy_seed.h **** #define DSY_SEED_H
   4:../../libDaisy//src/daisy_seed.h **** 
   5:../../libDaisy//src/daisy_seed.h **** #include "daisy.h"
   6:../../libDaisy//src/daisy_seed.h **** 
   7:../../libDaisy//src/daisy_seed.h **** //Uncomment this out if you're still using the rev2 hardware
   8:../../libDaisy//src/daisy_seed.h **** //#define SEED_REV2
   9:../../libDaisy//src/daisy_seed.h **** 
  10:../../libDaisy//src/daisy_seed.h **** namespace daisy
  11:../../libDaisy//src/daisy_seed.h **** {
  12:../../libDaisy//src/daisy_seed.h **** /**
  13:../../libDaisy//src/daisy_seed.h ****    @brief This is the higher-level interface for the Daisy board. \n 
  14:../../libDaisy//src/daisy_seed.h ****     All basic peripheral configuration/initialization is setup here. \n
  15:../../libDaisy//src/daisy_seed.h **** 
  16:../../libDaisy//src/daisy_seed.h ****    @ingroup boards
  17:../../libDaisy//src/daisy_seed.h **** */
  18:../../libDaisy//src/daisy_seed.h **** class DaisySeed
  19:../../libDaisy//src/daisy_seed.h **** {
  20:../../libDaisy//src/daisy_seed.h ****   public:
  21:../../libDaisy//src/daisy_seed.h ****     DaisySeed() {}
  22:../../libDaisy//src/daisy_seed.h ****     ~DaisySeed() {}
 101              		.loc 7 22 5 is_stmt 1 view .LVU23
 102              	.LBB489:
 103              	.LBI489:
 104              		.file 8 "../../libDaisy//src/sys/system.h"
ARM GAS  /var/folders/z2/7_lhr9dn53s9tj4s0rwtyswm0000gn/T//ccJ9q3ms.s 			page 6


   1:../../libDaisy//src/sys/system.h **** #ifndef DSY_SYSTEM_H
   2:../../libDaisy//src/sys/system.h **** #define DSY_SYSTEM_H
   3:../../libDaisy//src/sys/system.h **** 
   4:../../libDaisy//src/sys/system.h **** #ifndef UNIT_TEST // for unit tests, a dummy implementation is provided below
   5:../../libDaisy//src/sys/system.h **** 
   6:../../libDaisy//src/sys/system.h **** #include <cstdint>
   7:../../libDaisy//src/sys/system.h **** #include "per/tim.h"
   8:../../libDaisy//src/sys/system.h **** 
   9:../../libDaisy//src/sys/system.h **** namespace daisy
  10:../../libDaisy//src/sys/system.h **** {
  11:../../libDaisy//src/sys/system.h **** /** A handle for interacting with the Core System.
  12:../../libDaisy//src/sys/system.h ****  ** This includes the Clock tree, MPU, global DMA initialization,
  13:../../libDaisy//src/sys/system.h ****  ** cache handling, and any other necessary global initiailzation
  14:../../libDaisy//src/sys/system.h ****  **
  15:../../libDaisy//src/sys/system.h ****  ** @author shensley
  16:../../libDaisy//src/sys/system.h ****  ** @ingroup system
  17:../../libDaisy//src/sys/system.h ****  */
  18:../../libDaisy//src/sys/system.h **** class System
  19:../../libDaisy//src/sys/system.h **** {
  20:../../libDaisy//src/sys/system.h ****   public:
  21:../../libDaisy//src/sys/system.h ****     /** Contains settings for initializing the System */
  22:../../libDaisy//src/sys/system.h ****     struct Config
  23:../../libDaisy//src/sys/system.h ****     {
  24:../../libDaisy//src/sys/system.h ****         /** Specifies the system clock frequency that feeds APB/AHB clocks, etc. */
  25:../../libDaisy//src/sys/system.h ****         enum class SysClkFreq
  26:../../libDaisy//src/sys/system.h ****         {
  27:../../libDaisy//src/sys/system.h ****             FREQ_400MHZ,
  28:../../libDaisy//src/sys/system.h ****             FREQ_480MHZ,
  29:../../libDaisy//src/sys/system.h ****         };
  30:../../libDaisy//src/sys/system.h **** 
  31:../../libDaisy//src/sys/system.h ****         /** Method to call on the struct to set to defaults
  32:../../libDaisy//src/sys/system.h ****          ** CPU Freq set to 400MHz
  33:../../libDaisy//src/sys/system.h ****          ** Cache Enabled
  34:../../libDaisy//src/sys/system.h ****          ** */
  35:../../libDaisy//src/sys/system.h ****         void Defaults()
  36:../../libDaisy//src/sys/system.h ****         {
  37:../../libDaisy//src/sys/system.h ****             cpu_freq    = SysClkFreq::FREQ_400MHZ;
  38:../../libDaisy//src/sys/system.h ****             use_dcache  = true;
  39:../../libDaisy//src/sys/system.h ****             use_icache  = true;
  40:../../libDaisy//src/sys/system.h ****             skip_clocks = false;
  41:../../libDaisy//src/sys/system.h ****         }
  42:../../libDaisy//src/sys/system.h **** 
  43:../../libDaisy//src/sys/system.h ****         /** Method to call on the struct to set to boost mode:
  44:../../libDaisy//src/sys/system.h ****          ** CPU Freq set to 480MHz
  45:../../libDaisy//src/sys/system.h ****          ** Cache Enabled
  46:../../libDaisy//src/sys/system.h ****          ** */
  47:../../libDaisy//src/sys/system.h ****         void Boost()
  48:../../libDaisy//src/sys/system.h ****         {
  49:../../libDaisy//src/sys/system.h ****             cpu_freq    = SysClkFreq::FREQ_480MHZ;
  50:../../libDaisy//src/sys/system.h ****             use_dcache  = true;
  51:../../libDaisy//src/sys/system.h ****             use_icache  = true;
  52:../../libDaisy//src/sys/system.h ****             skip_clocks = false;
  53:../../libDaisy//src/sys/system.h ****         }
  54:../../libDaisy//src/sys/system.h **** 
  55:../../libDaisy//src/sys/system.h ****         SysClkFreq cpu_freq;
  56:../../libDaisy//src/sys/system.h ****         bool       use_dcache;
  57:../../libDaisy//src/sys/system.h ****         bool       use_icache;
ARM GAS  /var/folders/z2/7_lhr9dn53s9tj4s0rwtyswm0000gn/T//ccJ9q3ms.s 			page 7


  58:../../libDaisy//src/sys/system.h ****         bool       skip_clocks;
  59:../../libDaisy//src/sys/system.h ****     };
  60:../../libDaisy//src/sys/system.h **** 
  61:../../libDaisy//src/sys/system.h ****     /** Describes the different regions of memory available to the Daisy */
  62:../../libDaisy//src/sys/system.h ****     enum MemoryRegion
  63:../../libDaisy//src/sys/system.h ****     {
  64:../../libDaisy//src/sys/system.h ****         INTERNAL_FLASH = 0,
  65:../../libDaisy//src/sys/system.h ****         ITCMRAM,
  66:../../libDaisy//src/sys/system.h ****         DTCMRAM,
  67:../../libDaisy//src/sys/system.h ****         SRAM_D1,
  68:../../libDaisy//src/sys/system.h ****         SRAM_D2,
  69:../../libDaisy//src/sys/system.h ****         SRAM_D3,
  70:../../libDaisy//src/sys/system.h ****         SDRAM,
  71:../../libDaisy//src/sys/system.h ****         QSPI,
  72:../../libDaisy//src/sys/system.h ****         INVALID_ADDRESS,
  73:../../libDaisy//src/sys/system.h ****     };
  74:../../libDaisy//src/sys/system.h **** 
  75:../../libDaisy//src/sys/system.h ****     /** Bootloader struct for controlling bootloading parameters */
  76:../../libDaisy//src/sys/system.h ****     struct BootInfo
  77:../../libDaisy//src/sys/system.h ****     {
  78:../../libDaisy//src/sys/system.h ****         enum class Type : uint32_t
  79:../../libDaisy//src/sys/system.h ****         {
  80:../../libDaisy//src/sys/system.h ****             INVALID      = 0x00000000,
  81:../../libDaisy//src/sys/system.h ****             JUMP         = 0xDEADBEEF,
  82:../../libDaisy//src/sys/system.h ****             SKIP_TIMEOUT = 0x5AFEB007,
  83:../../libDaisy//src/sys/system.h ****             INF_TIMEOUT  = 0xB0074EFA,
  84:../../libDaisy//src/sys/system.h ****         } status;
  85:../../libDaisy//src/sys/system.h ****         uint32_t data;
  86:../../libDaisy//src/sys/system.h ****         enum class Version : uint32_t
  87:../../libDaisy//src/sys/system.h ****         {
  88:../../libDaisy//src/sys/system.h ****             LT_v6_0 = 0, // Less than v6.0
  89:../../libDaisy//src/sys/system.h ****             NONE,        // No bootloader present
  90:../../libDaisy//src/sys/system.h ****             v6_0,        // v6.0
  91:../../libDaisy//src/sys/system.h ****             v6_1,        // v6.1 or greater
  92:../../libDaisy//src/sys/system.h ****             LAST
  93:../../libDaisy//src/sys/system.h ****         } version;
  94:../../libDaisy//src/sys/system.h ****     };
  95:../../libDaisy//src/sys/system.h **** 
  96:../../libDaisy//src/sys/system.h ****     System() {}
  97:../../libDaisy//src/sys/system.h ****     ~System() {}
 105              		.loc 8 97 5 view .LVU24
 106              		.loc 8 97 5 is_stmt 0 view .LVU25
 107              	.LBE489:
 108              	.LBB490:
 109              	.LBI490:
 110              		.file 9 "../../libDaisy//src/hid/usb.h"
   1:../../libDaisy//src/hid/usb.h **** #pragma once
   2:../../libDaisy//src/hid/usb.h **** #ifndef DSY_HID_USB_H
   3:../../libDaisy//src/hid/usb.h **** #define DSY_HID_USB_H
   4:../../libDaisy//src/hid/usb.h **** #include <stdint.h>
   5:../../libDaisy//src/hid/usb.h **** #include <stdlib.h>
   6:../../libDaisy//src/hid/usb.h **** 
   7:../../libDaisy//src/hid/usb.h **** namespace daisy
   8:../../libDaisy//src/hid/usb.h **** /** @addtogroup human_interface
   9:../../libDaisy//src/hid/usb.h ****     @{
  10:../../libDaisy//src/hid/usb.h **** */
  11:../../libDaisy//src/hid/usb.h **** 
ARM GAS  /var/folders/z2/7_lhr9dn53s9tj4s0rwtyswm0000gn/T//ccJ9q3ms.s 			page 8


  12:../../libDaisy//src/hid/usb.h **** {
  13:../../libDaisy//src/hid/usb.h **** /** 
  14:../../libDaisy//src/hid/usb.h ****     @brief Interface for initializing and using the USB Peripherals on the daisy
  15:../../libDaisy//src/hid/usb.h ****     @author Stephen Hensley
  16:../../libDaisy//src/hid/usb.h ****     @date December 2019
  17:../../libDaisy//src/hid/usb.h **** */
  18:../../libDaisy//src/hid/usb.h **** class UsbHandle
  19:../../libDaisy//src/hid/usb.h **** {
  20:../../libDaisy//src/hid/usb.h ****   public:
  21:../../libDaisy//src/hid/usb.h ****     /** Return values for USBHandle Functions */
  22:../../libDaisy//src/hid/usb.h ****     enum class Result
  23:../../libDaisy//src/hid/usb.h ****     {
  24:../../libDaisy//src/hid/usb.h ****         OK,
  25:../../libDaisy//src/hid/usb.h ****         ERR,
  26:../../libDaisy//src/hid/usb.h ****     };
  27:../../libDaisy//src/hid/usb.h **** 
  28:../../libDaisy//src/hid/usb.h ****     /** Specified which of the two USB Peripherals to initialize. */
  29:../../libDaisy//src/hid/usb.h ****     enum UsbPeriph
  30:../../libDaisy//src/hid/usb.h ****     {
  31:../../libDaisy//src/hid/usb.h ****         FS_INTERNAL, /**< Internal pin */
  32:../../libDaisy//src/hid/usb.h ****         FS_EXTERNAL, /**< FS External D+ pin is Pin 38 (GPIO32). FS External D- pin is Pin 37 (GPIO
  33:../../libDaisy//src/hid/usb.h ****         FS_BOTH,     /**< Both */
  34:../../libDaisy//src/hid/usb.h ****     };
  35:../../libDaisy//src/hid/usb.h **** 
  36:../../libDaisy//src/hid/usb.h **** 
  37:../../libDaisy//src/hid/usb.h ****     /** Function called upon reception of a buffer */
  38:../../libDaisy//src/hid/usb.h ****     typedef void (*ReceiveCallback)(uint8_t* buff, uint32_t* len);
  39:../../libDaisy//src/hid/usb.h **** 
  40:../../libDaisy//src/hid/usb.h ****     UsbHandle() {}
  41:../../libDaisy//src/hid/usb.h **** 
  42:../../libDaisy//src/hid/usb.h ****     ~UsbHandle() {}
 111              		.loc 9 42 5 is_stmt 1 view .LVU26
 112              		.loc 9 42 5 is_stmt 0 view .LVU27
 113              	.LBE490:
 114              	.LBB491:
 115              	.LBI491:
 116              		.file 10 "../../libDaisy//src/per/adc.h"
   1:../../libDaisy//src/per/adc.h **** #pragma once
   2:../../libDaisy//src/per/adc.h **** #ifndef DSY_ADC_H
   3:../../libDaisy//src/per/adc.h **** #define DSY_ADC_H /**< Macro */
   4:../../libDaisy//src/per/adc.h **** #include <stdint.h>
   5:../../libDaisy//src/per/adc.h **** #include <stdlib.h>
   6:../../libDaisy//src/per/adc.h **** #include "daisy_core.h"
   7:../../libDaisy//src/per/adc.h **** #include "per/gpio.h"
   8:../../libDaisy//src/per/adc.h **** 
   9:../../libDaisy//src/per/adc.h **** #define DSY_ADC_MAX_CHANNELS 16 /**< Maximum number of ADC channels */
  10:../../libDaisy//src/per/adc.h **** 
  11:../../libDaisy//src/per/adc.h **** namespace daisy
  12:../../libDaisy//src/per/adc.h **** {
  13:../../libDaisy//src/per/adc.h **** /** @addtogroup per_analog
  14:../../libDaisy//src/per/adc.h ****     @{
  15:../../libDaisy//src/per/adc.h **** */
  16:../../libDaisy//src/per/adc.h **** 
  17:../../libDaisy//src/per/adc.h **** /* While there may not be many configuration options here,
  18:../../libDaisy//src/per/adc.h **** using a struct like this allows us to add more configuration
  19:../../libDaisy//src/per/adc.h **** later without breaking existing functionality.
  20:../../libDaisy//src/per/adc.h **** */
ARM GAS  /var/folders/z2/7_lhr9dn53s9tj4s0rwtyswm0000gn/T//ccJ9q3ms.s 			page 9


  21:../../libDaisy//src/per/adc.h **** 
  22:../../libDaisy//src/per/adc.h **** /** @brief   Configuration Structure for an ADC Channel 
  23:../../libDaisy//src/per/adc.h ****  *  @details This can be used to configure a a single input, 
  24:../../libDaisy//src/per/adc.h ****  *           or a multiplexed input, allowing up to 8 inputs on 
  25:../../libDaisy//src/per/adc.h ****  *           one channel.
  26:../../libDaisy//src/per/adc.h ****  *  @note    Sharing data lines to multiple muxes _is_ possible, but
  27:../../libDaisy//src/per/adc.h ****  *           each channel sharing data lines must be set to the maximum
  28:../../libDaisy//src/per/adc.h ****  *           number of channels, even if some multiplexers have fewer
  29:../../libDaisy//src/per/adc.h ****  *           inputs connected.
  30:../../libDaisy//src/per/adc.h **** */
  31:../../libDaisy//src/per/adc.h **** struct AdcChannelConfig
  32:../../libDaisy//src/per/adc.h **** {
  33:../../libDaisy//src/per/adc.h ****     /** Which pin to use for multiplexing */
  34:../../libDaisy//src/per/adc.h ****     enum MuxPin
  35:../../libDaisy//src/per/adc.h ****     {
  36:../../libDaisy//src/per/adc.h ****         MUX_SEL_0,    /**< & */
  37:../../libDaisy//src/per/adc.h ****         MUX_SEL_1,    /**< & */
  38:../../libDaisy//src/per/adc.h ****         MUX_SEL_2,    /**< & */
  39:../../libDaisy//src/per/adc.h ****         MUX_SEL_LAST, /**< & */
  40:../../libDaisy//src/per/adc.h ****     };
  41:../../libDaisy//src/per/adc.h **** 
  42:../../libDaisy//src/per/adc.h ****     /** \brief per channel conversion speed added to fixed time based on bitdepth, etc. */
  43:../../libDaisy//src/per/adc.h ****     enum ConversionSpeed
  44:../../libDaisy//src/per/adc.h ****     {
  45:../../libDaisy//src/per/adc.h ****         SPEED_1CYCLES_5,
  46:../../libDaisy//src/per/adc.h ****         SPEED_2CYCLES_5,
  47:../../libDaisy//src/per/adc.h ****         SPEED_8CYCLES_5,
  48:../../libDaisy//src/per/adc.h ****         SPEED_16CYCLES_5,
  49:../../libDaisy//src/per/adc.h ****         SPEED_32CYCLES_5,
  50:../../libDaisy//src/per/adc.h ****         SPEED_64CYCLES_5,
  51:../../libDaisy//src/per/adc.h ****         SPEED_387CYCLES_5,
  52:../../libDaisy//src/per/adc.h ****         SPEED_810CYCLES_5,
  53:../../libDaisy//src/per/adc.h ****     };
  54:../../libDaisy//src/per/adc.h **** 
  55:../../libDaisy//src/per/adc.h ****     /** Initializes a single ADC pin as an ADC. 
  56:../../libDaisy//src/per/adc.h ****     \param pin Pin to init.
  57:../../libDaisy//src/per/adc.h ****     \param speed conversion speed for this pin defaults to 8.5 cycles
  58:../../libDaisy//src/per/adc.h ****      */
  59:../../libDaisy//src/per/adc.h ****     void InitSingle(dsy_gpio_pin pin, ConversionSpeed speed = SPEED_8CYCLES_5);
  60:../../libDaisy//src/per/adc.h **** 
  61:../../libDaisy//src/per/adc.h ****     /** 
  62:../../libDaisy//src/per/adc.h ****     Initializes a single ADC pin as a Multiplexed ADC.
  63:../../libDaisy//src/per/adc.h ****     Requires a CD405X Multiplexer connected to the pin.
  64:../../libDaisy//src/per/adc.h ****     You only need to supply the mux pins that are required,
  65:../../libDaisy//src/per/adc.h ****     e.g. a 4052 mux would only require mux_0 and mux_1.
  66:../../libDaisy//src/per/adc.h ****     Internal Callbacks handle the pin addressing.
  67:../../libDaisy//src/per/adc.h ****     \param adc_pin &
  68:../../libDaisy//src/per/adc.h ****     \param mux_channels must be 1-8
  69:../../libDaisy//src/per/adc.h ****     \param mux_0 First mux pin
  70:../../libDaisy//src/per/adc.h ****     \param mux_1 Second mux pin
  71:../../libDaisy//src/per/adc.h ****     \param mux_2 Third mux pin
  72:../../libDaisy//src/per/adc.h ****     \param speed conversion speed for this pin defaults to 8.5 cycles
  73:../../libDaisy//src/per/adc.h ****     */
  74:../../libDaisy//src/per/adc.h ****     void InitMux(dsy_gpio_pin    adc_pin,
  75:../../libDaisy//src/per/adc.h ****                  size_t          mux_channels,
  76:../../libDaisy//src/per/adc.h ****                  dsy_gpio_pin    mux_0,
  77:../../libDaisy//src/per/adc.h ****                  dsy_gpio_pin    mux_1 = {DSY_GPIOX, 0},
ARM GAS  /var/folders/z2/7_lhr9dn53s9tj4s0rwtyswm0000gn/T//ccJ9q3ms.s 			page 10


  78:../../libDaisy//src/per/adc.h ****                  dsy_gpio_pin    mux_2 = {DSY_GPIOX, 0},
  79:../../libDaisy//src/per/adc.h ****                  ConversionSpeed speed = SPEED_8CYCLES_5);
  80:../../libDaisy//src/per/adc.h **** 
  81:../../libDaisy//src/per/adc.h ****     dsy_gpio        pin_;                   /**< & */
  82:../../libDaisy//src/per/adc.h ****     dsy_gpio        mux_pin_[MUX_SEL_LAST]; /**< & */
  83:../../libDaisy//src/per/adc.h ****     uint8_t         mux_channels_;          /**< & */
  84:../../libDaisy//src/per/adc.h ****     ConversionSpeed speed_;
  85:../../libDaisy//src/per/adc.h **** };
  86:../../libDaisy//src/per/adc.h **** 
  87:../../libDaisy//src/per/adc.h **** /**
  88:../../libDaisy//src/per/adc.h ****    @brief Handler for analog to digital conversion
  89:../../libDaisy//src/per/adc.h **** */
  90:../../libDaisy//src/per/adc.h **** class AdcHandle
  91:../../libDaisy//src/per/adc.h **** {
  92:../../libDaisy//src/per/adc.h ****   public:
  93:../../libDaisy//src/per/adc.h ****     /** Supported oversampling amounts */
  94:../../libDaisy//src/per/adc.h ****     enum OverSampling
  95:../../libDaisy//src/per/adc.h ****     {
  96:../../libDaisy//src/per/adc.h ****         OVS_NONE, /**< & */
  97:../../libDaisy//src/per/adc.h ****         OVS_4,    /**< & */
  98:../../libDaisy//src/per/adc.h ****         OVS_8,    /**< & */
  99:../../libDaisy//src/per/adc.h ****         OVS_16,   /**< & */
 100:../../libDaisy//src/per/adc.h ****         OVS_32,   /**< & */
 101:../../libDaisy//src/per/adc.h ****         OVS_64,   /**< & */
 102:../../libDaisy//src/per/adc.h ****         OVS_128,  /**< & */
 103:../../libDaisy//src/per/adc.h ****         OVS_256,  /**< & */
 104:../../libDaisy//src/per/adc.h ****         OVS_512,  /**< & */
 105:../../libDaisy//src/per/adc.h ****         OVS_1024, /**< & */
 106:../../libDaisy//src/per/adc.h ****         OVS_LAST, /**< & */
 107:../../libDaisy//src/per/adc.h ****     };
 108:../../libDaisy//src/per/adc.h **** 
 109:../../libDaisy//src/per/adc.h ****     AdcHandle() {}
 110:../../libDaisy//src/per/adc.h ****     ~AdcHandle() {}
 117              		.loc 10 110 5 is_stmt 1 view .LVU28
 118              		.loc 10 110 5 is_stmt 0 view .LVU29
 119              	.LBE491:
 120              	.LBB492:
 121              	.LBI492:
 122              		.file 11 "../../libDaisy//src/hid/audio.h"
   1:../../libDaisy//src/hid/audio.h **** #ifndef DSY_AUDIO_H
   2:../../libDaisy//src/hid/audio.h **** #define DSY_AUDIO_H /**< & */
   3:../../libDaisy//src/hid/audio.h **** 
   4:../../libDaisy//src/hid/audio.h **** #include "per/sai.h"
   5:../../libDaisy//src/hid/audio.h **** 
   6:../../libDaisy//src/hid/audio.h **** namespace daisy
   7:../../libDaisy//src/hid/audio.h **** {
   8:../../libDaisy//src/hid/audio.h **** /** @brief Audio Engine Handle
   9:../../libDaisy//src/hid/audio.h ****  *  @ingroup audio 
  10:../../libDaisy//src/hid/audio.h ****  *  @details This class allows for higher level access to an audio engine.
  11:../../libDaisy//src/hid/audio.h ****  *           If you're using a SOM like the DaisySeed or DaisyPatchSM (or any 
  12:../../libDaisy//src/hid/audio.h ****  *            board that includes one of those objects) then the intialization
  13:../../libDaisy//src/hid/audio.h ****  *            is already taken  care of.
  14:../../libDaisy//src/hid/audio.h ****  *           If you're setting up your own custom hardware, or need to make changes
  15:../../libDaisy//src/hid/audio.h ****  *           you will have to take the following steps:
  16:../../libDaisy//src/hid/audio.h ****  *             1. Create and Initialize an SaiHandle or two depending on your requirements
  17:../../libDaisy//src/hid/audio.h ****  *             2. Initialize the Audio Handle with the desired settings and the Initialized SaiHand
  18:../../libDaisy//src/hid/audio.h ****  *             3. If the connected codec requires special configuration or initialization, do so
ARM GAS  /var/folders/z2/7_lhr9dn53s9tj4s0rwtyswm0000gn/T//ccJ9q3ms.s 			page 11


  19:../../libDaisy//src/hid/audio.h ****  *             4. Write a callback method using either the AudioCallback or the InterleavingAudioCa
  20:../../libDaisy//src/hid/audio.h ****  *             5. Start the Audio using one of the StartAudio function
  21:../../libDaisy//src/hid/audio.h ****  */
  22:../../libDaisy//src/hid/audio.h **** class AudioHandle
  23:../../libDaisy//src/hid/audio.h **** {
  24:../../libDaisy//src/hid/audio.h ****   public:
  25:../../libDaisy//src/hid/audio.h ****     /** Manually configurable details about the Audio Engine */
  26:../../libDaisy//src/hid/audio.h ****     /** TODO: Figure out how to get samplerate in here. */
  27:../../libDaisy//src/hid/audio.h ****     struct Config
  28:../../libDaisy//src/hid/audio.h ****     {
  29:../../libDaisy//src/hid/audio.h ****         /** number of samples to process per callback */
  30:../../libDaisy//src/hid/audio.h ****         size_t blocksize = 48;
  31:../../libDaisy//src/hid/audio.h **** 
  32:../../libDaisy//src/hid/audio.h ****         /**< Sample rate of audio */
  33:../../libDaisy//src/hid/audio.h ****         SaiHandle::Config::SampleRate samplerate
  34:../../libDaisy//src/hid/audio.h ****             = SaiHandle::Config::SampleRate::SAI_48KHZ;
  35:../../libDaisy//src/hid/audio.h **** 
  36:../../libDaisy//src/hid/audio.h ****         /** factor for adjustment before and after callback for hardware that may have extra headro
  37:../../libDaisy//src/hid/audio.h ****         float postgain = 1.f;
  38:../../libDaisy//src/hid/audio.h **** 
  39:../../libDaisy//src/hid/audio.h ****         /** factor for additional one-sided compensation to audio path for hardware that may
  40:../../libDaisy//src/hid/audio.h ****          *  have unequal input/output ranges
  41:../../libDaisy//src/hid/audio.h ****          */
  42:../../libDaisy//src/hid/audio.h ****         float output_compensation = 1.f;
  43:../../libDaisy//src/hid/audio.h ****     };
  44:../../libDaisy//src/hid/audio.h **** 
  45:../../libDaisy//src/hid/audio.h ****     enum class Result
  46:../../libDaisy//src/hid/audio.h ****     {
  47:../../libDaisy//src/hid/audio.h ****         OK,
  48:../../libDaisy//src/hid/audio.h ****         ERR,
  49:../../libDaisy//src/hid/audio.h ****     };
  50:../../libDaisy//src/hid/audio.h **** 
  51:../../libDaisy//src/hid/audio.h ****     /** Non-Interleaving input buffer
  52:../../libDaisy//src/hid/audio.h ****      * Buffer arranged by float[chn][sample] 
  53:../../libDaisy//src/hid/audio.h ****      * const so that the user can't modify the input
  54:../../libDaisy//src/hid/audio.h ****      */
  55:../../libDaisy//src/hid/audio.h ****     typedef const float* const* InputBuffer;
  56:../../libDaisy//src/hid/audio.h **** 
  57:../../libDaisy//src/hid/audio.h ****     /** Non-Interleaving output buffer
  58:../../libDaisy//src/hid/audio.h ****      * Arranged by float[chn][sample] 
  59:../../libDaisy//src/hid/audio.h ****      */
  60:../../libDaisy//src/hid/audio.h ****     typedef float** OutputBuffer;
  61:../../libDaisy//src/hid/audio.h **** 
  62:../../libDaisy//src/hid/audio.h ****     /** Type for a Non-Interleaving audio callback 
  63:../../libDaisy//src/hid/audio.h ****      * Non-Interleaving audio callbacks in daisy will be of this type
  64:../../libDaisy//src/hid/audio.h ****      */
  65:../../libDaisy//src/hid/audio.h ****     typedef void (*AudioCallback)(InputBuffer  in,
  66:../../libDaisy//src/hid/audio.h ****                                   OutputBuffer out,
  67:../../libDaisy//src/hid/audio.h ****                                   size_t       size);
  68:../../libDaisy//src/hid/audio.h **** 
  69:../../libDaisy//src/hid/audio.h ****     /** Interleaving Input buffer
  70:../../libDaisy//src/hid/audio.h ****      ** audio is prepared as { L0, R0, L1, R1, . . . LN, RN }]
  71:../../libDaisy//src/hid/audio.h ****      ** this is const, as the user shouldn't modify it
  72:../../libDaisy//src/hid/audio.h ****     */
  73:../../libDaisy//src/hid/audio.h ****     typedef const float* InterleavingInputBuffer;
  74:../../libDaisy//src/hid/audio.h **** 
  75:../../libDaisy//src/hid/audio.h ****     /** Interleaving Output buffer 
ARM GAS  /var/folders/z2/7_lhr9dn53s9tj4s0rwtyswm0000gn/T//ccJ9q3ms.s 			page 12


  76:../../libDaisy//src/hid/audio.h ****      ** audio is prepared as { L0, R0, L1, R1, . . . LN, RN }
  77:../../libDaisy//src/hid/audio.h ****     */
  78:../../libDaisy//src/hid/audio.h ****     typedef float* InterleavingOutputBuffer;
  79:../../libDaisy//src/hid/audio.h **** 
  80:../../libDaisy//src/hid/audio.h ****     /** Interleaving Audio Callback 
  81:../../libDaisy//src/hid/audio.h ****      * Interleaving audio callbacks in daisy must be of this type
  82:../../libDaisy//src/hid/audio.h ****      */
  83:../../libDaisy//src/hid/audio.h ****     typedef void (*InterleavingAudioCallback)(InterleavingInputBuffer  in,
  84:../../libDaisy//src/hid/audio.h ****                                               InterleavingOutputBuffer out,
  85:../../libDaisy//src/hid/audio.h ****                                               size_t                   size);
  86:../../libDaisy//src/hid/audio.h **** 
  87:../../libDaisy//src/hid/audio.h ****     AudioHandle() : pimpl_(nullptr) {}
  88:../../libDaisy//src/hid/audio.h ****     ~AudioHandle() {}
 123              		.loc 11 88 5 is_stmt 1 view .LVU30
 124              		.loc 11 88 5 is_stmt 0 view .LVU31
 125              	.LBE492:
 126              	.LBE488:
 127              		.loc 1 31 20 view .LVU32
 128 0000 7047     		bx	lr
 129              		.cfi_endproc
 130              	.LFE2580:
 132              		.weak	_ZN5daisy10TusenskonaD1Ev
 133              		.thumb_set _ZN5daisy10TusenskonaD1Ev,_ZN5daisy10TusenskonaD2Ev
 134 0002 00BF     		.section	.text._ZN7daisysp10OscillatorD2Ev,"axG",%progbits,_ZN7daisysp10OscillatorD5Ev,comdat
 135              		.align	1
 136              		.p2align 2,,3
 137              		.weak	_ZN7daisysp10OscillatorD2Ev
 138              		.syntax unified
 139              		.thumb
 140              		.thumb_func
 142              	_ZN7daisysp10OscillatorD2Ev:
 143              	.LVL1:
 144              	.LFB4263:
 145              		.file 12 "../..//DaisySP//Source/Synthesis/oscillator.h"
   1:../..//DaisySP//Source/Synthesis/oscillator.h **** /*
   2:../..//DaisySP//Source/Synthesis/oscillator.h **** Copyright (c) 2020 Electrosmith, Corp
   3:../..//DaisySP//Source/Synthesis/oscillator.h **** 
   4:../..//DaisySP//Source/Synthesis/oscillator.h **** Use of this source code is governed by an MIT-style
   5:../..//DaisySP//Source/Synthesis/oscillator.h **** license that can be found in the LICENSE file or at
   6:../..//DaisySP//Source/Synthesis/oscillator.h **** https://opensource.org/licenses/MIT.
   7:../..//DaisySP//Source/Synthesis/oscillator.h **** */
   8:../..//DaisySP//Source/Synthesis/oscillator.h **** 
   9:../..//DaisySP//Source/Synthesis/oscillator.h **** #pragma once
  10:../..//DaisySP//Source/Synthesis/oscillator.h **** #ifndef DSY_OSCILLATOR_H
  11:../..//DaisySP//Source/Synthesis/oscillator.h **** #define DSY_OSCILLATOR_H
  12:../..//DaisySP//Source/Synthesis/oscillator.h **** #include <stdint.h>
  13:../..//DaisySP//Source/Synthesis/oscillator.h **** #include "Utility/dsp.h"
  14:../..//DaisySP//Source/Synthesis/oscillator.h **** #ifdef __cplusplus
  15:../..//DaisySP//Source/Synthesis/oscillator.h **** 
  16:../..//DaisySP//Source/Synthesis/oscillator.h **** namespace daisysp
  17:../..//DaisySP//Source/Synthesis/oscillator.h **** {
  18:../..//DaisySP//Source/Synthesis/oscillator.h **** /** Synthesis of several waveforms, including polyBLEP bandlimited waveforms.
  19:../..//DaisySP//Source/Synthesis/oscillator.h **** */
  20:../..//DaisySP//Source/Synthesis/oscillator.h **** class Oscillator
  21:../..//DaisySP//Source/Synthesis/oscillator.h **** {
  22:../..//DaisySP//Source/Synthesis/oscillator.h ****   public:
  23:../..//DaisySP//Source/Synthesis/oscillator.h ****     Oscillator() {}
ARM GAS  /var/folders/z2/7_lhr9dn53s9tj4s0rwtyswm0000gn/T//ccJ9q3ms.s 			page 13


  24:../..//DaisySP//Source/Synthesis/oscillator.h ****     ~Oscillator() {}
 146              		.loc 12 24 5 is_stmt 1 view -0
 147              		.cfi_startproc
 148              		@ args = 0, pretend = 0, frame = 0
 149              		@ frame_needed = 0, uses_anonymous_args = 0
 150              		@ link register save eliminated.
 151              		.loc 12 24 20 is_stmt 0 view .LVU34
 152 0000 7047     		bx	lr
 153              		.cfi_endproc
 154              	.LFE4263:
 156              		.weak	_ZN7daisysp10OscillatorD1Ev
 157              		.thumb_set _ZN7daisysp10OscillatorD1Ev,_ZN7daisysp10OscillatorD2Ev
 158 0002 00BF     		.section	.text._Z14UpdateControlsv,"ax",%progbits
 159              		.align	1
 160              		.p2align 2,,3
 161              		.global	_Z14UpdateControlsv
 162              		.syntax unified
 163              		.thumb
 164              		.thumb_func
 166              	_Z14UpdateControlsv:
 167              	.LFB4782:
 168              		.file 13 "chebyshev.cpp"
   1:chebyshev.cpp **** #include "../../tusenskona/src/tusenskona.h"
   2:chebyshev.cpp **** #include "daisysp.h"
   3:chebyshev.cpp **** #include "shaper.h"
   4:chebyshev.cpp **** 
   5:chebyshev.cpp **** #include <array>
   6:chebyshev.cpp **** using namespace daisy;
   7:chebyshev.cpp **** using namespace daisysp;
   8:chebyshev.cpp **** 
   9:chebyshev.cpp **** 
  10:chebyshev.cpp **** void UpdateControls();
  11:chebyshev.cpp **** 
  12:chebyshev.cpp **** Tusenskona hw;
  13:chebyshev.cpp **** 
  14:chebyshev.cpp **** float freq = 440.f;
  15:chebyshev.cpp **** 
  16:chebyshev.cpp **** Shaper<512> shaper;
  17:chebyshev.cpp **** Shaper<512> shaper2;
  18:chebyshev.cpp **** 
  19:chebyshev.cpp **** Oscillator sine;
  20:chebyshev.cpp **** 
  21:chebyshev.cpp **** namespace mcon {
  22:chebyshev.cpp ****     constexpr float pi = 3.14159265358979323846f; 
  23:chebyshev.cpp ****     constexpr float twopi = 2.f*pi; 
  24:chebyshev.cpp ****     constexpr float e = 2.71828182845904523536f;
  25:chebyshev.cpp **** }
  26:chebyshev.cpp **** 
  27:chebyshev.cpp **** float waver[512];
  28:chebyshev.cpp **** float x = 0,y = 0;
  29:chebyshev.cpp **** float ph = 0.f;
  30:chebyshev.cpp **** float ph2 = 0.f;
  31:chebyshev.cpp **** float inc = 0.00001f;
  32:chebyshev.cpp **** float inc2 = 0.0001f;
  33:chebyshev.cpp **** float z = 0.f;
  34:chebyshev.cpp **** 
  35:chebyshev.cpp **** void AudioCallback(AudioHandle::InputBuffer in, AudioHandle::OutputBuffer out, size_t size)
ARM GAS  /var/folders/z2/7_lhr9dn53s9tj4s0rwtyswm0000gn/T//ccJ9q3ms.s 			page 14


  36:chebyshev.cpp **** {
  37:chebyshev.cpp ****     UpdateControls();
  38:chebyshev.cpp ****     for (size_t i = 0; i < size; i++)
  39:chebyshev.cpp ****     {
  40:chebyshev.cpp ****         out[0][i] = 0.f;
  41:chebyshev.cpp ****         out[1][i] = 0.f;
  42:chebyshev.cpp ****         out[2][i] = 0.f;
  43:chebyshev.cpp ****         out[3][i] = 0.f;
  44:chebyshev.cpp ****         float s = sine.Process();
  45:chebyshev.cpp ****         float y = shaper2.process(shaper.process(s))*0.5 + s*0.5;
  46:chebyshev.cpp ****         out[0][i] = y;
  47:chebyshev.cpp ****         out[1][i] = y; 
  48:chebyshev.cpp ****         out[0][i] *= z;
  49:chebyshev.cpp ****         out[1][i] *= z;
  50:chebyshev.cpp ****         float * ws = shaper.getWeights();
  51:chebyshev.cpp ****         for (uint_fast8_t i = 0; i < 10; ++i) {
  52:chebyshev.cpp ****              ws[i] = waver[(52*i + static_cast<int>(ph*512))%512]; 
  53:chebyshev.cpp ****         }
  54:chebyshev.cpp ****         ws = shaper2.getWeights();
  55:chebyshev.cpp ****         for (uint_fast8_t i = 0; i < 10; ++i) {
  56:chebyshev.cpp ****              ws[i] = waver[(52*i + static_cast<int>(ph2*512))%512]; 
  57:chebyshev.cpp ****        }
  58:chebyshev.cpp ****         ph = fmod(ph + inc, 1.f);
  59:chebyshev.cpp ****         ph2 = fmod(ph2 + inc2, 1.f);
  60:chebyshev.cpp ****     }
  61:chebyshev.cpp **** }
  62:chebyshev.cpp **** 
  63:chebyshev.cpp **** void UpdateControls()
  64:chebyshev.cpp **** {
 169              		.loc 13 64 1 is_stmt 1 view -0
 170              		.cfi_startproc
 171              		@ args = 0, pretend = 0, frame = 0
 172              		@ frame_needed = 0, uses_anonymous_args = 0
  65:chebyshev.cpp ****     hw.ProcessAllControls();
 173              		.loc 13 65 5 view .LVU36
 174              	.LVL2:
 175              	.LBB493:
 176              	.LBI493:
  32:../../tusenskona/src/tusenskona.h **** 
  33:../../tusenskona/src/tusenskona.h ****     /** Init related stuff. */
  34:../../tusenskona/src/tusenskona.h ****     void Init(bool boost = false);
  35:../../tusenskona/src/tusenskona.h **** 
  36:../../tusenskona/src/tusenskona.h ****     /** Wait for a bit
  37:../../tusenskona/src/tusenskona.h ****     \param del Time to wait in ms.
  38:../../tusenskona/src/tusenskona.h ****     */
  39:../../tusenskona/src/tusenskona.h ****     void DelayMs(size_t del);
  40:../../tusenskona/src/tusenskona.h **** 
  41:../../tusenskona/src/tusenskona.h ****     /** Starts the callback
  42:../../tusenskona/src/tusenskona.h ****     \param cb Interleaved callback function
  43:../../tusenskona/src/tusenskona.h ****     */
  44:../../tusenskona/src/tusenskona.h ****     void StartAudio(AudioHandle::InterleavingAudioCallback cb);
  45:../../tusenskona/src/tusenskona.h **** 
  46:../../tusenskona/src/tusenskona.h ****     /** Starts the callback
  47:../../tusenskona/src/tusenskona.h ****     \param cb multichannel callback function
  48:../../tusenskona/src/tusenskona.h ****     */
  49:../../tusenskona/src/tusenskona.h ****     void StartAudio(AudioHandle::AudioCallback cb);
  50:../../tusenskona/src/tusenskona.h **** 
ARM GAS  /var/folders/z2/7_lhr9dn53s9tj4s0rwtyswm0000gn/T//ccJ9q3ms.s 			page 15


  51:../../tusenskona/src/tusenskona.h ****     /**
  52:../../tusenskona/src/tusenskona.h ****        Switch callback functions
  53:../../tusenskona/src/tusenskona.h ****        \param cb New interleaved callback function.
  54:../../tusenskona/src/tusenskona.h ****     */
  55:../../tusenskona/src/tusenskona.h ****     void ChangeAudioCallback(AudioHandle::InterleavingAudioCallback cb);
  56:../../tusenskona/src/tusenskona.h **** 
  57:../../tusenskona/src/tusenskona.h ****     /**
  58:../../tusenskona/src/tusenskona.h ****        Switch callback functions
  59:../../tusenskona/src/tusenskona.h ****        \param cb New multichannel callback function.
  60:../../tusenskona/src/tusenskona.h ****     */
  61:../../tusenskona/src/tusenskona.h ****     void ChangeAudioCallback(AudioHandle::AudioCallback cb);
  62:../../tusenskona/src/tusenskona.h **** 
  63:../../tusenskona/src/tusenskona.h ****     /** Stops the audio if it is running. */
  64:../../tusenskona/src/tusenskona.h ****     void StopAudio();
  65:../../tusenskona/src/tusenskona.h **** 
  66:../../tusenskona/src/tusenskona.h ****     /** Updates the Audio Sample Rate, and reinitializes.
  67:../../tusenskona/src/tusenskona.h ****      ** Audio must be stopped for this to work.
  68:../../tusenskona/src/tusenskona.h ****      */
  69:../../tusenskona/src/tusenskona.h ****     void SetAudioSampleRate(SaiHandle::Config::SampleRate samplerate);
  70:../../tusenskona/src/tusenskona.h **** 
  71:../../tusenskona/src/tusenskona.h ****     /** Returns the audio sample rate in Hz as a floating point number.
  72:../../tusenskona/src/tusenskona.h ****      */
  73:../../tusenskona/src/tusenskona.h ****     float AudioSampleRate();
  74:../../tusenskona/src/tusenskona.h **** 
  75:../../tusenskona/src/tusenskona.h ****     /** Sets the number of samples processed per channel by the audio callback.
  76:../../tusenskona/src/tusenskona.h ****      */
  77:../../tusenskona/src/tusenskona.h ****     void SetAudioBlockSize(size_t blocksize);
  78:../../tusenskona/src/tusenskona.h **** 
  79:../../tusenskona/src/tusenskona.h ****     /** Returns the number of samples per channel in a block of audio. */
  80:../../tusenskona/src/tusenskona.h ****     size_t AudioBlockSize();
  81:../../tusenskona/src/tusenskona.h **** 
  82:../../tusenskona/src/tusenskona.h ****     /** Returns the rate in Hz that the Audio callback is called */
  83:../../tusenskona/src/tusenskona.h ****     float AudioCallbackRate();
  84:../../tusenskona/src/tusenskona.h **** 
  85:../../tusenskona/src/tusenskona.h ****     /**
  86:../../tusenskona/src/tusenskona.h ****        Start analog to digital conversion.
  87:../../tusenskona/src/tusenskona.h ****      */
  88:../../tusenskona/src/tusenskona.h ****     void StartAdc();
  89:../../tusenskona/src/tusenskona.h **** 
  90:../../tusenskona/src/tusenskona.h ****     /** Stops Transfering data from the ADC */
  91:../../tusenskona/src/tusenskona.h ****     void StopAdc();
  92:../../tusenskona/src/tusenskona.h **** 
  93:../../tusenskona/src/tusenskona.h ****     /** Call at same rate as analog reads for smooth reading.*/
  94:../../tusenskona/src/tusenskona.h ****     void ProcessAnalogControls();
  95:../../tusenskona/src/tusenskona.h **** 
  96:../../tusenskona/src/tusenskona.h ****     /** Process Analog and Digital Controls */
  97:../../tusenskona/src/tusenskona.h ****     inline void ProcessAllControls()
 177              		.loc 1 97 17 view .LVU37
 178              	.LBB494:
  98:../../tusenskona/src/tusenskona.h ****     {
  99:../../tusenskona/src/tusenskona.h ****         ProcessAnalogControls();
 179              		.loc 1 99 9 view .LVU38
 180              	.LBE494:
 181              	.LBE493:
  64:chebyshev.cpp ****     hw.ProcessAllControls();
 182              		.loc 13 64 1 is_stmt 0 view .LVU39
 183 0000 38B5     		push	{r3, r4, r5, lr}
ARM GAS  /var/folders/z2/7_lhr9dn53s9tj4s0rwtyswm0000gn/T//ccJ9q3ms.s 			page 16


 184              		.cfi_def_cfa_offset 16
 185              		.cfi_offset 3, -16
 186              		.cfi_offset 4, -12
 187              		.cfi_offset 5, -8
 188              		.cfi_offset 14, -4
 189              	.LBB498:
 190              	.LBB495:
 191              		.loc 1 99 30 view .LVU40
 192 0002 224C     		ldr	r4, .L6
 193              	.LBE495:
 194              	.LBE498:
 195              	.LBB499:
 196              	.LBB500:
  25:../..//DaisySP//Source/Synthesis/oscillator.h ****     /** Choices for output waveforms, POLYBLEP are appropriately labeled. Others are naive forms.
  26:../..//DaisySP//Source/Synthesis/oscillator.h ****     */
  27:../..//DaisySP//Source/Synthesis/oscillator.h ****     enum
  28:../..//DaisySP//Source/Synthesis/oscillator.h ****     {
  29:../..//DaisySP//Source/Synthesis/oscillator.h ****         WAVE_SIN,
  30:../..//DaisySP//Source/Synthesis/oscillator.h ****         WAVE_TRI,
  31:../..//DaisySP//Source/Synthesis/oscillator.h ****         WAVE_SAW,
  32:../..//DaisySP//Source/Synthesis/oscillator.h ****         WAVE_RAMP,
  33:../..//DaisySP//Source/Synthesis/oscillator.h ****         WAVE_SQUARE,
  34:../..//DaisySP//Source/Synthesis/oscillator.h ****         WAVE_POLYBLEP_TRI,
  35:../..//DaisySP//Source/Synthesis/oscillator.h ****         WAVE_POLYBLEP_SAW,
  36:../..//DaisySP//Source/Synthesis/oscillator.h ****         WAVE_POLYBLEP_SQUARE,
  37:../..//DaisySP//Source/Synthesis/oscillator.h ****         WAVE_LAST,
  38:../..//DaisySP//Source/Synthesis/oscillator.h ****     };
  39:../..//DaisySP//Source/Synthesis/oscillator.h **** 
  40:../..//DaisySP//Source/Synthesis/oscillator.h **** 
  41:../..//DaisySP//Source/Synthesis/oscillator.h ****     /** Initializes the Oscillator
  42:../..//DaisySP//Source/Synthesis/oscillator.h **** 
  43:../..//DaisySP//Source/Synthesis/oscillator.h ****         \param sample_rate - sample rate of the audio engine being run, and the frequency that the 
  44:../..//DaisySP//Source/Synthesis/oscillator.h **** 
  45:../..//DaisySP//Source/Synthesis/oscillator.h ****         Defaults:
  46:../..//DaisySP//Source/Synthesis/oscillator.h ****         - freq_ = 100 Hz
  47:../..//DaisySP//Source/Synthesis/oscillator.h ****         - amp_ = 0.5
  48:../..//DaisySP//Source/Synthesis/oscillator.h ****         - waveform_ = sine wave.
  49:../..//DaisySP//Source/Synthesis/oscillator.h ****     */
  50:../..//DaisySP//Source/Synthesis/oscillator.h ****     void Init(float sample_rate)
  51:../..//DaisySP//Source/Synthesis/oscillator.h ****     {
  52:../..//DaisySP//Source/Synthesis/oscillator.h ****         sr_        = sample_rate;
  53:../..//DaisySP//Source/Synthesis/oscillator.h ****         sr_recip_  = 1.0f / sample_rate;
  54:../..//DaisySP//Source/Synthesis/oscillator.h ****         freq_      = 100.0f;
  55:../..//DaisySP//Source/Synthesis/oscillator.h ****         amp_       = 0.5f;
  56:../..//DaisySP//Source/Synthesis/oscillator.h ****         pw_        = 0.5f;
  57:../..//DaisySP//Source/Synthesis/oscillator.h ****         phase_     = 0.0f;
  58:../..//DaisySP//Source/Synthesis/oscillator.h ****         phase_inc_ = CalcPhaseInc(freq_);
  59:../..//DaisySP//Source/Synthesis/oscillator.h ****         waveform_  = WAVE_SIN;
  60:../..//DaisySP//Source/Synthesis/oscillator.h ****         eoc_       = true;
  61:../..//DaisySP//Source/Synthesis/oscillator.h ****         eor_       = true;
  62:../..//DaisySP//Source/Synthesis/oscillator.h ****     }
  63:../..//DaisySP//Source/Synthesis/oscillator.h **** 
  64:../..//DaisySP//Source/Synthesis/oscillator.h **** 
  65:../..//DaisySP//Source/Synthesis/oscillator.h ****     /** Changes the frequency of the Oscillator, and recalculates phase increment.
  66:../..//DaisySP//Source/Synthesis/oscillator.h ****     */
  67:../..//DaisySP//Source/Synthesis/oscillator.h ****     inline void SetFreq(const float f)
  68:../..//DaisySP//Source/Synthesis/oscillator.h ****     {
ARM GAS  /var/folders/z2/7_lhr9dn53s9tj4s0rwtyswm0000gn/T//ccJ9q3ms.s 			page 17


  69:../..//DaisySP//Source/Synthesis/oscillator.h ****         freq_      = f;
 197              		.loc 12 69 20 view .LVU41
 198 0004 224D     		ldr	r5, .L6+4
 199              	.LBE500:
 200              	.LBE499:
 201              	.LBB504:
 202              	.LBB496:
 203              		.loc 1 99 30 view .LVU42
 204 0006 2046     		mov	r0, r4
 205              	.LBE496:
 206              	.LBE504:
  64:chebyshev.cpp ****     hw.ProcessAllControls();
 207              		.loc 13 64 1 view .LVU43
 208 0008 2DED028B 		vpush.64	{d8}
 209              		.cfi_def_cfa_offset 24
 210              		.cfi_offset 80, -24
 211              		.cfi_offset 81, -20
 212              	.LBB505:
 213              	.LBB497:
 214              		.loc 1 99 30 view .LVU44
 215 000c FFF7FEFF 		bl	_ZN5daisy10Tusenskona21ProcessAnalogControlsEv
 216              	.LVL3:
 100:../../tusenskona/src/tusenskona.h ****         ProcessDigitalControls();
 217              		.loc 1 100 9 is_stmt 1 view .LVU45
 218              		.loc 1 100 31 is_stmt 0 view .LVU46
 219 0010 2046     		mov	r0, r4
 220 0012 FFF7FEFF 		bl	_ZN5daisy10Tusenskona22ProcessDigitalControlsEv
 221              	.LVL4:
 222              		.loc 1 100 31 view .LVU47
 223              	.LBE497:
 224              	.LBE505:
  66:chebyshev.cpp **** 
  67:chebyshev.cpp ****     float ctrl = hw.GetKnobValue((Tusenskona::Knob)0);
 225              		.loc 13 67 5 is_stmt 1 view .LVU48
 226              		.loc 13 67 33 is_stmt 0 view .LVU49
 227 0016 0021     		movs	r1, #0
 228 0018 2046     		mov	r0, r4
  68:chebyshev.cpp ****         
  69:chebyshev.cpp ****     freq = powf(2.f,6.0f*ctrl) * 30.f; 
  70:chebyshev.cpp ****     sine.SetFreq(freq);
  71:chebyshev.cpp ****     inc = hw.GetKnobValue((Tusenskona::Knob)1)/1000;
 229              		.loc 13 71 47 view .LVU50
 230 001a 9FED1E8A 		vldr.32	s16, .L6+8
  67:chebyshev.cpp ****         
 231              		.loc 13 67 33 view .LVU51
 232 001e FFF7FEFF 		bl	_ZN5daisy10Tusenskona12GetKnobValueENS0_4KnobE
 233              	.LVL5:
  69:chebyshev.cpp ****     sine.SetFreq(freq);
 234              		.loc 13 69 16 view .LVU52
 235 0022 F1EE087A 		vmov.f32	s15, #6.0e+0
  67:chebyshev.cpp ****         
 236              		.loc 13 67 33 view .LVU53
 237 0026 F0EE400A 		vmov.f32	s1, s0
 238              	.LVL6:
  69:chebyshev.cpp ****     sine.SetFreq(freq);
 239              		.loc 13 69 5 is_stmt 1 view .LVU54
  69:chebyshev.cpp ****     sine.SetFreq(freq);
ARM GAS  /var/folders/z2/7_lhr9dn53s9tj4s0rwtyswm0000gn/T//ccJ9q3ms.s 			page 18


 240              		.loc 13 69 16 is_stmt 0 view .LVU55
 241 002a B0EE000A 		vmov.f32	s0, #2.0e+0
 242              	.LVL7:
  69:chebyshev.cpp ****     sine.SetFreq(freq);
 243              		.loc 13 69 16 view .LVU56
 244 002e 60EEA70A 		vmul.f32	s1, s1, s15
 245              	.LVL8:
  69:chebyshev.cpp ****     sine.SetFreq(freq);
 246              		.loc 13 69 16 view .LVU57
 247 0032 FFF7FEFF 		bl	powf
 248              	.LVL9:
  69:chebyshev.cpp ****     sine.SetFreq(freq);
 249              		.loc 13 69 32 view .LVU58
 250 0036 F3EE0E7A 		vmov.f32	s15, #3.0e+1
  69:chebyshev.cpp ****     sine.SetFreq(freq);
 251              		.loc 13 69 10 view .LVU59
 252 003a 174B     		ldr	r3, .L6+12
 253              	.LBB506:
 254              	.LBB501:
  70:../..//DaisySP//Source/Synthesis/oscillator.h ****         phase_inc_ = CalcPhaseInc(f);
 255              		.loc 12 70 34 view .LVU60
 256 003c 2846     		mov	r0, r5
 257              	.LBE501:
 258              	.LBE506:
  69:chebyshev.cpp ****     sine.SetFreq(freq);
 259              		.loc 13 69 32 view .LVU61
 260 003e 20EE270A 		vmul.f32	s0, s0, s15
  69:chebyshev.cpp ****     sine.SetFreq(freq);
 261              		.loc 13 69 10 view .LVU62
 262 0042 83ED000A 		vstr.32	s0, [r3]
  70:chebyshev.cpp ****     inc = hw.GetKnobValue((Tusenskona::Knob)1)/1000;
 263              		.loc 13 70 5 is_stmt 1 view .LVU63
 264              	.LVL10:
 265              	.LBB507:
 266              	.LBI499:
  67:../..//DaisySP//Source/Synthesis/oscillator.h ****     {
 267              		.loc 12 67 17 view .LVU64
 268              	.LBB502:
  69:../..//DaisySP//Source/Synthesis/oscillator.h ****         phase_inc_ = CalcPhaseInc(f);
 269              		.loc 12 69 9 view .LVU65
  69:../..//DaisySP//Source/Synthesis/oscillator.h ****         phase_inc_ = CalcPhaseInc(f);
 270              		.loc 12 69 20 is_stmt 0 view .LVU66
 271 0046 85ED020A 		vstr.32	s0, [r5, #8]
 272              		.loc 12 70 9 is_stmt 1 view .LVU67
 273              		.loc 12 70 34 is_stmt 0 view .LVU68
 274 004a FFF7FEFF 		bl	_ZN7daisysp10Oscillator12CalcPhaseIncEf
 275              	.LVL11:
 276              		.loc 12 70 34 view .LVU69
 277              	.LBE502:
 278              	.LBE507:
 279              		.loc 13 71 26 view .LVU70
 280 004e 0121     		movs	r1, #1
 281 0050 2046     		mov	r0, r4
 282              	.LBB508:
 283              	.LBB503:
 284              		.loc 12 70 20 view .LVU71
 285 0052 85ED070A 		vstr.32	s0, [r5, #28]
ARM GAS  /var/folders/z2/7_lhr9dn53s9tj4s0rwtyswm0000gn/T//ccJ9q3ms.s 			page 19


 286              	.LVL12:
 287              		.loc 12 70 20 view .LVU72
 288              	.LBE503:
 289              	.LBE508:
 290              		.loc 13 71 5 is_stmt 1 view .LVU73
 291              		.loc 13 71 26 is_stmt 0 view .LVU74
 292 0056 FFF7FEFF 		bl	_ZN5daisy10Tusenskona12GetKnobValueENS0_4KnobE
 293              	.LVL13:
 294              		.loc 13 71 47 view .LVU75
 295 005a C0EE087A 		vdiv.f32	s15, s0, s16
 296              		.loc 13 71 9 view .LVU76
 297 005e 0F4B     		ldr	r3, .L6+16
  72:chebyshev.cpp ****     inc2 = hw.GetKnobValue((Tusenskona::Knob)2)/1000;
 298              		.loc 13 72 27 view .LVU77
 299 0060 0221     		movs	r1, #2
 300 0062 2046     		mov	r0, r4
  71:chebyshev.cpp ****     inc2 = hw.GetKnobValue((Tusenskona::Knob)2)/1000;
 301              		.loc 13 71 9 view .LVU78
 302 0064 C3ED007A 		vstr.32	s15, [r3]
 303              		.loc 13 72 5 is_stmt 1 view .LVU79
 304              		.loc 13 72 27 is_stmt 0 view .LVU80
 305 0068 FFF7FEFF 		bl	_ZN5daisy10Tusenskona12GetKnobValueENS0_4KnobE
 306              	.LVL14:
 307              		.loc 13 72 48 view .LVU81
 308 006c C0EE087A 		vdiv.f32	s15, s0, s16
 309              		.loc 13 72 10 view .LVU82
 310 0070 0B4B     		ldr	r3, .L6+20
  73:chebyshev.cpp ****     z = hw.GetKnobValue((Tusenskona::Knob)3);
 311              		.loc 13 73 24 view .LVU83
 312 0072 0321     		movs	r1, #3
 313 0074 2046     		mov	r0, r4
  72:chebyshev.cpp ****     inc2 = hw.GetKnobValue((Tusenskona::Knob)2)/1000;
 314              		.loc 13 72 10 view .LVU84
 315 0076 C3ED007A 		vstr.32	s15, [r3]
 316              		.loc 13 73 5 is_stmt 1 view .LVU85
 317              		.loc 13 73 24 is_stmt 0 view .LVU86
 318 007a FFF7FEFF 		bl	_ZN5daisy10Tusenskona12GetKnobValueENS0_4KnobE
 319              	.LVL15:
 320              		.loc 13 73 7 view .LVU87
 321 007e 094B     		ldr	r3, .L6+24
  74:chebyshev.cpp ****     
  75:chebyshev.cpp **** }
 322              		.loc 13 75 1 view .LVU88
 323 0080 BDEC028B 		vldm	sp!, {d8}
 324              		.cfi_restore 80
 325              		.cfi_restore 81
 326              		.cfi_def_cfa_offset 16
  73:chebyshev.cpp ****     z = hw.GetKnobValue((Tusenskona::Knob)3);
 327              		.loc 13 73 7 view .LVU89
 328 0084 83ED000A 		vstr.32	s0, [r3]
 329              		.loc 13 75 1 view .LVU90
 330 0088 38BD     		pop	{r3, r4, r5, pc}
 331              	.L7:
 332 008a 00BF     		.align	2
 333              	.L6:
 334 008c 00000000 		.word	.LANCHOR0
 335 0090 00000000 		.word	.LANCHOR2
ARM GAS  /var/folders/z2/7_lhr9dn53s9tj4s0rwtyswm0000gn/T//ccJ9q3ms.s 			page 20


 336 0094 00007A44 		.word	1148846080
 337 0098 00000000 		.word	.LANCHOR1
 338 009c 00000000 		.word	.LANCHOR3
 339 00a0 00000000 		.word	.LANCHOR4
 340 00a4 00000000 		.word	.LANCHOR5
 341              		.cfi_endproc
 342              	.LFE4782:
 344              		.section	.text._Z9UpdateLedv,"ax",%progbits
 345              		.align	1
 346              		.p2align 2,,3
 347              		.global	_Z9UpdateLedv
 348              		.syntax unified
 349              		.thumb
 350              		.thumb_func
 352              	_Z9UpdateLedv:
 353              	.LFB4783:
  76:chebyshev.cpp **** 
  77:chebyshev.cpp **** void UpdateLed() {
 354              		.loc 13 77 18 is_stmt 1 view -0
 355              		.cfi_startproc
 356              		@ args = 0, pretend = 0, frame = 0
 357              		@ frame_needed = 0, uses_anonymous_args = 0
  78:chebyshev.cpp ****     hw.led.Set(sinf(ph*mcon::twopi), 0, 1-sinf(ph2*mcon::twopi));
 358              		.loc 13 78 5 view .LVU92
 359              		.loc 13 78 15 is_stmt 0 view .LVU93
 360 0000 154B     		ldr	r3, .L10
  77:chebyshev.cpp ****     hw.led.Set(sinf(ph*mcon::twopi), 0, 1-sinf(ph2*mcon::twopi));
 361              		.loc 13 77 18 view .LVU94
 362 0002 10B5     		push	{r4, lr}
 363              		.cfi_def_cfa_offset 8
 364              		.cfi_offset 4, -8
 365              		.cfi_offset 14, -4
 366              		.loc 13 78 15 view .LVU95
 367 0004 93ED000A 		vldr.32	s0, [r3]
 368 0008 144C     		ldr	r4, .L10+4
  77:chebyshev.cpp ****     hw.led.Set(sinf(ph*mcon::twopi), 0, 1-sinf(ph2*mcon::twopi));
 369              		.loc 13 77 18 view .LVU96
 370 000a 2DED028B 		vpush.64	{d8}
 371              		.cfi_def_cfa_offset 16
 372              		.cfi_offset 80, -16
 373              		.cfi_offset 81, -12
 374              		.loc 13 78 15 view .LVU97
 375 000e DFED148A 		vldr.32	s17, .L10+8
 376 0012 20EE280A 		vmul.f32	s0, s0, s17
 377 0016 FFF7FEFF 		bl	sinf
 378              	.LVL16:
 379              		.loc 13 78 47 view .LVU98
 380 001a 124B     		ldr	r3, .L10+12
 381              		.loc 13 78 15 view .LVU99
 382 001c B0EE408A 		vmov.f32	s16, s0
 383              		.loc 13 78 47 view .LVU100
 384 0020 93ED000A 		vldr.32	s0, [r3]
 385 0024 20EE280A 		vmul.f32	s0, s0, s17
 386 0028 FFF7FEFF 		bl	sinf
 387              	.LVL17:
 388              		.loc 13 78 15 view .LVU101
 389 002c F7EE007A 		vmov.f32	s15, #1.0e+0
ARM GAS  /var/folders/z2/7_lhr9dn53s9tj4s0rwtyswm0000gn/T//ccJ9q3ms.s 			page 21


 390              		.loc 13 78 47 view .LVU102
 391 0030 B0EE401A 		vmov.f32	s2, s0
 392              		.loc 13 78 15 view .LVU103
 393 0034 04F59070 		add	r0, r4, #288
 394 0038 B0EE480A 		vmov.f32	s0, s16
 395 003c DFED0A0A 		vldr.32	s1, .L10+16
 396 0040 37EEC11A 		vsub.f32	s2, s15, s2
 397 0044 FFF7FEFF 		bl	_ZN5daisy6RgbLed3SetEfff
 398              	.LVL18:
  79:chebyshev.cpp ****     hw.UpdateLeds();
 399              		.loc 13 79 5 is_stmt 1 view .LVU104
 400              		.loc 13 79 18 is_stmt 0 view .LVU105
 401 0048 2046     		mov	r0, r4
  80:chebyshev.cpp **** }
 402              		.loc 13 80 1 view .LVU106
 403 004a BDEC028B 		vldm	sp!, {d8}
 404              		.cfi_restore 80
 405              		.cfi_restore 81
 406              		.cfi_def_cfa_offset 8
 407 004e BDE81040 		pop	{r4, lr}
 408              		.cfi_restore 14
 409              		.cfi_restore 4
 410              		.cfi_def_cfa_offset 0
  79:chebyshev.cpp ****     hw.UpdateLeds();
 411              		.loc 13 79 18 view .LVU107
 412 0052 FFF7FEBF 		b	_ZN5daisy10Tusenskona10UpdateLedsEv
 413              	.LVL19:
 414              	.L11:
 415 0056 00BF     		.align	2
 416              	.L10:
 417 0058 00000000 		.word	.LANCHOR6
 418 005c 00000000 		.word	.LANCHOR0
 419 0060 DB0FC940 		.word	1086918619
 420 0064 00000000 		.word	.LANCHOR7
 421 0068 00000000 		.word	0
 422              		.cfi_endproc
 423              	.LFE4783:
 425              		.section	.text._ZN7daisysp6ShaperILj512EE7processEf,"axG",%progbits,_ZN7daisysp6ShaperILj512EE7pro
 426              		.align	1
 427              		.p2align 2,,3
 428              		.weak	_ZN7daisysp6ShaperILj512EE7processEf
 429              		.syntax unified
 430              		.thumb
 431              		.thumb_func
 433              	_ZN7daisysp6ShaperILj512EE7processEf:
 434              	.LVL20:
 435              	.LFB5093:
 436              		.file 14 "shaper.h"
   1:shaper.h      **** #pragma once
   2:shaper.h      **** #include "daisy.h"
   3:shaper.h      **** #include "daisysp.h"
   4:shaper.h      **** 
   5:shaper.h      **** #include <array>
   6:shaper.h      **** #include <algorithm>
   7:shaper.h      **** 
   8:shaper.h      **** namespace daisysp {
   9:shaper.h      **** 
ARM GAS  /var/folders/z2/7_lhr9dn53s9tj4s0rwtyswm0000gn/T//ccJ9q3ms.s 			page 22


  10:shaper.h      ****     template<std::size_t Length, typename Generator, std::size_t... Indexes>
  11:shaper.h      ****     constexpr auto lut_impl(Generator&& f, std::index_sequence<Indexes...>) {
  12:shaper.h      ****         using content_type = decltype(f(std::size_t{0}));
  13:shaper.h      ****         return std::array<content_type, Length> {{ f(Indexes)... }};
  14:shaper.h      ****     }
  15:shaper.h      **** 
  16:shaper.h      ****     template<std::size_t Length, typename Generator>
  17:shaper.h      ****     constexpr auto lut(Generator&& f){
  18:shaper.h      ****         return lut_impl<Length>(std::forward<Generator>(f), std::make_index_sequence<Length>{});
  19:shaper.h      ****     }
  20:shaper.h      **** 
  21:shaper.h      ****     template <size_t n>
  22:shaper.h      ****     constexpr double cheb(double x) { return 2*x*cheb<n-1>(x) - cheb<n-2>(x); }
  23:shaper.h      ****     template <>
  24:shaper.h      ****     constexpr double cheb<0>(double x) { return 1;}
  25:shaper.h      ****     template <>
  26:shaper.h      ****     constexpr double cheb<1>(double x) { return x;}
  27:shaper.h      **** 
  28:shaper.h      ****     template <size_t Length, size_t k>
  29:shaper.h      ****     constexpr float cheby(size_t n) {
  30:shaper.h      ****         double x = 2.f*(static_cast<double>(n)/static_cast<double>(Length-1)) -1.f;
  31:shaper.h      ****         return static_cast<double>(cheb<k>(x)); 
  32:shaper.h      ****     }
  33:shaper.h      **** 
  34:shaper.h      ****     template<std::size_t Length, size_t k>
  35:shaper.h      ****     constexpr auto chebyshev_lut = lut<Length>(cheby<Length, k>);
  36:shaper.h      **** 
  37:shaper.h      ****     constexpr int NN = 512;
  38:shaper.h      ****     constexpr auto c1 = chebyshev_lut<NN,1>;
  39:shaper.h      ****     constexpr auto c2 = chebyshev_lut<NN,2>;
  40:shaper.h      ****     constexpr auto c3 = chebyshev_lut<NN,3>;
  41:shaper.h      ****     constexpr auto c4 = chebyshev_lut<NN,4>;
  42:shaper.h      ****     constexpr auto c5 = chebyshev_lut<NN,5>;
  43:shaper.h      ****     constexpr auto c6 = chebyshev_lut<NN,6>;
  44:shaper.h      ****     constexpr auto c7 = chebyshev_lut<NN,7>;
  45:shaper.h      ****     constexpr auto c8 = chebyshev_lut<NN,8>;
  46:shaper.h      ****     constexpr auto c9 = chebyshev_lut<NN,9>;
  47:shaper.h      ****     constexpr auto c10 = chebyshev_lut<NN,10>;
  48:shaper.h      ****     
  49:shaper.h      ****     template <size_t N>
  50:shaper.h      ****     class Shaper {
  51:shaper.h      ****        
  52:shaper.h      ****         public:
  53:shaper.h      ****             Shaper(); 
  54:shaper.h      ****             void init();
  55:shaper.h      ****             float process(float in);
  56:shaper.h      **** #ifdef ARM_MATH
  57:shaper.h      ****             float process_fast(float in);
  58:shaper.h      **** #endif
  59:shaper.h      ****             void setWeight(const int n, const float w);
  60:shaper.h      ****             const float * getWeights() const;
  61:shaper.h      ****             float * getWeights();
  62:shaper.h      ****         private:
  63:shaper.h      ****         
  64:shaper.h      ****             std::array<float,10> weights;
  65:shaper.h      ****             float m_inv_sum;
  66:shaper.h      ****     };
ARM GAS  /var/folders/z2/7_lhr9dn53s9tj4s0rwtyswm0000gn/T//ccJ9q3ms.s 			page 23


  67:shaper.h      **** 
  68:shaper.h      **** 
  69:shaper.h      ****     template <size_t N>
  70:shaper.h      ****     Shaper<N>::Shaper() {
  71:shaper.h      ****         static_assert(not (N & (N - 1)), "N not power of 2");
  72:shaper.h      ****     }
  73:shaper.h      **** 
  74:shaper.h      ****     template <size_t N>
  75:shaper.h      ****     void Shaper<N>::init() {
  76:shaper.h      ****         std::fill(weights.begin(), weights.end(), 1.f); 
  77:shaper.h      ****         m_inv_sum = std::accumulate(weights.begin(), weights.end(), 0.f);
  78:shaper.h      ****     }
  79:shaper.h      **** 
  80:shaper.h      ****     template <size_t N>
  81:shaper.h      ****     const float * Shaper<N>::getWeights() const {
  82:shaper.h      ****             return weights.data(); 
  83:shaper.h      ****     }
  84:shaper.h      **** 
  85:shaper.h      ****     template <size_t N>
  86:shaper.h      ****     float * Shaper<N>::getWeights() {
  87:shaper.h      ****             return weights.data(); 
  88:shaper.h      ****     }
  89:shaper.h      **** 
  90:shaper.h      **** // TODO: Add better interpolation
  91:shaper.h      ****     template <size_t N>
  92:shaper.h      ****     float Shaper<N>::process(float in) {
 437              		.loc 14 92 11 is_stmt 1 view -0
 438              		.cfi_startproc
 439              		@ args = 0, pretend = 0, frame = 0
 440              		@ frame_needed = 0, uses_anonymous_args = 0
 441              	.LBB509:
 442              	.LBB510:
 443              		.file 15 "../..//DaisySP//Source/Utility/dsp.h"
   1:../..//DaisySP//Source/Utility/dsp.h **** /*
   2:../..//DaisySP//Source/Utility/dsp.h **** Copyright (c) 2020 Electrosmith, Corp, Emilie Gillet
   3:../..//DaisySP//Source/Utility/dsp.h **** 
   4:../..//DaisySP//Source/Utility/dsp.h **** Use of this source code is governed by an MIT-style
   5:../..//DaisySP//Source/Utility/dsp.h **** license that can be found in the LICENSE file or at
   6:../..//DaisySP//Source/Utility/dsp.h **** https://opensource.org/licenses/MIT.
   7:../..//DaisySP//Source/Utility/dsp.h **** */
   8:../..//DaisySP//Source/Utility/dsp.h **** 
   9:../..//DaisySP//Source/Utility/dsp.h **** /** Helpful defines, functions, and other utilities for use in/with daisysp modules.
  10:../..//DaisySP//Source/Utility/dsp.h **** */
  11:../..//DaisySP//Source/Utility/dsp.h **** #pragma once
  12:../..//DaisySP//Source/Utility/dsp.h **** #ifndef DSY_CORE_DSP
  13:../..//DaisySP//Source/Utility/dsp.h **** #define DSY_CORE_DSP
  14:../..//DaisySP//Source/Utility/dsp.h **** #include <cassert>
  15:../..//DaisySP//Source/Utility/dsp.h **** #include <cstdint>
  16:../..//DaisySP//Source/Utility/dsp.h **** #include <random>
  17:../..//DaisySP//Source/Utility/dsp.h **** #include <cmath>
  18:../..//DaisySP//Source/Utility/dsp.h **** 
  19:../..//DaisySP//Source/Utility/dsp.h **** /** PIs
  20:../..//DaisySP//Source/Utility/dsp.h **** */
  21:../..//DaisySP//Source/Utility/dsp.h **** #define PI_F 3.1415927410125732421875f
  22:../..//DaisySP//Source/Utility/dsp.h **** #define TWOPI_F (2.0f * PI_F)
  23:../..//DaisySP//Source/Utility/dsp.h **** #define HALFPI_F (PI_F * 0.5f)
  24:../..//DaisySP//Source/Utility/dsp.h **** #define DSY_MIN(in, mn) (in < mn ? in : mn)
ARM GAS  /var/folders/z2/7_lhr9dn53s9tj4s0rwtyswm0000gn/T//ccJ9q3ms.s 			page 24


  25:../..//DaisySP//Source/Utility/dsp.h **** #define DSY_MAX(in, mx) (in > mx ? in : mx)
  26:../..//DaisySP//Source/Utility/dsp.h **** #define DSY_CLAMP(in, mn, mx) (DSY_MIN(DSY_MAX(in, mn), mx))
  27:../..//DaisySP//Source/Utility/dsp.h **** #define DSY_COUNTOF(_arr) (sizeof(_arr) / sizeof(_arr[0]))
  28:../..//DaisySP//Source/Utility/dsp.h **** 
  29:../..//DaisySP//Source/Utility/dsp.h **** namespace daisysp
  30:../..//DaisySP//Source/Utility/dsp.h **** {
  31:../..//DaisySP//Source/Utility/dsp.h **** //Avoids division for random floats. e.g. rand() * kRandFrac
  32:../..//DaisySP//Source/Utility/dsp.h **** static constexpr float kRandFrac = 1.f / (float)RAND_MAX;
  33:../..//DaisySP//Source/Utility/dsp.h **** 
  34:../..//DaisySP//Source/Utility/dsp.h **** //Convert from semitones to other units. e.g. 2 ^ (kOneTwelfth * x)
  35:../..//DaisySP//Source/Utility/dsp.h **** static constexpr float kOneTwelfth = 1.f / 12.f;
  36:../..//DaisySP//Source/Utility/dsp.h **** 
  37:../..//DaisySP//Source/Utility/dsp.h **** /** efficient floating point min/max
  38:../..//DaisySP//Source/Utility/dsp.h **** c/o stephen mccaul
  39:../..//DaisySP//Source/Utility/dsp.h **** */
  40:../..//DaisySP//Source/Utility/dsp.h **** inline float fmax(float a, float b)
  41:../..//DaisySP//Source/Utility/dsp.h **** {
  42:../..//DaisySP//Source/Utility/dsp.h ****     float r;
  43:../..//DaisySP//Source/Utility/dsp.h **** #ifdef __arm__
  44:../..//DaisySP//Source/Utility/dsp.h ****     asm("vmaxnm.f32 %[d], %[n], %[m]" : [d] "=t"(r) : [n] "t"(a), [m] "t"(b) :);
  45:../..//DaisySP//Source/Utility/dsp.h **** #else
  46:../..//DaisySP//Source/Utility/dsp.h ****     r = (a > b) ? a : b;
  47:../..//DaisySP//Source/Utility/dsp.h **** #endif // __arm__
  48:../..//DaisySP//Source/Utility/dsp.h ****     return r;
  49:../..//DaisySP//Source/Utility/dsp.h **** }
  50:../..//DaisySP//Source/Utility/dsp.h **** 
  51:../..//DaisySP//Source/Utility/dsp.h **** inline float fmin(float a, float b)
  52:../..//DaisySP//Source/Utility/dsp.h **** {
  53:../..//DaisySP//Source/Utility/dsp.h ****     float r;
  54:../..//DaisySP//Source/Utility/dsp.h **** #ifdef __arm__
  55:../..//DaisySP//Source/Utility/dsp.h ****     asm("vminnm.f32 %[d], %[n], %[m]" : [d] "=t"(r) : [n] "t"(a), [m] "t"(b) :);
 444              		.loc 15 55 5 is_stmt 0 view .LVU109
 445 0000 F7EE006A 		vmov.f32	s13, #1.0e+0
 446              	.LVL21:
 447              		.loc 15 55 5 view .LVU110
 448              	.LBE510:
 449              	.LBE509:
 450              	.LBB512:
 451              	.LBI512:
  40:../..//DaisySP//Source/Utility/dsp.h **** {
 452              		.loc 15 40 14 is_stmt 1 view .LVU111
 453              	.LBB513:
  42:../..//DaisySP//Source/Utility/dsp.h **** #ifdef __arm__
 454              		.loc 15 42 5 view .LVU112
  44:../..//DaisySP//Source/Utility/dsp.h **** #else
 455              		.loc 15 44 5 view .LVU113
 456              	.LBE513:
 457              	.LBE512:
  93:shaper.h      ****         in = fmin(fmax(-1.f, in), 1.f);
  94:shaper.h      ****         const float ind = static_cast<float>(N) *  (in + 1.f)/2.f;
 458              		.loc 14 94 49 is_stmt 0 view .LVU114
 459 0004 9FED766A 		vldr.32	s12, .L19
 460              	.LBB516:
 461              	.LBB514:
  44:../..//DaisySP//Source/Utility/dsp.h **** #else
 462              		.loc 15 44 5 view .LVU115
 463 0008 BFEE007A 		vmov.f32	s14, #-1.0e+0
ARM GAS  /var/folders/z2/7_lhr9dn53s9tj4s0rwtyswm0000gn/T//ccJ9q3ms.s 			page 25


 464              	.LBE514:
 465              	.LBE516:
 466              	.LBB517:
 467              	.LBB518:
 468              	.LBB519:
 469              		.file 16 "/Applications/ARM/arm-none-eabi/include/c++/10.3.1/array"
   1:/Applications/ARM/arm-none-eabi/include/c++/10.3.1/array **** // <array> -*- C++ -*-
   2:/Applications/ARM/arm-none-eabi/include/c++/10.3.1/array **** 
   3:/Applications/ARM/arm-none-eabi/include/c++/10.3.1/array **** // Copyright (C) 2007-2020 Free Software Foundation, Inc.
   4:/Applications/ARM/arm-none-eabi/include/c++/10.3.1/array **** //
   5:/Applications/ARM/arm-none-eabi/include/c++/10.3.1/array **** // This file is part of the GNU ISO C++ Library.  This library is free
   6:/Applications/ARM/arm-none-eabi/include/c++/10.3.1/array **** // software; you can redistribute it and/or modify it under the
   7:/Applications/ARM/arm-none-eabi/include/c++/10.3.1/array **** // terms of the GNU General Public License as published by the
   8:/Applications/ARM/arm-none-eabi/include/c++/10.3.1/array **** // Free Software Foundation; either version 3, or (at your option)
   9:/Applications/ARM/arm-none-eabi/include/c++/10.3.1/array **** // any later version.
  10:/Applications/ARM/arm-none-eabi/include/c++/10.3.1/array **** 
  11:/Applications/ARM/arm-none-eabi/include/c++/10.3.1/array **** // This library is distributed in the hope that it will be useful,
  12:/Applications/ARM/arm-none-eabi/include/c++/10.3.1/array **** // but WITHOUT ANY WARRANTY; without even the implied warranty of
  13:/Applications/ARM/arm-none-eabi/include/c++/10.3.1/array **** // MERCHANTABILITY or FITNESS FOR A PARTICULAR PURPOSE.  See the
  14:/Applications/ARM/arm-none-eabi/include/c++/10.3.1/array **** // GNU General Public License for more details.
  15:/Applications/ARM/arm-none-eabi/include/c++/10.3.1/array **** 
  16:/Applications/ARM/arm-none-eabi/include/c++/10.3.1/array **** // Under Section 7 of GPL version 3, you are granted additional
  17:/Applications/ARM/arm-none-eabi/include/c++/10.3.1/array **** // permissions described in the GCC Runtime Library Exception, version
  18:/Applications/ARM/arm-none-eabi/include/c++/10.3.1/array **** // 3.1, as published by the Free Software Foundation.
  19:/Applications/ARM/arm-none-eabi/include/c++/10.3.1/array **** 
  20:/Applications/ARM/arm-none-eabi/include/c++/10.3.1/array **** // You should have received a copy of the GNU General Public License and
  21:/Applications/ARM/arm-none-eabi/include/c++/10.3.1/array **** // a copy of the GCC Runtime Library Exception along with this program;
  22:/Applications/ARM/arm-none-eabi/include/c++/10.3.1/array **** // see the files COPYING3 and COPYING.RUNTIME respectively.  If not, see
  23:/Applications/ARM/arm-none-eabi/include/c++/10.3.1/array **** // <http://www.gnu.org/licenses/>.
  24:/Applications/ARM/arm-none-eabi/include/c++/10.3.1/array **** 
  25:/Applications/ARM/arm-none-eabi/include/c++/10.3.1/array **** /** @file include/array
  26:/Applications/ARM/arm-none-eabi/include/c++/10.3.1/array ****  *  This is a Standard C++ Library header.
  27:/Applications/ARM/arm-none-eabi/include/c++/10.3.1/array ****  */
  28:/Applications/ARM/arm-none-eabi/include/c++/10.3.1/array **** 
  29:/Applications/ARM/arm-none-eabi/include/c++/10.3.1/array **** #ifndef _GLIBCXX_ARRAY
  30:/Applications/ARM/arm-none-eabi/include/c++/10.3.1/array **** #define _GLIBCXX_ARRAY 1
  31:/Applications/ARM/arm-none-eabi/include/c++/10.3.1/array **** 
  32:/Applications/ARM/arm-none-eabi/include/c++/10.3.1/array **** #pragma GCC system_header
  33:/Applications/ARM/arm-none-eabi/include/c++/10.3.1/array **** 
  34:/Applications/ARM/arm-none-eabi/include/c++/10.3.1/array **** #if __cplusplus < 201103L
  35:/Applications/ARM/arm-none-eabi/include/c++/10.3.1/array **** # include <bits/c++0x_warning.h>
  36:/Applications/ARM/arm-none-eabi/include/c++/10.3.1/array **** #else
  37:/Applications/ARM/arm-none-eabi/include/c++/10.3.1/array **** 
  38:/Applications/ARM/arm-none-eabi/include/c++/10.3.1/array **** #include <utility>
  39:/Applications/ARM/arm-none-eabi/include/c++/10.3.1/array **** #include <bits/functexcept.h>
  40:/Applications/ARM/arm-none-eabi/include/c++/10.3.1/array **** #include <bits/stl_algobase.h>
  41:/Applications/ARM/arm-none-eabi/include/c++/10.3.1/array **** #include <bits/range_access.h>
  42:/Applications/ARM/arm-none-eabi/include/c++/10.3.1/array **** 
  43:/Applications/ARM/arm-none-eabi/include/c++/10.3.1/array **** namespace std _GLIBCXX_VISIBILITY(default)
  44:/Applications/ARM/arm-none-eabi/include/c++/10.3.1/array **** {
  45:/Applications/ARM/arm-none-eabi/include/c++/10.3.1/array **** _GLIBCXX_BEGIN_NAMESPACE_CONTAINER
  46:/Applications/ARM/arm-none-eabi/include/c++/10.3.1/array **** 
  47:/Applications/ARM/arm-none-eabi/include/c++/10.3.1/array ****   template<typename _Tp, std::size_t _Nm>
  48:/Applications/ARM/arm-none-eabi/include/c++/10.3.1/array ****     struct __array_traits
  49:/Applications/ARM/arm-none-eabi/include/c++/10.3.1/array ****     {
  50:/Applications/ARM/arm-none-eabi/include/c++/10.3.1/array ****       typedef _Tp _Type[_Nm];
  51:/Applications/ARM/arm-none-eabi/include/c++/10.3.1/array ****       typedef __is_swappable<_Tp> _Is_swappable;
ARM GAS  /var/folders/z2/7_lhr9dn53s9tj4s0rwtyswm0000gn/T//ccJ9q3ms.s 			page 26


  52:/Applications/ARM/arm-none-eabi/include/c++/10.3.1/array ****       typedef __is_nothrow_swappable<_Tp> _Is_nothrow_swappable;
  53:/Applications/ARM/arm-none-eabi/include/c++/10.3.1/array **** 
  54:/Applications/ARM/arm-none-eabi/include/c++/10.3.1/array ****       static constexpr _Tp&
  55:/Applications/ARM/arm-none-eabi/include/c++/10.3.1/array ****       _S_ref(const _Type& __t, std::size_t __n) noexcept
  56:/Applications/ARM/arm-none-eabi/include/c++/10.3.1/array ****       { return const_cast<_Tp&>(__t[__n]); }
  57:/Applications/ARM/arm-none-eabi/include/c++/10.3.1/array **** 
  58:/Applications/ARM/arm-none-eabi/include/c++/10.3.1/array ****       static constexpr _Tp*
  59:/Applications/ARM/arm-none-eabi/include/c++/10.3.1/array ****       _S_ptr(const _Type& __t) noexcept
  60:/Applications/ARM/arm-none-eabi/include/c++/10.3.1/array ****       { return const_cast<_Tp*>(__t); }
  61:/Applications/ARM/arm-none-eabi/include/c++/10.3.1/array ****     };
  62:/Applications/ARM/arm-none-eabi/include/c++/10.3.1/array **** 
  63:/Applications/ARM/arm-none-eabi/include/c++/10.3.1/array ****  template<typename _Tp>
  64:/Applications/ARM/arm-none-eabi/include/c++/10.3.1/array ****    struct __array_traits<_Tp, 0>
  65:/Applications/ARM/arm-none-eabi/include/c++/10.3.1/array ****    {
  66:/Applications/ARM/arm-none-eabi/include/c++/10.3.1/array ****      struct _Type { };
  67:/Applications/ARM/arm-none-eabi/include/c++/10.3.1/array ****      typedef true_type _Is_swappable;
  68:/Applications/ARM/arm-none-eabi/include/c++/10.3.1/array ****      typedef true_type _Is_nothrow_swappable;
  69:/Applications/ARM/arm-none-eabi/include/c++/10.3.1/array **** 
  70:/Applications/ARM/arm-none-eabi/include/c++/10.3.1/array ****      static constexpr _Tp&
  71:/Applications/ARM/arm-none-eabi/include/c++/10.3.1/array ****      _S_ref(const _Type&, std::size_t) noexcept
  72:/Applications/ARM/arm-none-eabi/include/c++/10.3.1/array ****      { return *static_cast<_Tp*>(nullptr); }
  73:/Applications/ARM/arm-none-eabi/include/c++/10.3.1/array **** 
  74:/Applications/ARM/arm-none-eabi/include/c++/10.3.1/array ****      static constexpr _Tp*
  75:/Applications/ARM/arm-none-eabi/include/c++/10.3.1/array ****      _S_ptr(const _Type&) noexcept
  76:/Applications/ARM/arm-none-eabi/include/c++/10.3.1/array ****      { return nullptr; }
  77:/Applications/ARM/arm-none-eabi/include/c++/10.3.1/array ****    };
  78:/Applications/ARM/arm-none-eabi/include/c++/10.3.1/array **** 
  79:/Applications/ARM/arm-none-eabi/include/c++/10.3.1/array ****   /**
  80:/Applications/ARM/arm-none-eabi/include/c++/10.3.1/array ****    *  @brief A standard container for storing a fixed size sequence of elements.
  81:/Applications/ARM/arm-none-eabi/include/c++/10.3.1/array ****    *
  82:/Applications/ARM/arm-none-eabi/include/c++/10.3.1/array ****    *  @ingroup sequences
  83:/Applications/ARM/arm-none-eabi/include/c++/10.3.1/array ****    *
  84:/Applications/ARM/arm-none-eabi/include/c++/10.3.1/array ****    *  Meets the requirements of a <a href="tables.html#65">container</a>, a
  85:/Applications/ARM/arm-none-eabi/include/c++/10.3.1/array ****    *  <a href="tables.html#66">reversible container</a>, and a
  86:/Applications/ARM/arm-none-eabi/include/c++/10.3.1/array ****    *  <a href="tables.html#67">sequence</a>.
  87:/Applications/ARM/arm-none-eabi/include/c++/10.3.1/array ****    *
  88:/Applications/ARM/arm-none-eabi/include/c++/10.3.1/array ****    *  Sets support random access iterators.
  89:/Applications/ARM/arm-none-eabi/include/c++/10.3.1/array ****    *
  90:/Applications/ARM/arm-none-eabi/include/c++/10.3.1/array ****    *  @tparam  Tp  Type of element. Required to be a complete type.
  91:/Applications/ARM/arm-none-eabi/include/c++/10.3.1/array ****    *  @tparam  Nm  Number of elements.
  92:/Applications/ARM/arm-none-eabi/include/c++/10.3.1/array ****   */
  93:/Applications/ARM/arm-none-eabi/include/c++/10.3.1/array ****   template<typename _Tp, std::size_t _Nm>
  94:/Applications/ARM/arm-none-eabi/include/c++/10.3.1/array ****     struct array
  95:/Applications/ARM/arm-none-eabi/include/c++/10.3.1/array ****     {
  96:/Applications/ARM/arm-none-eabi/include/c++/10.3.1/array ****       typedef _Tp 	    			      value_type;
  97:/Applications/ARM/arm-none-eabi/include/c++/10.3.1/array ****       typedef value_type*			      pointer;
  98:/Applications/ARM/arm-none-eabi/include/c++/10.3.1/array ****       typedef const value_type*                       const_pointer;
  99:/Applications/ARM/arm-none-eabi/include/c++/10.3.1/array ****       typedef value_type&                   	      reference;
 100:/Applications/ARM/arm-none-eabi/include/c++/10.3.1/array ****       typedef const value_type&             	      const_reference;
 101:/Applications/ARM/arm-none-eabi/include/c++/10.3.1/array ****       typedef value_type*          		      iterator;
 102:/Applications/ARM/arm-none-eabi/include/c++/10.3.1/array ****       typedef const value_type*			      const_iterator;
 103:/Applications/ARM/arm-none-eabi/include/c++/10.3.1/array ****       typedef std::size_t                    	      size_type;
 104:/Applications/ARM/arm-none-eabi/include/c++/10.3.1/array ****       typedef std::ptrdiff_t                   	      difference_type;
 105:/Applications/ARM/arm-none-eabi/include/c++/10.3.1/array ****       typedef std::reverse_iterator<iterator>	      reverse_iterator;
 106:/Applications/ARM/arm-none-eabi/include/c++/10.3.1/array ****       typedef std::reverse_iterator<const_iterator>   const_reverse_iterator;
 107:/Applications/ARM/arm-none-eabi/include/c++/10.3.1/array **** 
 108:/Applications/ARM/arm-none-eabi/include/c++/10.3.1/array ****       // Support for zero-sized arrays mandatory.
ARM GAS  /var/folders/z2/7_lhr9dn53s9tj4s0rwtyswm0000gn/T//ccJ9q3ms.s 			page 27


 109:/Applications/ARM/arm-none-eabi/include/c++/10.3.1/array ****       typedef _GLIBCXX_STD_C::__array_traits<_Tp, _Nm> _AT_Type;
 110:/Applications/ARM/arm-none-eabi/include/c++/10.3.1/array ****       typename _AT_Type::_Type                         _M_elems;
 111:/Applications/ARM/arm-none-eabi/include/c++/10.3.1/array **** 
 112:/Applications/ARM/arm-none-eabi/include/c++/10.3.1/array ****       // No explicit construct/copy/destroy for aggregate type.
 113:/Applications/ARM/arm-none-eabi/include/c++/10.3.1/array **** 
 114:/Applications/ARM/arm-none-eabi/include/c++/10.3.1/array ****       // DR 776.
 115:/Applications/ARM/arm-none-eabi/include/c++/10.3.1/array ****       _GLIBCXX20_CONSTEXPR void
 116:/Applications/ARM/arm-none-eabi/include/c++/10.3.1/array ****       fill(const value_type& __u)
 117:/Applications/ARM/arm-none-eabi/include/c++/10.3.1/array ****       { std::fill_n(begin(), size(), __u); }
 118:/Applications/ARM/arm-none-eabi/include/c++/10.3.1/array **** 
 119:/Applications/ARM/arm-none-eabi/include/c++/10.3.1/array ****       _GLIBCXX20_CONSTEXPR void
 120:/Applications/ARM/arm-none-eabi/include/c++/10.3.1/array ****       swap(array& __other)
 121:/Applications/ARM/arm-none-eabi/include/c++/10.3.1/array ****       noexcept(_AT_Type::_Is_nothrow_swappable::value)
 122:/Applications/ARM/arm-none-eabi/include/c++/10.3.1/array ****       { std::swap_ranges(begin(), end(), __other.begin()); }
 123:/Applications/ARM/arm-none-eabi/include/c++/10.3.1/array **** 
 124:/Applications/ARM/arm-none-eabi/include/c++/10.3.1/array ****       // Iterators.
 125:/Applications/ARM/arm-none-eabi/include/c++/10.3.1/array ****       _GLIBCXX17_CONSTEXPR iterator
 126:/Applications/ARM/arm-none-eabi/include/c++/10.3.1/array ****       begin() noexcept
 127:/Applications/ARM/arm-none-eabi/include/c++/10.3.1/array ****       { return iterator(data()); }
 128:/Applications/ARM/arm-none-eabi/include/c++/10.3.1/array **** 
 129:/Applications/ARM/arm-none-eabi/include/c++/10.3.1/array ****       _GLIBCXX17_CONSTEXPR const_iterator
 130:/Applications/ARM/arm-none-eabi/include/c++/10.3.1/array ****       begin() const noexcept
 131:/Applications/ARM/arm-none-eabi/include/c++/10.3.1/array ****       { return const_iterator(data()); }
 132:/Applications/ARM/arm-none-eabi/include/c++/10.3.1/array **** 
 133:/Applications/ARM/arm-none-eabi/include/c++/10.3.1/array ****       _GLIBCXX17_CONSTEXPR iterator
 134:/Applications/ARM/arm-none-eabi/include/c++/10.3.1/array ****       end() noexcept
 135:/Applications/ARM/arm-none-eabi/include/c++/10.3.1/array ****       { return iterator(data() + _Nm); }
 136:/Applications/ARM/arm-none-eabi/include/c++/10.3.1/array **** 
 137:/Applications/ARM/arm-none-eabi/include/c++/10.3.1/array ****       _GLIBCXX17_CONSTEXPR const_iterator
 138:/Applications/ARM/arm-none-eabi/include/c++/10.3.1/array ****       end() const noexcept
 139:/Applications/ARM/arm-none-eabi/include/c++/10.3.1/array ****       { return const_iterator(data() + _Nm); }
 140:/Applications/ARM/arm-none-eabi/include/c++/10.3.1/array **** 
 141:/Applications/ARM/arm-none-eabi/include/c++/10.3.1/array ****       _GLIBCXX17_CONSTEXPR reverse_iterator
 142:/Applications/ARM/arm-none-eabi/include/c++/10.3.1/array ****       rbegin() noexcept
 143:/Applications/ARM/arm-none-eabi/include/c++/10.3.1/array ****       { return reverse_iterator(end()); }
 144:/Applications/ARM/arm-none-eabi/include/c++/10.3.1/array **** 
 145:/Applications/ARM/arm-none-eabi/include/c++/10.3.1/array ****       _GLIBCXX17_CONSTEXPR const_reverse_iterator
 146:/Applications/ARM/arm-none-eabi/include/c++/10.3.1/array ****       rbegin() const noexcept
 147:/Applications/ARM/arm-none-eabi/include/c++/10.3.1/array ****       { return const_reverse_iterator(end()); }
 148:/Applications/ARM/arm-none-eabi/include/c++/10.3.1/array **** 
 149:/Applications/ARM/arm-none-eabi/include/c++/10.3.1/array ****       _GLIBCXX17_CONSTEXPR reverse_iterator
 150:/Applications/ARM/arm-none-eabi/include/c++/10.3.1/array ****       rend() noexcept
 151:/Applications/ARM/arm-none-eabi/include/c++/10.3.1/array ****       { return reverse_iterator(begin()); }
 152:/Applications/ARM/arm-none-eabi/include/c++/10.3.1/array **** 
 153:/Applications/ARM/arm-none-eabi/include/c++/10.3.1/array ****       _GLIBCXX17_CONSTEXPR const_reverse_iterator
 154:/Applications/ARM/arm-none-eabi/include/c++/10.3.1/array ****       rend() const noexcept
 155:/Applications/ARM/arm-none-eabi/include/c++/10.3.1/array ****       { return const_reverse_iterator(begin()); }
 156:/Applications/ARM/arm-none-eabi/include/c++/10.3.1/array **** 
 157:/Applications/ARM/arm-none-eabi/include/c++/10.3.1/array ****       _GLIBCXX17_CONSTEXPR const_iterator
 158:/Applications/ARM/arm-none-eabi/include/c++/10.3.1/array ****       cbegin() const noexcept
 159:/Applications/ARM/arm-none-eabi/include/c++/10.3.1/array ****       { return const_iterator(data()); }
 160:/Applications/ARM/arm-none-eabi/include/c++/10.3.1/array **** 
 161:/Applications/ARM/arm-none-eabi/include/c++/10.3.1/array ****       _GLIBCXX17_CONSTEXPR const_iterator
 162:/Applications/ARM/arm-none-eabi/include/c++/10.3.1/array ****       cend() const noexcept
 163:/Applications/ARM/arm-none-eabi/include/c++/10.3.1/array ****       { return const_iterator(data() + _Nm); }
 164:/Applications/ARM/arm-none-eabi/include/c++/10.3.1/array **** 
 165:/Applications/ARM/arm-none-eabi/include/c++/10.3.1/array ****       _GLIBCXX17_CONSTEXPR const_reverse_iterator
ARM GAS  /var/folders/z2/7_lhr9dn53s9tj4s0rwtyswm0000gn/T//ccJ9q3ms.s 			page 28


 166:/Applications/ARM/arm-none-eabi/include/c++/10.3.1/array ****       crbegin() const noexcept
 167:/Applications/ARM/arm-none-eabi/include/c++/10.3.1/array ****       { return const_reverse_iterator(end()); }
 168:/Applications/ARM/arm-none-eabi/include/c++/10.3.1/array **** 
 169:/Applications/ARM/arm-none-eabi/include/c++/10.3.1/array ****       _GLIBCXX17_CONSTEXPR const_reverse_iterator
 170:/Applications/ARM/arm-none-eabi/include/c++/10.3.1/array ****       crend() const noexcept
 171:/Applications/ARM/arm-none-eabi/include/c++/10.3.1/array ****       { return const_reverse_iterator(begin()); }
 172:/Applications/ARM/arm-none-eabi/include/c++/10.3.1/array **** 
 173:/Applications/ARM/arm-none-eabi/include/c++/10.3.1/array ****       // Capacity.
 174:/Applications/ARM/arm-none-eabi/include/c++/10.3.1/array ****       constexpr size_type
 175:/Applications/ARM/arm-none-eabi/include/c++/10.3.1/array ****       size() const noexcept { return _Nm; }
 176:/Applications/ARM/arm-none-eabi/include/c++/10.3.1/array **** 
 177:/Applications/ARM/arm-none-eabi/include/c++/10.3.1/array ****       constexpr size_type
 178:/Applications/ARM/arm-none-eabi/include/c++/10.3.1/array ****       max_size() const noexcept { return _Nm; }
 179:/Applications/ARM/arm-none-eabi/include/c++/10.3.1/array **** 
 180:/Applications/ARM/arm-none-eabi/include/c++/10.3.1/array ****       _GLIBCXX_NODISCARD constexpr bool
 181:/Applications/ARM/arm-none-eabi/include/c++/10.3.1/array ****       empty() const noexcept { return size() == 0; }
 182:/Applications/ARM/arm-none-eabi/include/c++/10.3.1/array **** 
 183:/Applications/ARM/arm-none-eabi/include/c++/10.3.1/array ****       // Element access.
 184:/Applications/ARM/arm-none-eabi/include/c++/10.3.1/array ****       _GLIBCXX17_CONSTEXPR reference
 185:/Applications/ARM/arm-none-eabi/include/c++/10.3.1/array ****       operator[](size_type __n) noexcept
 186:/Applications/ARM/arm-none-eabi/include/c++/10.3.1/array ****       { return _AT_Type::_S_ref(_M_elems, __n); }
 187:/Applications/ARM/arm-none-eabi/include/c++/10.3.1/array **** 
 188:/Applications/ARM/arm-none-eabi/include/c++/10.3.1/array ****       constexpr const_reference
 189:/Applications/ARM/arm-none-eabi/include/c++/10.3.1/array ****       operator[](size_type __n) const noexcept
 190:/Applications/ARM/arm-none-eabi/include/c++/10.3.1/array ****       { return _AT_Type::_S_ref(_M_elems, __n); }
 191:/Applications/ARM/arm-none-eabi/include/c++/10.3.1/array **** 
 192:/Applications/ARM/arm-none-eabi/include/c++/10.3.1/array ****       _GLIBCXX17_CONSTEXPR reference
 193:/Applications/ARM/arm-none-eabi/include/c++/10.3.1/array ****       at(size_type __n)
 194:/Applications/ARM/arm-none-eabi/include/c++/10.3.1/array ****       {
 195:/Applications/ARM/arm-none-eabi/include/c++/10.3.1/array **** 	if (__n >= _Nm)
 196:/Applications/ARM/arm-none-eabi/include/c++/10.3.1/array **** 	  std::__throw_out_of_range_fmt(__N("array::at: __n (which is %zu) "
 197:/Applications/ARM/arm-none-eabi/include/c++/10.3.1/array **** 					    ">= _Nm (which is %zu)"),
 198:/Applications/ARM/arm-none-eabi/include/c++/10.3.1/array **** 					__n, _Nm);
 199:/Applications/ARM/arm-none-eabi/include/c++/10.3.1/array **** 	return _AT_Type::_S_ref(_M_elems, __n);
 200:/Applications/ARM/arm-none-eabi/include/c++/10.3.1/array ****       }
 201:/Applications/ARM/arm-none-eabi/include/c++/10.3.1/array **** 
 202:/Applications/ARM/arm-none-eabi/include/c++/10.3.1/array ****       constexpr const_reference
 203:/Applications/ARM/arm-none-eabi/include/c++/10.3.1/array ****       at(size_type __n) const
 204:/Applications/ARM/arm-none-eabi/include/c++/10.3.1/array ****       {
 205:/Applications/ARM/arm-none-eabi/include/c++/10.3.1/array **** 	// Result of conditional expression must be an lvalue so use
 206:/Applications/ARM/arm-none-eabi/include/c++/10.3.1/array **** 	// boolean ? lvalue : (throw-expr, lvalue)
 207:/Applications/ARM/arm-none-eabi/include/c++/10.3.1/array **** 	return __n < _Nm ? _AT_Type::_S_ref(_M_elems, __n)
 208:/Applications/ARM/arm-none-eabi/include/c++/10.3.1/array **** 	  : (std::__throw_out_of_range_fmt(__N("array::at: __n (which is %zu) "
 209:/Applications/ARM/arm-none-eabi/include/c++/10.3.1/array **** 					       ">= _Nm (which is %zu)"),
 210:/Applications/ARM/arm-none-eabi/include/c++/10.3.1/array **** 					   __n, _Nm),
 211:/Applications/ARM/arm-none-eabi/include/c++/10.3.1/array **** 	     _AT_Type::_S_ref(_M_elems, 0));
 212:/Applications/ARM/arm-none-eabi/include/c++/10.3.1/array ****       }
 213:/Applications/ARM/arm-none-eabi/include/c++/10.3.1/array **** 
 214:/Applications/ARM/arm-none-eabi/include/c++/10.3.1/array ****       _GLIBCXX17_CONSTEXPR reference
 215:/Applications/ARM/arm-none-eabi/include/c++/10.3.1/array ****       front() noexcept
 216:/Applications/ARM/arm-none-eabi/include/c++/10.3.1/array ****       { return *begin(); }
 217:/Applications/ARM/arm-none-eabi/include/c++/10.3.1/array **** 
 218:/Applications/ARM/arm-none-eabi/include/c++/10.3.1/array ****       constexpr const_reference
 219:/Applications/ARM/arm-none-eabi/include/c++/10.3.1/array ****       front() const noexcept
 220:/Applications/ARM/arm-none-eabi/include/c++/10.3.1/array ****       { return _AT_Type::_S_ref(_M_elems, 0); }
 221:/Applications/ARM/arm-none-eabi/include/c++/10.3.1/array **** 
 222:/Applications/ARM/arm-none-eabi/include/c++/10.3.1/array ****       _GLIBCXX17_CONSTEXPR reference
ARM GAS  /var/folders/z2/7_lhr9dn53s9tj4s0rwtyswm0000gn/T//ccJ9q3ms.s 			page 29


 223:/Applications/ARM/arm-none-eabi/include/c++/10.3.1/array ****       back() noexcept
 224:/Applications/ARM/arm-none-eabi/include/c++/10.3.1/array ****       { return _Nm ? *(end() - 1) : *end(); }
 225:/Applications/ARM/arm-none-eabi/include/c++/10.3.1/array **** 
 226:/Applications/ARM/arm-none-eabi/include/c++/10.3.1/array ****       constexpr const_reference
 227:/Applications/ARM/arm-none-eabi/include/c++/10.3.1/array ****       back() const noexcept
 228:/Applications/ARM/arm-none-eabi/include/c++/10.3.1/array ****       {
 229:/Applications/ARM/arm-none-eabi/include/c++/10.3.1/array **** 	return _Nm ? _AT_Type::_S_ref(_M_elems, _Nm - 1)
 230:/Applications/ARM/arm-none-eabi/include/c++/10.3.1/array ****  	           : _AT_Type::_S_ref(_M_elems, 0);
 231:/Applications/ARM/arm-none-eabi/include/c++/10.3.1/array ****       }
 232:/Applications/ARM/arm-none-eabi/include/c++/10.3.1/array **** 
 233:/Applications/ARM/arm-none-eabi/include/c++/10.3.1/array ****       _GLIBCXX17_CONSTEXPR pointer
 234:/Applications/ARM/arm-none-eabi/include/c++/10.3.1/array ****       data() noexcept
 235:/Applications/ARM/arm-none-eabi/include/c++/10.3.1/array ****       { return _AT_Type::_S_ptr(_M_elems); }
 470              		.loc 16 235 33 view .LVU116
 471 000c 0346     		mov	r3, r0
 472              	.LBE519:
 473              	.LBE518:
 474              	.LBE517:
 475              	.LBB523:
 476              	.LBB515:
  44:../..//DaisySP//Source/Utility/dsp.h **** #else
 477              		.loc 15 44 5 view .LVU117
 478              		.syntax unified
 479              	@ 44 "../..//DaisySP//Source/Utility/dsp.h" 1
 480 000e 87FE000A 		vmaxnm.f32 s0, s14, s0
 481              	@ 0 "" 2
 482              	.LVL22:
  48:../..//DaisySP//Source/Utility/dsp.h **** }
 483              		.loc 15 48 5 is_stmt 1 view .LVU118
  48:../..//DaisySP//Source/Utility/dsp.h **** }
 484              		.loc 15 48 5 is_stmt 0 view .LVU119
 485              		.thumb
 486              		.syntax unified
 487              	.LBE515:
 488              	.LBE523:
 489              	.LBB524:
 490              	.LBI509:
  51:../..//DaisySP//Source/Utility/dsp.h **** {
 491              		.loc 15 51 14 is_stmt 1 view .LVU120
 492              	.LBB511:
  53:../..//DaisySP//Source/Utility/dsp.h **** #ifdef __arm__
 493              		.loc 15 53 5 view .LVU121
 494              		.loc 15 55 5 view .LVU122
 495              		.syntax unified
 496              	@ 55 "../..//DaisySP//Source/Utility/dsp.h" 1
 497 0012 C0FE667A 		vminnm.f32 s15, s0, s13
 498              	@ 0 "" 2
 499              	.LVL23:
  56:../..//DaisySP//Source/Utility/dsp.h **** #else
  57:../..//DaisySP//Source/Utility/dsp.h ****     r = (a < b) ? a : b;
  58:../..//DaisySP//Source/Utility/dsp.h **** #endif // __arm__
  59:../..//DaisySP//Source/Utility/dsp.h ****     return r;
 500              		.loc 15 59 5 view .LVU123
 501              		.loc 15 59 5 is_stmt 0 view .LVU124
 502              		.thumb
 503              		.syntax unified
 504              	.LBE511:
ARM GAS  /var/folders/z2/7_lhr9dn53s9tj4s0rwtyswm0000gn/T//ccJ9q3ms.s 			page 30


 505              	.LBE524:
 506              		.loc 14 94 56 view .LVU125
 507 0016 77EEA67A 		vadd.f32	s15, s15, s13
 508              	.LVL24:
 509              	.LBB525:
 510              	.LBB521:
 511              	.LBB520:
 512              		.loc 16 235 33 view .LVU126
 513 001a 9FED727A 		vldr.32	s14, .L19+4
 514              	.LBE520:
 515              	.LBE521:
 516              	.LBE525:
 517              		.loc 14 94 21 view .LVU127
 518 001e F6EE006A 		vmov.f32	s13, #5.0e-1
 519 0022 00F12802 		add	r2, r0, #40
 520              		.loc 14 94 49 view .LVU128
 521 0026 67EE867A 		vmul.f32	s15, s15, s12
  92:shaper.h      ****         in = fmin(fmax(-1.f, in), 1.f);
 522              		.loc 14 92 11 view .LVU129
 523 002a 2DE9F043 		push	{r4, r5, r6, r7, r8, r9, lr}
 524              		.cfi_def_cfa_offset 28
 525              		.cfi_offset 4, -28
 526              		.cfi_offset 5, -24
 527              		.cfi_offset 6, -20
 528              		.cfi_offset 7, -16
 529              		.cfi_offset 8, -12
 530              		.cfi_offset 9, -8
 531              		.cfi_offset 14, -4
 532              		.loc 14 94 21 view .LVU130
 533 002e 67EEA67A 		vmul.f32	s15, s15, s13
 534              	.LVL25:
  92:shaper.h      ****         in = fmin(fmax(-1.f, in), 1.f);
 535              		.loc 14 92 11 view .LVU131
 536 0032 2DED088B 		vpush.64	{d8, d9, d10, d11}
 537              		.cfi_def_cfa_offset 60
 538              		.cfi_offset 80, -60
 539              		.cfi_offset 81, -56
 540              		.cfi_offset 82, -52
 541              		.cfi_offset 83, -48
 542              		.cfi_offset 84, -44
 543              		.cfi_offset 85, -40
 544              		.cfi_offset 86, -36
 545              		.cfi_offset 87, -32
  95:shaper.h      ****         const uint16_t int_ind = static_cast<uint16_t>(ind);
 546              		.loc 14 95 24 view .LVU132
 547 0036 FCEEE76A 		vcvt.u32.f32	s13, s15
 548 003a 16EE901A 		vmov	r1, s13	@ int
 549 003e 89B2     		uxth	r1, r1
 550              	.LVL26:
  96:shaper.h      ****         const float frac = ind - static_cast<float>(int_ind);
 551              		.loc 14 96 34 view .LVU133
 552 0040 06EE901A 		vmov	s13, r1	@ int
 553 0044 F8EE666A 		vcvt.f32.u32	s13, s13
 554              		.loc 14 96 21 view .LVU134
 555 0048 77EEE66A 		vsub.f32	s13, s15, s13
 556              	.LVL27:
 557              	.LBB526:
ARM GAS  /var/folders/z2/7_lhr9dn53s9tj4s0rwtyswm0000gn/T//ccJ9q3ms.s 			page 31


 558              	.LBI517:
 126:/Applications/ARM/arm-none-eabi/include/c++/10.3.1/array ****       { return iterator(data()); }
 559              		.loc 16 126 7 is_stmt 1 view .LVU135
 560              	.LBB522:
 561              	.LBI518:
 234:/Applications/ARM/arm-none-eabi/include/c++/10.3.1/array ****       { return _AT_Type::_S_ptr(_M_elems); }
 562              		.loc 16 234 7 view .LVU136
 234:/Applications/ARM/arm-none-eabi/include/c++/10.3.1/array ****       { return _AT_Type::_S_ptr(_M_elems); }
 563              		.loc 16 234 7 is_stmt 0 view .LVU137
 564              	.LBE522:
 565              	.LBE526:
 566              	.LBB527:
 567              	.LBI527:
 568              		.file 17 "/Applications/ARM/arm-none-eabi/include/c++/10.3.1/bits/stl_numeric.h"
   1:/Applications/ARM/arm-none-eabi/include/c++/10.3.1/bits/stl_numeric.h **** // Numeric functions implementation -*- C++ -*-
   2:/Applications/ARM/arm-none-eabi/include/c++/10.3.1/bits/stl_numeric.h **** 
   3:/Applications/ARM/arm-none-eabi/include/c++/10.3.1/bits/stl_numeric.h **** // Copyright (C) 2001-2020 Free Software Foundation, Inc.
   4:/Applications/ARM/arm-none-eabi/include/c++/10.3.1/bits/stl_numeric.h **** //
   5:/Applications/ARM/arm-none-eabi/include/c++/10.3.1/bits/stl_numeric.h **** // This file is part of the GNU ISO C++ Library.  This library is free
   6:/Applications/ARM/arm-none-eabi/include/c++/10.3.1/bits/stl_numeric.h **** // software; you can redistribute it and/or modify it under the
   7:/Applications/ARM/arm-none-eabi/include/c++/10.3.1/bits/stl_numeric.h **** // terms of the GNU General Public License as published by the
   8:/Applications/ARM/arm-none-eabi/include/c++/10.3.1/bits/stl_numeric.h **** // Free Software Foundation; either version 3, or (at your option)
   9:/Applications/ARM/arm-none-eabi/include/c++/10.3.1/bits/stl_numeric.h **** // any later version.
  10:/Applications/ARM/arm-none-eabi/include/c++/10.3.1/bits/stl_numeric.h **** 
  11:/Applications/ARM/arm-none-eabi/include/c++/10.3.1/bits/stl_numeric.h **** // This library is distributed in the hope that it will be useful,
  12:/Applications/ARM/arm-none-eabi/include/c++/10.3.1/bits/stl_numeric.h **** // but WITHOUT ANY WARRANTY; without even the implied warranty of
  13:/Applications/ARM/arm-none-eabi/include/c++/10.3.1/bits/stl_numeric.h **** // MERCHANTABILITY or FITNESS FOR A PARTICULAR PURPOSE.  See the
  14:/Applications/ARM/arm-none-eabi/include/c++/10.3.1/bits/stl_numeric.h **** // GNU General Public License for more details.
  15:/Applications/ARM/arm-none-eabi/include/c++/10.3.1/bits/stl_numeric.h **** 
  16:/Applications/ARM/arm-none-eabi/include/c++/10.3.1/bits/stl_numeric.h **** // Under Section 7 of GPL version 3, you are granted additional
  17:/Applications/ARM/arm-none-eabi/include/c++/10.3.1/bits/stl_numeric.h **** // permissions described in the GCC Runtime Library Exception, version
  18:/Applications/ARM/arm-none-eabi/include/c++/10.3.1/bits/stl_numeric.h **** // 3.1, as published by the Free Software Foundation.
  19:/Applications/ARM/arm-none-eabi/include/c++/10.3.1/bits/stl_numeric.h **** 
  20:/Applications/ARM/arm-none-eabi/include/c++/10.3.1/bits/stl_numeric.h **** // You should have received a copy of the GNU General Public License and
  21:/Applications/ARM/arm-none-eabi/include/c++/10.3.1/bits/stl_numeric.h **** // a copy of the GCC Runtime Library Exception along with this program;
  22:/Applications/ARM/arm-none-eabi/include/c++/10.3.1/bits/stl_numeric.h **** // see the files COPYING3 and COPYING.RUNTIME respectively.  If not, see
  23:/Applications/ARM/arm-none-eabi/include/c++/10.3.1/bits/stl_numeric.h **** // <http://www.gnu.org/licenses/>.
  24:/Applications/ARM/arm-none-eabi/include/c++/10.3.1/bits/stl_numeric.h **** 
  25:/Applications/ARM/arm-none-eabi/include/c++/10.3.1/bits/stl_numeric.h **** /*
  26:/Applications/ARM/arm-none-eabi/include/c++/10.3.1/bits/stl_numeric.h ****  *
  27:/Applications/ARM/arm-none-eabi/include/c++/10.3.1/bits/stl_numeric.h ****  * Copyright (c) 1994
  28:/Applications/ARM/arm-none-eabi/include/c++/10.3.1/bits/stl_numeric.h ****  * Hewlett-Packard Company
  29:/Applications/ARM/arm-none-eabi/include/c++/10.3.1/bits/stl_numeric.h ****  *
  30:/Applications/ARM/arm-none-eabi/include/c++/10.3.1/bits/stl_numeric.h ****  * Permission to use, copy, modify, distribute and sell this software
  31:/Applications/ARM/arm-none-eabi/include/c++/10.3.1/bits/stl_numeric.h ****  * and its documentation for any purpose is hereby granted without fee,
  32:/Applications/ARM/arm-none-eabi/include/c++/10.3.1/bits/stl_numeric.h ****  * provided that the above copyright notice appear in all copies and
  33:/Applications/ARM/arm-none-eabi/include/c++/10.3.1/bits/stl_numeric.h ****  * that both that copyright notice and this permission notice appear
  34:/Applications/ARM/arm-none-eabi/include/c++/10.3.1/bits/stl_numeric.h ****  * in supporting documentation.  Hewlett-Packard Company makes no
  35:/Applications/ARM/arm-none-eabi/include/c++/10.3.1/bits/stl_numeric.h ****  * representations about the suitability of this software for any
  36:/Applications/ARM/arm-none-eabi/include/c++/10.3.1/bits/stl_numeric.h ****  * purpose.  It is provided "as is" without express or implied warranty.
  37:/Applications/ARM/arm-none-eabi/include/c++/10.3.1/bits/stl_numeric.h ****  *
  38:/Applications/ARM/arm-none-eabi/include/c++/10.3.1/bits/stl_numeric.h ****  *
  39:/Applications/ARM/arm-none-eabi/include/c++/10.3.1/bits/stl_numeric.h ****  * Copyright (c) 1996,1997
  40:/Applications/ARM/arm-none-eabi/include/c++/10.3.1/bits/stl_numeric.h ****  * Silicon Graphics Computer Systems, Inc.
  41:/Applications/ARM/arm-none-eabi/include/c++/10.3.1/bits/stl_numeric.h ****  *
  42:/Applications/ARM/arm-none-eabi/include/c++/10.3.1/bits/stl_numeric.h ****  * Permission to use, copy, modify, distribute and sell this software
  43:/Applications/ARM/arm-none-eabi/include/c++/10.3.1/bits/stl_numeric.h ****  * and its documentation for any purpose is hereby granted without fee,
ARM GAS  /var/folders/z2/7_lhr9dn53s9tj4s0rwtyswm0000gn/T//ccJ9q3ms.s 			page 32


  44:/Applications/ARM/arm-none-eabi/include/c++/10.3.1/bits/stl_numeric.h ****  * provided that the above copyright notice appear in all copies and
  45:/Applications/ARM/arm-none-eabi/include/c++/10.3.1/bits/stl_numeric.h ****  * that both that copyright notice and this permission notice appear
  46:/Applications/ARM/arm-none-eabi/include/c++/10.3.1/bits/stl_numeric.h ****  * in supporting documentation.  Silicon Graphics makes no
  47:/Applications/ARM/arm-none-eabi/include/c++/10.3.1/bits/stl_numeric.h ****  * representations about the suitability of this software for any
  48:/Applications/ARM/arm-none-eabi/include/c++/10.3.1/bits/stl_numeric.h ****  * purpose.  It is provided "as is" without express or implied warranty.
  49:/Applications/ARM/arm-none-eabi/include/c++/10.3.1/bits/stl_numeric.h ****  */
  50:/Applications/ARM/arm-none-eabi/include/c++/10.3.1/bits/stl_numeric.h **** 
  51:/Applications/ARM/arm-none-eabi/include/c++/10.3.1/bits/stl_numeric.h **** /** @file bits/stl_numeric.h
  52:/Applications/ARM/arm-none-eabi/include/c++/10.3.1/bits/stl_numeric.h ****  *  This is an internal header file, included by other library headers.
  53:/Applications/ARM/arm-none-eabi/include/c++/10.3.1/bits/stl_numeric.h ****  *  Do not attempt to use it directly. @headername{numeric}
  54:/Applications/ARM/arm-none-eabi/include/c++/10.3.1/bits/stl_numeric.h ****  */
  55:/Applications/ARM/arm-none-eabi/include/c++/10.3.1/bits/stl_numeric.h **** 
  56:/Applications/ARM/arm-none-eabi/include/c++/10.3.1/bits/stl_numeric.h **** #ifndef _STL_NUMERIC_H
  57:/Applications/ARM/arm-none-eabi/include/c++/10.3.1/bits/stl_numeric.h **** #define _STL_NUMERIC_H 1
  58:/Applications/ARM/arm-none-eabi/include/c++/10.3.1/bits/stl_numeric.h **** 
  59:/Applications/ARM/arm-none-eabi/include/c++/10.3.1/bits/stl_numeric.h **** #include <bits/concept_check.h>
  60:/Applications/ARM/arm-none-eabi/include/c++/10.3.1/bits/stl_numeric.h **** #include <debug/debug.h>
  61:/Applications/ARM/arm-none-eabi/include/c++/10.3.1/bits/stl_numeric.h **** #include <bits/move.h> // For _GLIBCXX_MOVE
  62:/Applications/ARM/arm-none-eabi/include/c++/10.3.1/bits/stl_numeric.h **** 
  63:/Applications/ARM/arm-none-eabi/include/c++/10.3.1/bits/stl_numeric.h **** 
  64:/Applications/ARM/arm-none-eabi/include/c++/10.3.1/bits/stl_numeric.h **** namespace std _GLIBCXX_VISIBILITY(default)
  65:/Applications/ARM/arm-none-eabi/include/c++/10.3.1/bits/stl_numeric.h **** {
  66:/Applications/ARM/arm-none-eabi/include/c++/10.3.1/bits/stl_numeric.h **** _GLIBCXX_BEGIN_NAMESPACE_VERSION
  67:/Applications/ARM/arm-none-eabi/include/c++/10.3.1/bits/stl_numeric.h **** 
  68:/Applications/ARM/arm-none-eabi/include/c++/10.3.1/bits/stl_numeric.h ****   /** @defgroup numeric_ops Generalized Numeric operations
  69:/Applications/ARM/arm-none-eabi/include/c++/10.3.1/bits/stl_numeric.h ****    *  @ingroup algorithms
  70:/Applications/ARM/arm-none-eabi/include/c++/10.3.1/bits/stl_numeric.h ****    */
  71:/Applications/ARM/arm-none-eabi/include/c++/10.3.1/bits/stl_numeric.h **** 
  72:/Applications/ARM/arm-none-eabi/include/c++/10.3.1/bits/stl_numeric.h **** #if __cplusplus >= 201103L
  73:/Applications/ARM/arm-none-eabi/include/c++/10.3.1/bits/stl_numeric.h ****   /**
  74:/Applications/ARM/arm-none-eabi/include/c++/10.3.1/bits/stl_numeric.h ****    *  @brief  Create a range of sequentially increasing values.
  75:/Applications/ARM/arm-none-eabi/include/c++/10.3.1/bits/stl_numeric.h ****    *
  76:/Applications/ARM/arm-none-eabi/include/c++/10.3.1/bits/stl_numeric.h ****    *  For each element in the range @p [first,last) assigns @p value and
  77:/Applications/ARM/arm-none-eabi/include/c++/10.3.1/bits/stl_numeric.h ****    *  increments @p value as if by @p ++value.
  78:/Applications/ARM/arm-none-eabi/include/c++/10.3.1/bits/stl_numeric.h ****    *
  79:/Applications/ARM/arm-none-eabi/include/c++/10.3.1/bits/stl_numeric.h ****    *  @param  __first  Start of range.
  80:/Applications/ARM/arm-none-eabi/include/c++/10.3.1/bits/stl_numeric.h ****    *  @param  __last  End of range.
  81:/Applications/ARM/arm-none-eabi/include/c++/10.3.1/bits/stl_numeric.h ****    *  @param  __value  Starting value.
  82:/Applications/ARM/arm-none-eabi/include/c++/10.3.1/bits/stl_numeric.h ****    *  @return  Nothing.
  83:/Applications/ARM/arm-none-eabi/include/c++/10.3.1/bits/stl_numeric.h ****    *  @ingroup numeric_ops
  84:/Applications/ARM/arm-none-eabi/include/c++/10.3.1/bits/stl_numeric.h ****    */
  85:/Applications/ARM/arm-none-eabi/include/c++/10.3.1/bits/stl_numeric.h ****   template<typename _ForwardIterator, typename _Tp>
  86:/Applications/ARM/arm-none-eabi/include/c++/10.3.1/bits/stl_numeric.h ****     _GLIBCXX20_CONSTEXPR
  87:/Applications/ARM/arm-none-eabi/include/c++/10.3.1/bits/stl_numeric.h ****     void
  88:/Applications/ARM/arm-none-eabi/include/c++/10.3.1/bits/stl_numeric.h ****     iota(_ForwardIterator __first, _ForwardIterator __last, _Tp __value)
  89:/Applications/ARM/arm-none-eabi/include/c++/10.3.1/bits/stl_numeric.h ****     {
  90:/Applications/ARM/arm-none-eabi/include/c++/10.3.1/bits/stl_numeric.h ****       // concept requirements
  91:/Applications/ARM/arm-none-eabi/include/c++/10.3.1/bits/stl_numeric.h ****       __glibcxx_function_requires(_Mutable_ForwardIteratorConcept<
  92:/Applications/ARM/arm-none-eabi/include/c++/10.3.1/bits/stl_numeric.h **** 				  _ForwardIterator>)
  93:/Applications/ARM/arm-none-eabi/include/c++/10.3.1/bits/stl_numeric.h ****       __glibcxx_function_requires(_ConvertibleConcept<_Tp,
  94:/Applications/ARM/arm-none-eabi/include/c++/10.3.1/bits/stl_numeric.h **** 	    typename iterator_traits<_ForwardIterator>::value_type>)
  95:/Applications/ARM/arm-none-eabi/include/c++/10.3.1/bits/stl_numeric.h ****       __glibcxx_requires_valid_range(__first, __last);
  96:/Applications/ARM/arm-none-eabi/include/c++/10.3.1/bits/stl_numeric.h **** 
  97:/Applications/ARM/arm-none-eabi/include/c++/10.3.1/bits/stl_numeric.h ****       for (; __first != __last; ++__first)
  98:/Applications/ARM/arm-none-eabi/include/c++/10.3.1/bits/stl_numeric.h **** 	{
  99:/Applications/ARM/arm-none-eabi/include/c++/10.3.1/bits/stl_numeric.h **** 	  *__first = __value;
 100:/Applications/ARM/arm-none-eabi/include/c++/10.3.1/bits/stl_numeric.h **** 	  ++__value;
ARM GAS  /var/folders/z2/7_lhr9dn53s9tj4s0rwtyswm0000gn/T//ccJ9q3ms.s 			page 33


 101:/Applications/ARM/arm-none-eabi/include/c++/10.3.1/bits/stl_numeric.h **** 	}
 102:/Applications/ARM/arm-none-eabi/include/c++/10.3.1/bits/stl_numeric.h ****     }
 103:/Applications/ARM/arm-none-eabi/include/c++/10.3.1/bits/stl_numeric.h **** #endif
 104:/Applications/ARM/arm-none-eabi/include/c++/10.3.1/bits/stl_numeric.h **** 
 105:/Applications/ARM/arm-none-eabi/include/c++/10.3.1/bits/stl_numeric.h **** _GLIBCXX_END_NAMESPACE_VERSION
 106:/Applications/ARM/arm-none-eabi/include/c++/10.3.1/bits/stl_numeric.h **** 
 107:/Applications/ARM/arm-none-eabi/include/c++/10.3.1/bits/stl_numeric.h **** _GLIBCXX_BEGIN_NAMESPACE_ALGO
 108:/Applications/ARM/arm-none-eabi/include/c++/10.3.1/bits/stl_numeric.h **** 
 109:/Applications/ARM/arm-none-eabi/include/c++/10.3.1/bits/stl_numeric.h **** #if __cplusplus > 201703L
 110:/Applications/ARM/arm-none-eabi/include/c++/10.3.1/bits/stl_numeric.h **** // _GLIBCXX_RESOLVE_LIB_DEFECTS
 111:/Applications/ARM/arm-none-eabi/include/c++/10.3.1/bits/stl_numeric.h **** // DR 2055. std::move in std::accumulate and other algorithms
 112:/Applications/ARM/arm-none-eabi/include/c++/10.3.1/bits/stl_numeric.h **** # define _GLIBCXX_MOVE_IF_20(_E) std::move(_E)
 113:/Applications/ARM/arm-none-eabi/include/c++/10.3.1/bits/stl_numeric.h **** #else
 114:/Applications/ARM/arm-none-eabi/include/c++/10.3.1/bits/stl_numeric.h **** # define _GLIBCXX_MOVE_IF_20(_E) _E
 115:/Applications/ARM/arm-none-eabi/include/c++/10.3.1/bits/stl_numeric.h **** #endif
 116:/Applications/ARM/arm-none-eabi/include/c++/10.3.1/bits/stl_numeric.h **** 
 117:/Applications/ARM/arm-none-eabi/include/c++/10.3.1/bits/stl_numeric.h ****   /// @addtogroup numeric_ops
 118:/Applications/ARM/arm-none-eabi/include/c++/10.3.1/bits/stl_numeric.h ****   /// @{
 119:/Applications/ARM/arm-none-eabi/include/c++/10.3.1/bits/stl_numeric.h **** 
 120:/Applications/ARM/arm-none-eabi/include/c++/10.3.1/bits/stl_numeric.h ****   /**
 121:/Applications/ARM/arm-none-eabi/include/c++/10.3.1/bits/stl_numeric.h ****    *  @brief  Accumulate values in a range.
 122:/Applications/ARM/arm-none-eabi/include/c++/10.3.1/bits/stl_numeric.h ****    *
 123:/Applications/ARM/arm-none-eabi/include/c++/10.3.1/bits/stl_numeric.h ****    *  Accumulates the values in the range [first,last) using operator+().  The
 124:/Applications/ARM/arm-none-eabi/include/c++/10.3.1/bits/stl_numeric.h ****    *  initial value is @a init.  The values are processed in order.
 125:/Applications/ARM/arm-none-eabi/include/c++/10.3.1/bits/stl_numeric.h ****    *
 126:/Applications/ARM/arm-none-eabi/include/c++/10.3.1/bits/stl_numeric.h ****    *  @param  __first  Start of range.
 127:/Applications/ARM/arm-none-eabi/include/c++/10.3.1/bits/stl_numeric.h ****    *  @param  __last  End of range.
 128:/Applications/ARM/arm-none-eabi/include/c++/10.3.1/bits/stl_numeric.h ****    *  @param  __init  Starting value to add other values to.
 129:/Applications/ARM/arm-none-eabi/include/c++/10.3.1/bits/stl_numeric.h ****    *  @return  The final sum.
 130:/Applications/ARM/arm-none-eabi/include/c++/10.3.1/bits/stl_numeric.h ****    */
 131:/Applications/ARM/arm-none-eabi/include/c++/10.3.1/bits/stl_numeric.h ****   template<typename _InputIterator, typename _Tp>
 132:/Applications/ARM/arm-none-eabi/include/c++/10.3.1/bits/stl_numeric.h ****     _GLIBCXX20_CONSTEXPR
 133:/Applications/ARM/arm-none-eabi/include/c++/10.3.1/bits/stl_numeric.h ****     inline _Tp
 134:/Applications/ARM/arm-none-eabi/include/c++/10.3.1/bits/stl_numeric.h ****     accumulate(_InputIterator __first, _InputIterator __last, _Tp __init)
 569              		.loc 17 134 5 is_stmt 1 view .LVU138
 570              	.LBB528:
 135:/Applications/ARM/arm-none-eabi/include/c++/10.3.1/bits/stl_numeric.h ****     {
 136:/Applications/ARM/arm-none-eabi/include/c++/10.3.1/bits/stl_numeric.h ****       // concept requirements
 137:/Applications/ARM/arm-none-eabi/include/c++/10.3.1/bits/stl_numeric.h ****       __glibcxx_function_requires(_InputIteratorConcept<_InputIterator>)
 138:/Applications/ARM/arm-none-eabi/include/c++/10.3.1/bits/stl_numeric.h ****       __glibcxx_requires_valid_range(__first, __last);
 139:/Applications/ARM/arm-none-eabi/include/c++/10.3.1/bits/stl_numeric.h **** 
 140:/Applications/ARM/arm-none-eabi/include/c++/10.3.1/bits/stl_numeric.h ****       for (; __first != __last; ++__first)
 571              		.loc 17 140 22 view .LVU139
 572              	.L13:
 141:/Applications/ARM/arm-none-eabi/include/c++/10.3.1/bits/stl_numeric.h **** 	__init = _GLIBCXX_MOVE_IF_20(__init) + *__first;
 573              		.loc 17 141 9 is_stmt 0 view .LVU140
 574 004c F3EC017A 		vldmia.32	r3!, {s15}
 575              	.LVL28:
 140:/Applications/ARM/arm-none-eabi/include/c++/10.3.1/bits/stl_numeric.h **** 	__init = _GLIBCXX_MOVE_IF_20(__init) + *__first;
 576              		.loc 17 140 22 view .LVU141
 577 0050 9342     		cmp	r3, r2
 578              		.loc 17 141 9 view .LVU142
 579 0052 37EE277A 		vadd.f32	s14, s14, s15
 580              	.LVL29:
 140:/Applications/ARM/arm-none-eabi/include/c++/10.3.1/bits/stl_numeric.h **** 	__init = _GLIBCXX_MOVE_IF_20(__init) + *__first;
 581              		.loc 17 140 7 is_stmt 1 view .LVU143
 140:/Applications/ARM/arm-none-eabi/include/c++/10.3.1/bits/stl_numeric.h **** 	__init = _GLIBCXX_MOVE_IF_20(__init) + *__first;
ARM GAS  /var/folders/z2/7_lhr9dn53s9tj4s0rwtyswm0000gn/T//ccJ9q3ms.s 			page 34


 582              		.loc 17 140 22 view .LVU144
 583 0056 F9D1     		bne	.L13
 584              	.LVL30:
 140:/Applications/ARM/arm-none-eabi/include/c++/10.3.1/bits/stl_numeric.h **** 	__init = _GLIBCXX_MOVE_IF_20(__init) + *__first;
 585              		.loc 17 140 22 is_stmt 0 view .LVU145
 586              	.LBE528:
 587              	.LBE527:
  97:shaper.h      ****         m_inv_sum = 1.f/std::accumulate(weights.begin(), weights.end(), 0.f);
  98:shaper.h      ****         float a = weights[0] * c1[int_ind]
 588              		.loc 14 98 30 view .LVU146
 589 0058 DFF8A491 		ldr	r9, .L19+32
  97:shaper.h      ****         m_inv_sum = 1.f/std::accumulate(weights.begin(), weights.end(), 0.f);
 590              		.loc 14 97 24 view .LVU147
 591 005c F7EE000A 		vmov.f32	s1, #1.0e+0
  99:shaper.h      ****                 + weights[1] * c2[int_ind]
 592              		.loc 14 99 30 view .LVU148
 593 0060 DFF8A081 		ldr	r8, .L19+36
  98:shaper.h      ****                 + weights[1] * c2[int_ind]
 594              		.loc 14 98 30 view .LVU149
 595 0064 09EB8103 		add	r3, r9, r1, lsl #2
 596              		.loc 14 99 30 view .LVU150
 597 0068 D0ED017A 		vldr.32	s15, [r0, #4]
  98:shaper.h      ****                 + weights[1] * c2[int_ind]
 598              		.loc 14 98 30 view .LVU151
 599 006c D0ED001A 		vldr.32	s3, [r0]
  97:shaper.h      ****         m_inv_sum = 1.f/std::accumulate(weights.begin(), weights.end(), 0.f);
 600              		.loc 14 97 24 view .LVU152
 601 0070 80EE876A 		vdiv.f32	s12, s1, s14
 602              		.loc 14 99 17 view .LVU153
 603 0074 93ED001A 		vldr.32	s2, [r3]
 604              		.loc 14 99 30 view .LVU154
 605 0078 08EB8103 		add	r3, r8, r1, lsl #2
 100:shaper.h      ****                 + weights[2] * c3[int_ind]
 606              		.loc 14 100 30 view .LVU155
 607 007c DFF888E1 		ldr	lr, .L19+40
  99:shaper.h      ****                 + weights[1] * c2[int_ind]
 608              		.loc 14 99 30 view .LVU156
 609 0080 93ED000A 		vldr.32	s0, [r3]
 610              		.loc 14 100 30 view .LVU157
 611 0084 0EEB8103 		add	r3, lr, r1, lsl #2
 612 0088 90ED022A 		vldr.32	s4, [r0, #8]
  99:shaper.h      ****                 + weights[1] * c2[int_ind]
 613              		.loc 14 99 30 view .LVU158
 614 008c 27EE800A 		vmul.f32	s0, s15, s0
 101:shaper.h      ****                 + weights[3] * c4[int_ind]
 615              		.loc 14 101 30 view .LVU159
 616 0090 DFF878C1 		ldr	ip, .L19+44
 100:shaper.h      ****                 + weights[2] * c3[int_ind]
 617              		.loc 14 100 17 view .LVU160
 618 0094 93ED007A 		vldr.32	s14, [r3]
 619              		.loc 14 101 30 view .LVU161
 620 0098 0CEB8103 		add	r3, ip, r1, lsl #2
 621 009c D0ED032A 		vldr.32	s5, [r0, #12]
  99:shaper.h      ****                 + weights[2] * c3[int_ind]
 622              		.loc 14 99 17 view .LVU162
 623 00a0 A1EE810A 		vfma.f32	s0, s3, s2
 102:shaper.h      ****                 + weights[4] * c5[int_ind]
ARM GAS  /var/folders/z2/7_lhr9dn53s9tj4s0rwtyswm0000gn/T//ccJ9q3ms.s 			page 35


 624              		.loc 14 102 30 view .LVU163
 625 00a4 504F     		ldr	r7, .L19+8
 626 00a6 90ED043A 		vldr.32	s6, [r0, #16]
 103:shaper.h      ****                 + weights[5] * c6[int_ind]
 627              		.loc 14 103 30 view .LVU164
 628 00aa 504E     		ldr	r6, .L19+12
 629 00ac D0ED053A 		vldr.32	s7, [r0, #20]
 104:shaper.h      ****                 + weights[6] * c7[int_ind]
 630              		.loc 14 104 30 view .LVU165
 631 00b0 4F4D     		ldr	r5, .L19+16
 632 00b2 90ED064A 		vldr.32	s8, [r0, #24]
 100:shaper.h      ****                 + weights[3] * c4[int_ind]
 633              		.loc 14 100 17 view .LVU166
 634 00b6 A2EE070A 		vfma.f32	s0, s4, s14
 101:shaper.h      ****                 + weights[4] * c5[int_ind]
 635              		.loc 14 101 17 view .LVU167
 636 00ba 93ED007A 		vldr.32	s14, [r3]
 102:shaper.h      ****                 + weights[5] * c6[int_ind]
 637              		.loc 14 102 30 view .LVU168
 638 00be 07EB8103 		add	r3, r7, r1, lsl #2
 105:shaper.h      ****                 + weights[7] * c8[int_ind]
 639              		.loc 14 105 30 view .LVU169
 640 00c2 4C4C     		ldr	r4, .L19+20
 641 00c4 D0ED074A 		vldr.32	s9, [r0, #28]
 106:shaper.h      ****                 + weights[8] * c9[int_ind]
 642              		.loc 14 106 30 view .LVU170
 643 00c8 90ED085A 		vldr.32	s10, [r0, #32]
 107:shaper.h      ****                 + weights[9] * c10[int_ind];
 644              		.loc 14 107 30 view .LVU171
 645 00cc D0ED095A 		vldr.32	s11, [r0, #36]
  97:shaper.h      ****         float a = weights[0] * c1[int_ind]
 646              		.loc 14 97 19 view .LVU172
 647 00d0 80ED0A6A 		vstr.32	s12, [r0, #40]
 648              	.LVL31:
 649              	.LBB529:
 650              	.LBI529:
 189:/Applications/ARM/arm-none-eabi/include/c++/10.3.1/array ****       { return _AT_Type::_S_ref(_M_elems, __n); }
 651              		.loc 16 189 7 is_stmt 1 view .LVU173
 652              	.LBB530:
 653              	.LBI530:
  55:/Applications/ARM/arm-none-eabi/include/c++/10.3.1/array ****       { return const_cast<_Tp&>(__t[__n]); }
 654              		.loc 16 55 7 view .LVU174
  55:/Applications/ARM/arm-none-eabi/include/c++/10.3.1/array ****       { return const_cast<_Tp&>(__t[__n]); }
 655              		.loc 16 55 7 is_stmt 0 view .LVU175
 656              	.LBE530:
 657              	.LBE529:
 658              	.LBB531:
 659              	.LBI531:
 189:/Applications/ARM/arm-none-eabi/include/c++/10.3.1/array ****       { return _AT_Type::_S_ref(_M_elems, __n); }
 660              		.loc 16 189 7 is_stmt 1 view .LVU176
 661              	.LBB532:
 662              	.LBI532:
  55:/Applications/ARM/arm-none-eabi/include/c++/10.3.1/array ****       { return const_cast<_Tp&>(__t[__n]); }
 663              		.loc 16 55 7 view .LVU177
  55:/Applications/ARM/arm-none-eabi/include/c++/10.3.1/array ****       { return const_cast<_Tp&>(__t[__n]); }
 664              		.loc 16 55 7 is_stmt 0 view .LVU178
 665              	.LBE532:
ARM GAS  /var/folders/z2/7_lhr9dn53s9tj4s0rwtyswm0000gn/T//ccJ9q3ms.s 			page 36


 666              	.LBE531:
 667              	.LBB533:
 668              	.LBI533:
 189:/Applications/ARM/arm-none-eabi/include/c++/10.3.1/array ****       { return _AT_Type::_S_ref(_M_elems, __n); }
 669              		.loc 16 189 7 is_stmt 1 view .LVU179
 670              	.LBB534:
 671              	.LBI534:
  55:/Applications/ARM/arm-none-eabi/include/c++/10.3.1/array ****       { return const_cast<_Tp&>(__t[__n]); }
 672              		.loc 16 55 7 view .LVU180
  55:/Applications/ARM/arm-none-eabi/include/c++/10.3.1/array ****       { return const_cast<_Tp&>(__t[__n]); }
 673              		.loc 16 55 7 is_stmt 0 view .LVU181
 674              	.LBE534:
 675              	.LBE533:
 676              	.LBB535:
 677              	.LBI535:
 189:/Applications/ARM/arm-none-eabi/include/c++/10.3.1/array ****       { return _AT_Type::_S_ref(_M_elems, __n); }
 678              		.loc 16 189 7 is_stmt 1 view .LVU182
 679              	.LBB536:
 680              	.LBI536:
  55:/Applications/ARM/arm-none-eabi/include/c++/10.3.1/array ****       { return const_cast<_Tp&>(__t[__n]); }
 681              		.loc 16 55 7 view .LVU183
  55:/Applications/ARM/arm-none-eabi/include/c++/10.3.1/array ****       { return const_cast<_Tp&>(__t[__n]); }
 682              		.loc 16 55 7 is_stmt 0 view .LVU184
 683              	.LBE536:
 684              	.LBE535:
 101:shaper.h      ****                 + weights[4] * c5[int_ind]
 685              		.loc 14 101 17 view .LVU185
 686 00d4 A2EE870A 		vfma.f32	s0, s5, s14
 687              	.LVL32:
 688              	.LBB537:
 689              	.LBI537:
 189:/Applications/ARM/arm-none-eabi/include/c++/10.3.1/array ****       { return _AT_Type::_S_ref(_M_elems, __n); }
 690              		.loc 16 189 7 is_stmt 1 view .LVU186
 691              	.LBB538:
 692              	.LBI538:
  55:/Applications/ARM/arm-none-eabi/include/c++/10.3.1/array ****       { return const_cast<_Tp&>(__t[__n]); }
 693              		.loc 16 55 7 view .LVU187
  55:/Applications/ARM/arm-none-eabi/include/c++/10.3.1/array ****       { return const_cast<_Tp&>(__t[__n]); }
 694              		.loc 16 55 7 is_stmt 0 view .LVU188
 695              	.LBE538:
 696              	.LBE537:
 102:shaper.h      ****                 + weights[5] * c6[int_ind]
 697              		.loc 14 102 17 view .LVU189
 698 00d8 93ED007A 		vldr.32	s14, [r3]
 103:shaper.h      ****                 + weights[6] * c7[int_ind]
 699              		.loc 14 103 30 view .LVU190
 700 00dc 06EB8103 		add	r3, r6, r1, lsl #2
 106:shaper.h      ****                 + weights[9] * c10[int_ind];
 701              		.loc 14 106 30 view .LVU191
 702 00e0 4548     		ldr	r0, .L19+24
 703              	.LVL33:
 704              		.loc 14 107 30 view .LVU192
 705 00e2 464A     		ldr	r2, .L19+28
 706              	.LVL34:
 102:shaper.h      ****                 + weights[5] * c6[int_ind]
 707              		.loc 14 102 17 view .LVU193
 708 00e4 A3EE070A 		vfma.f32	s0, s6, s14
ARM GAS  /var/folders/z2/7_lhr9dn53s9tj4s0rwtyswm0000gn/T//ccJ9q3ms.s 			page 37


 709              	.LVL35:
 710              	.LBB539:
 711              	.LBI539:
 189:/Applications/ARM/arm-none-eabi/include/c++/10.3.1/array ****       { return _AT_Type::_S_ref(_M_elems, __n); }
 712              		.loc 16 189 7 is_stmt 1 view .LVU194
 713              	.LBB540:
 714              	.LBI540:
  55:/Applications/ARM/arm-none-eabi/include/c++/10.3.1/array ****       { return const_cast<_Tp&>(__t[__n]); }
 715              		.loc 16 55 7 view .LVU195
  55:/Applications/ARM/arm-none-eabi/include/c++/10.3.1/array ****       { return const_cast<_Tp&>(__t[__n]); }
 716              		.loc 16 55 7 is_stmt 0 view .LVU196
 717              	.LBE540:
 718              	.LBE539:
 103:shaper.h      ****                 + weights[6] * c7[int_ind]
 719              		.loc 14 103 17 view .LVU197
 720 00e8 93ED007A 		vldr.32	s14, [r3]
 104:shaper.h      ****                 + weights[7] * c8[int_ind]
 721              		.loc 14 104 30 view .LVU198
 722 00ec 05EB8103 		add	r3, r5, r1, lsl #2
 103:shaper.h      ****                 + weights[6] * c7[int_ind]
 723              		.loc 14 103 17 view .LVU199
 724 00f0 A3EE870A 		vfma.f32	s0, s7, s14
 725              	.LVL36:
 726              	.LBB541:
 727              	.LBI541:
 189:/Applications/ARM/arm-none-eabi/include/c++/10.3.1/array ****       { return _AT_Type::_S_ref(_M_elems, __n); }
 728              		.loc 16 189 7 is_stmt 1 view .LVU200
 729              	.LBB542:
 730              	.LBI542:
  55:/Applications/ARM/arm-none-eabi/include/c++/10.3.1/array ****       { return const_cast<_Tp&>(__t[__n]); }
 731              		.loc 16 55 7 view .LVU201
  55:/Applications/ARM/arm-none-eabi/include/c++/10.3.1/array ****       { return const_cast<_Tp&>(__t[__n]); }
 732              		.loc 16 55 7 is_stmt 0 view .LVU202
 733              	.LBE542:
 734              	.LBE541:
 104:shaper.h      ****                 + weights[7] * c8[int_ind]
 735              		.loc 14 104 17 view .LVU203
 736 00f4 93ED007A 		vldr.32	s14, [r3]
 105:shaper.h      ****                 + weights[8] * c9[int_ind]
 737              		.loc 14 105 30 view .LVU204
 738 00f8 04EB8103 		add	r3, r4, r1, lsl #2
 104:shaper.h      ****                 + weights[7] * c8[int_ind]
 739              		.loc 14 104 17 view .LVU205
 740 00fc A4EE070A 		vfma.f32	s0, s8, s14
 741              	.LVL37:
 742              	.LBB543:
 743              	.LBI543:
 189:/Applications/ARM/arm-none-eabi/include/c++/10.3.1/array ****       { return _AT_Type::_S_ref(_M_elems, __n); }
 744              		.loc 16 189 7 is_stmt 1 view .LVU206
 745              	.LBB544:
 746              	.LBI544:
  55:/Applications/ARM/arm-none-eabi/include/c++/10.3.1/array ****       { return const_cast<_Tp&>(__t[__n]); }
 747              		.loc 16 55 7 view .LVU207
  55:/Applications/ARM/arm-none-eabi/include/c++/10.3.1/array ****       { return const_cast<_Tp&>(__t[__n]); }
 748              		.loc 16 55 7 is_stmt 0 view .LVU208
 749              	.LBE544:
 750              	.LBE543:
ARM GAS  /var/folders/z2/7_lhr9dn53s9tj4s0rwtyswm0000gn/T//ccJ9q3ms.s 			page 38


 105:shaper.h      ****                 + weights[8] * c9[int_ind]
 751              		.loc 14 105 17 view .LVU209
 752 0100 93ED007A 		vldr.32	s14, [r3]
 106:shaper.h      ****                 + weights[9] * c10[int_ind];
 753              		.loc 14 106 30 view .LVU210
 754 0104 00EB8103 		add	r3, r0, r1, lsl #2
 105:shaper.h      ****                 + weights[8] * c9[int_ind]
 755              		.loc 14 105 17 view .LVU211
 756 0108 A4EE870A 		vfma.f32	s0, s9, s14
 757              	.LVL38:
 758              	.LBB545:
 759              	.LBI545:
 189:/Applications/ARM/arm-none-eabi/include/c++/10.3.1/array ****       { return _AT_Type::_S_ref(_M_elems, __n); }
 760              		.loc 16 189 7 is_stmt 1 view .LVU212
 761              	.LBB546:
 762              	.LBI546:
  55:/Applications/ARM/arm-none-eabi/include/c++/10.3.1/array ****       { return const_cast<_Tp&>(__t[__n]); }
 763              		.loc 16 55 7 view .LVU213
  55:/Applications/ARM/arm-none-eabi/include/c++/10.3.1/array ****       { return const_cast<_Tp&>(__t[__n]); }
 764              		.loc 16 55 7 is_stmt 0 view .LVU214
 765              	.LBE546:
 766              	.LBE545:
 106:shaper.h      ****                 + weights[9] * c10[int_ind];
 767              		.loc 14 106 17 view .LVU215
 768 010c 93ED007A 		vldr.32	s14, [r3]
 769              		.loc 14 107 30 view .LVU216
 770 0110 02EB8103 		add	r3, r2, r1, lsl #2
 106:shaper.h      ****                 + weights[9] * c10[int_ind];
 771              		.loc 14 106 17 view .LVU217
 772 0114 A5EE070A 		vfma.f32	s0, s10, s14
 773              	.LVL39:
 774              	.LBB547:
 775              	.LBI547:
 189:/Applications/ARM/arm-none-eabi/include/c++/10.3.1/array ****       { return _AT_Type::_S_ref(_M_elems, __n); }
 776              		.loc 16 189 7 is_stmt 1 view .LVU218
 777              	.LBB548:
 778              	.LBI548:
  55:/Applications/ARM/arm-none-eabi/include/c++/10.3.1/array ****       { return const_cast<_Tp&>(__t[__n]); }
 779              		.loc 16 55 7 view .LVU219
  55:/Applications/ARM/arm-none-eabi/include/c++/10.3.1/array ****       { return const_cast<_Tp&>(__t[__n]); }
 780              		.loc 16 55 7 is_stmt 0 view .LVU220
 781              	.LBE548:
 782              	.LBE547:
  98:shaper.h      ****                 + weights[1] * c2[int_ind]
 783              		.loc 14 98 15 view .LVU221
 784 0118 93ED007A 		vldr.32	s14, [r3]
 108:shaper.h      ****         const uint16_t ind2 = std::min<uint16_t>(N,int_ind+1);
 785              		.loc 14 108 59 view .LVU222
 786 011c 4B1C     		adds	r3, r1, #1
 787 011e 9BB2     		uxth	r3, r3
 788              	.LBB549:
 789              	.LBB550:
 790              		.file 18 "/Applications/ARM/arm-none-eabi/include/c++/10.3.1/bits/stl_algobase.h"
   1:/Applications/ARM/arm-none-eabi/include/c++/10.3.1/bits/stl_algobase.h **** // Core algorithmic facilities -*- C++ -*-
   2:/Applications/ARM/arm-none-eabi/include/c++/10.3.1/bits/stl_algobase.h **** 
   3:/Applications/ARM/arm-none-eabi/include/c++/10.3.1/bits/stl_algobase.h **** // Copyright (C) 2001-2020 Free Software Foundation, Inc.
   4:/Applications/ARM/arm-none-eabi/include/c++/10.3.1/bits/stl_algobase.h **** //
ARM GAS  /var/folders/z2/7_lhr9dn53s9tj4s0rwtyswm0000gn/T//ccJ9q3ms.s 			page 39


   5:/Applications/ARM/arm-none-eabi/include/c++/10.3.1/bits/stl_algobase.h **** // This file is part of the GNU ISO C++ Library.  This library is free
   6:/Applications/ARM/arm-none-eabi/include/c++/10.3.1/bits/stl_algobase.h **** // software; you can redistribute it and/or modify it under the
   7:/Applications/ARM/arm-none-eabi/include/c++/10.3.1/bits/stl_algobase.h **** // terms of the GNU General Public License as published by the
   8:/Applications/ARM/arm-none-eabi/include/c++/10.3.1/bits/stl_algobase.h **** // Free Software Foundation; either version 3, or (at your option)
   9:/Applications/ARM/arm-none-eabi/include/c++/10.3.1/bits/stl_algobase.h **** // any later version.
  10:/Applications/ARM/arm-none-eabi/include/c++/10.3.1/bits/stl_algobase.h **** 
  11:/Applications/ARM/arm-none-eabi/include/c++/10.3.1/bits/stl_algobase.h **** // This library is distributed in the hope that it will be useful,
  12:/Applications/ARM/arm-none-eabi/include/c++/10.3.1/bits/stl_algobase.h **** // but WITHOUT ANY WARRANTY; without even the implied warranty of
  13:/Applications/ARM/arm-none-eabi/include/c++/10.3.1/bits/stl_algobase.h **** // MERCHANTABILITY or FITNESS FOR A PARTICULAR PURPOSE.  See the
  14:/Applications/ARM/arm-none-eabi/include/c++/10.3.1/bits/stl_algobase.h **** // GNU General Public License for more details.
  15:/Applications/ARM/arm-none-eabi/include/c++/10.3.1/bits/stl_algobase.h **** 
  16:/Applications/ARM/arm-none-eabi/include/c++/10.3.1/bits/stl_algobase.h **** // Under Section 7 of GPL version 3, you are granted additional
  17:/Applications/ARM/arm-none-eabi/include/c++/10.3.1/bits/stl_algobase.h **** // permissions described in the GCC Runtime Library Exception, version
  18:/Applications/ARM/arm-none-eabi/include/c++/10.3.1/bits/stl_algobase.h **** // 3.1, as published by the Free Software Foundation.
  19:/Applications/ARM/arm-none-eabi/include/c++/10.3.1/bits/stl_algobase.h **** 
  20:/Applications/ARM/arm-none-eabi/include/c++/10.3.1/bits/stl_algobase.h **** // You should have received a copy of the GNU General Public License and
  21:/Applications/ARM/arm-none-eabi/include/c++/10.3.1/bits/stl_algobase.h **** // a copy of the GCC Runtime Library Exception along with this program;
  22:/Applications/ARM/arm-none-eabi/include/c++/10.3.1/bits/stl_algobase.h **** // see the files COPYING3 and COPYING.RUNTIME respectively.  If not, see
  23:/Applications/ARM/arm-none-eabi/include/c++/10.3.1/bits/stl_algobase.h **** // <http://www.gnu.org/licenses/>.
  24:/Applications/ARM/arm-none-eabi/include/c++/10.3.1/bits/stl_algobase.h **** 
  25:/Applications/ARM/arm-none-eabi/include/c++/10.3.1/bits/stl_algobase.h **** /*
  26:/Applications/ARM/arm-none-eabi/include/c++/10.3.1/bits/stl_algobase.h ****  *
  27:/Applications/ARM/arm-none-eabi/include/c++/10.3.1/bits/stl_algobase.h ****  * Copyright (c) 1994
  28:/Applications/ARM/arm-none-eabi/include/c++/10.3.1/bits/stl_algobase.h ****  * Hewlett-Packard Company
  29:/Applications/ARM/arm-none-eabi/include/c++/10.3.1/bits/stl_algobase.h ****  *
  30:/Applications/ARM/arm-none-eabi/include/c++/10.3.1/bits/stl_algobase.h ****  * Permission to use, copy, modify, distribute and sell this software
  31:/Applications/ARM/arm-none-eabi/include/c++/10.3.1/bits/stl_algobase.h ****  * and its documentation for any purpose is hereby granted without fee,
  32:/Applications/ARM/arm-none-eabi/include/c++/10.3.1/bits/stl_algobase.h ****  * provided that the above copyright notice appear in all copies and
  33:/Applications/ARM/arm-none-eabi/include/c++/10.3.1/bits/stl_algobase.h ****  * that both that copyright notice and this permission notice appear
  34:/Applications/ARM/arm-none-eabi/include/c++/10.3.1/bits/stl_algobase.h ****  * in supporting documentation.  Hewlett-Packard Company makes no
  35:/Applications/ARM/arm-none-eabi/include/c++/10.3.1/bits/stl_algobase.h ****  * representations about the suitability of this software for any
  36:/Applications/ARM/arm-none-eabi/include/c++/10.3.1/bits/stl_algobase.h ****  * purpose.  It is provided "as is" without express or implied warranty.
  37:/Applications/ARM/arm-none-eabi/include/c++/10.3.1/bits/stl_algobase.h ****  *
  38:/Applications/ARM/arm-none-eabi/include/c++/10.3.1/bits/stl_algobase.h ****  *
  39:/Applications/ARM/arm-none-eabi/include/c++/10.3.1/bits/stl_algobase.h ****  * Copyright (c) 1996-1998
  40:/Applications/ARM/arm-none-eabi/include/c++/10.3.1/bits/stl_algobase.h ****  * Silicon Graphics Computer Systems, Inc.
  41:/Applications/ARM/arm-none-eabi/include/c++/10.3.1/bits/stl_algobase.h ****  *
  42:/Applications/ARM/arm-none-eabi/include/c++/10.3.1/bits/stl_algobase.h ****  * Permission to use, copy, modify, distribute and sell this software
  43:/Applications/ARM/arm-none-eabi/include/c++/10.3.1/bits/stl_algobase.h ****  * and its documentation for any purpose is hereby granted without fee,
  44:/Applications/ARM/arm-none-eabi/include/c++/10.3.1/bits/stl_algobase.h ****  * provided that the above copyright notice appear in all copies and
  45:/Applications/ARM/arm-none-eabi/include/c++/10.3.1/bits/stl_algobase.h ****  * that both that copyright notice and this permission notice appear
  46:/Applications/ARM/arm-none-eabi/include/c++/10.3.1/bits/stl_algobase.h ****  * in supporting documentation.  Silicon Graphics makes no
  47:/Applications/ARM/arm-none-eabi/include/c++/10.3.1/bits/stl_algobase.h ****  * representations about the suitability of this software for any
  48:/Applications/ARM/arm-none-eabi/include/c++/10.3.1/bits/stl_algobase.h ****  * purpose.  It is provided "as is" without express or implied warranty.
  49:/Applications/ARM/arm-none-eabi/include/c++/10.3.1/bits/stl_algobase.h ****  */
  50:/Applications/ARM/arm-none-eabi/include/c++/10.3.1/bits/stl_algobase.h **** 
  51:/Applications/ARM/arm-none-eabi/include/c++/10.3.1/bits/stl_algobase.h **** /** @file bits/stl_algobase.h
  52:/Applications/ARM/arm-none-eabi/include/c++/10.3.1/bits/stl_algobase.h ****  *  This is an internal header file, included by other library headers.
  53:/Applications/ARM/arm-none-eabi/include/c++/10.3.1/bits/stl_algobase.h ****  *  Do not attempt to use it directly. @headername{algorithm}
  54:/Applications/ARM/arm-none-eabi/include/c++/10.3.1/bits/stl_algobase.h ****  */
  55:/Applications/ARM/arm-none-eabi/include/c++/10.3.1/bits/stl_algobase.h **** 
  56:/Applications/ARM/arm-none-eabi/include/c++/10.3.1/bits/stl_algobase.h **** #ifndef _STL_ALGOBASE_H
  57:/Applications/ARM/arm-none-eabi/include/c++/10.3.1/bits/stl_algobase.h **** #define _STL_ALGOBASE_H 1
  58:/Applications/ARM/arm-none-eabi/include/c++/10.3.1/bits/stl_algobase.h **** 
  59:/Applications/ARM/arm-none-eabi/include/c++/10.3.1/bits/stl_algobase.h **** #include <bits/c++config.h>
  60:/Applications/ARM/arm-none-eabi/include/c++/10.3.1/bits/stl_algobase.h **** #include <bits/functexcept.h>
  61:/Applications/ARM/arm-none-eabi/include/c++/10.3.1/bits/stl_algobase.h **** #include <bits/cpp_type_traits.h>
ARM GAS  /var/folders/z2/7_lhr9dn53s9tj4s0rwtyswm0000gn/T//ccJ9q3ms.s 			page 40


  62:/Applications/ARM/arm-none-eabi/include/c++/10.3.1/bits/stl_algobase.h **** #include <ext/type_traits.h>
  63:/Applications/ARM/arm-none-eabi/include/c++/10.3.1/bits/stl_algobase.h **** #include <ext/numeric_traits.h>
  64:/Applications/ARM/arm-none-eabi/include/c++/10.3.1/bits/stl_algobase.h **** #include <bits/stl_pair.h>
  65:/Applications/ARM/arm-none-eabi/include/c++/10.3.1/bits/stl_algobase.h **** #include <bits/stl_iterator_base_types.h>
  66:/Applications/ARM/arm-none-eabi/include/c++/10.3.1/bits/stl_algobase.h **** #include <bits/stl_iterator_base_funcs.h>
  67:/Applications/ARM/arm-none-eabi/include/c++/10.3.1/bits/stl_algobase.h **** #include <bits/stl_iterator.h>
  68:/Applications/ARM/arm-none-eabi/include/c++/10.3.1/bits/stl_algobase.h **** #include <bits/concept_check.h>
  69:/Applications/ARM/arm-none-eabi/include/c++/10.3.1/bits/stl_algobase.h **** #include <debug/debug.h>
  70:/Applications/ARM/arm-none-eabi/include/c++/10.3.1/bits/stl_algobase.h **** #include <bits/move.h> // For std::swap
  71:/Applications/ARM/arm-none-eabi/include/c++/10.3.1/bits/stl_algobase.h **** #include <bits/predefined_ops.h>
  72:/Applications/ARM/arm-none-eabi/include/c++/10.3.1/bits/stl_algobase.h **** #if __cplusplus >= 201103L
  73:/Applications/ARM/arm-none-eabi/include/c++/10.3.1/bits/stl_algobase.h **** # include <type_traits>
  74:/Applications/ARM/arm-none-eabi/include/c++/10.3.1/bits/stl_algobase.h **** #endif
  75:/Applications/ARM/arm-none-eabi/include/c++/10.3.1/bits/stl_algobase.h **** #if __cplusplus > 201703L
  76:/Applications/ARM/arm-none-eabi/include/c++/10.3.1/bits/stl_algobase.h **** # include <compare>
  77:/Applications/ARM/arm-none-eabi/include/c++/10.3.1/bits/stl_algobase.h **** #endif
  78:/Applications/ARM/arm-none-eabi/include/c++/10.3.1/bits/stl_algobase.h **** 
  79:/Applications/ARM/arm-none-eabi/include/c++/10.3.1/bits/stl_algobase.h **** namespace std _GLIBCXX_VISIBILITY(default)
  80:/Applications/ARM/arm-none-eabi/include/c++/10.3.1/bits/stl_algobase.h **** {
  81:/Applications/ARM/arm-none-eabi/include/c++/10.3.1/bits/stl_algobase.h **** _GLIBCXX_BEGIN_NAMESPACE_VERSION
  82:/Applications/ARM/arm-none-eabi/include/c++/10.3.1/bits/stl_algobase.h **** 
  83:/Applications/ARM/arm-none-eabi/include/c++/10.3.1/bits/stl_algobase.h ****   /*
  84:/Applications/ARM/arm-none-eabi/include/c++/10.3.1/bits/stl_algobase.h ****    * A constexpr wrapper for __builtin_memcmp.
  85:/Applications/ARM/arm-none-eabi/include/c++/10.3.1/bits/stl_algobase.h ****    * @param __num The number of elements of type _Tp (not bytes).
  86:/Applications/ARM/arm-none-eabi/include/c++/10.3.1/bits/stl_algobase.h ****    */
  87:/Applications/ARM/arm-none-eabi/include/c++/10.3.1/bits/stl_algobase.h ****   template<typename _Tp, typename _Up>
  88:/Applications/ARM/arm-none-eabi/include/c++/10.3.1/bits/stl_algobase.h ****     _GLIBCXX14_CONSTEXPR
  89:/Applications/ARM/arm-none-eabi/include/c++/10.3.1/bits/stl_algobase.h ****     inline int
  90:/Applications/ARM/arm-none-eabi/include/c++/10.3.1/bits/stl_algobase.h ****     __memcmp(const _Tp* __first1, const _Up* __first2, size_t __num)
  91:/Applications/ARM/arm-none-eabi/include/c++/10.3.1/bits/stl_algobase.h ****     {
  92:/Applications/ARM/arm-none-eabi/include/c++/10.3.1/bits/stl_algobase.h **** #if __cplusplus >= 201103L
  93:/Applications/ARM/arm-none-eabi/include/c++/10.3.1/bits/stl_algobase.h ****       static_assert(sizeof(_Tp) == sizeof(_Up), "can be compared with memcmp");
  94:/Applications/ARM/arm-none-eabi/include/c++/10.3.1/bits/stl_algobase.h **** #endif
  95:/Applications/ARM/arm-none-eabi/include/c++/10.3.1/bits/stl_algobase.h **** #ifdef __cpp_lib_is_constant_evaluated
  96:/Applications/ARM/arm-none-eabi/include/c++/10.3.1/bits/stl_algobase.h ****       if (std::is_constant_evaluated())
  97:/Applications/ARM/arm-none-eabi/include/c++/10.3.1/bits/stl_algobase.h **** 	{
  98:/Applications/ARM/arm-none-eabi/include/c++/10.3.1/bits/stl_algobase.h **** 	  for(; __num > 0; ++__first1, ++__first2, --__num)
  99:/Applications/ARM/arm-none-eabi/include/c++/10.3.1/bits/stl_algobase.h **** 	    if (*__first1 != *__first2)
 100:/Applications/ARM/arm-none-eabi/include/c++/10.3.1/bits/stl_algobase.h **** 	      return *__first1 < *__first2 ? -1 : 1;
 101:/Applications/ARM/arm-none-eabi/include/c++/10.3.1/bits/stl_algobase.h **** 	  return 0;
 102:/Applications/ARM/arm-none-eabi/include/c++/10.3.1/bits/stl_algobase.h **** 	}
 103:/Applications/ARM/arm-none-eabi/include/c++/10.3.1/bits/stl_algobase.h ****       else
 104:/Applications/ARM/arm-none-eabi/include/c++/10.3.1/bits/stl_algobase.h **** #endif
 105:/Applications/ARM/arm-none-eabi/include/c++/10.3.1/bits/stl_algobase.h **** 	return __builtin_memcmp(__first1, __first2, sizeof(_Tp) * __num);
 106:/Applications/ARM/arm-none-eabi/include/c++/10.3.1/bits/stl_algobase.h ****     }
 107:/Applications/ARM/arm-none-eabi/include/c++/10.3.1/bits/stl_algobase.h **** 
 108:/Applications/ARM/arm-none-eabi/include/c++/10.3.1/bits/stl_algobase.h **** #if __cplusplus < 201103L
 109:/Applications/ARM/arm-none-eabi/include/c++/10.3.1/bits/stl_algobase.h ****   // See http://gcc.gnu.org/ml/libstdc++/2004-08/msg00167.html: in a
 110:/Applications/ARM/arm-none-eabi/include/c++/10.3.1/bits/stl_algobase.h ****   // nutshell, we are partially implementing the resolution of DR 187,
 111:/Applications/ARM/arm-none-eabi/include/c++/10.3.1/bits/stl_algobase.h ****   // when it's safe, i.e., the value_types are equal.
 112:/Applications/ARM/arm-none-eabi/include/c++/10.3.1/bits/stl_algobase.h ****   template<bool _BoolType>
 113:/Applications/ARM/arm-none-eabi/include/c++/10.3.1/bits/stl_algobase.h ****     struct __iter_swap
 114:/Applications/ARM/arm-none-eabi/include/c++/10.3.1/bits/stl_algobase.h ****     {
 115:/Applications/ARM/arm-none-eabi/include/c++/10.3.1/bits/stl_algobase.h ****       template<typename _ForwardIterator1, typename _ForwardIterator2>
 116:/Applications/ARM/arm-none-eabi/include/c++/10.3.1/bits/stl_algobase.h **** 	static void
 117:/Applications/ARM/arm-none-eabi/include/c++/10.3.1/bits/stl_algobase.h **** 	iter_swap(_ForwardIterator1 __a, _ForwardIterator2 __b)
 118:/Applications/ARM/arm-none-eabi/include/c++/10.3.1/bits/stl_algobase.h **** 	{
ARM GAS  /var/folders/z2/7_lhr9dn53s9tj4s0rwtyswm0000gn/T//ccJ9q3ms.s 			page 41


 119:/Applications/ARM/arm-none-eabi/include/c++/10.3.1/bits/stl_algobase.h **** 	  typedef typename iterator_traits<_ForwardIterator1>::value_type
 120:/Applications/ARM/arm-none-eabi/include/c++/10.3.1/bits/stl_algobase.h **** 	    _ValueType1;
 121:/Applications/ARM/arm-none-eabi/include/c++/10.3.1/bits/stl_algobase.h **** 	  _ValueType1 __tmp = *__a;
 122:/Applications/ARM/arm-none-eabi/include/c++/10.3.1/bits/stl_algobase.h **** 	  *__a = *__b;
 123:/Applications/ARM/arm-none-eabi/include/c++/10.3.1/bits/stl_algobase.h **** 	  *__b = __tmp;
 124:/Applications/ARM/arm-none-eabi/include/c++/10.3.1/bits/stl_algobase.h **** 	}
 125:/Applications/ARM/arm-none-eabi/include/c++/10.3.1/bits/stl_algobase.h ****     };
 126:/Applications/ARM/arm-none-eabi/include/c++/10.3.1/bits/stl_algobase.h **** 
 127:/Applications/ARM/arm-none-eabi/include/c++/10.3.1/bits/stl_algobase.h ****   template<>
 128:/Applications/ARM/arm-none-eabi/include/c++/10.3.1/bits/stl_algobase.h ****     struct __iter_swap<true>
 129:/Applications/ARM/arm-none-eabi/include/c++/10.3.1/bits/stl_algobase.h ****     {
 130:/Applications/ARM/arm-none-eabi/include/c++/10.3.1/bits/stl_algobase.h ****       template<typename _ForwardIterator1, typename _ForwardIterator2>
 131:/Applications/ARM/arm-none-eabi/include/c++/10.3.1/bits/stl_algobase.h **** 	static void
 132:/Applications/ARM/arm-none-eabi/include/c++/10.3.1/bits/stl_algobase.h **** 	iter_swap(_ForwardIterator1 __a, _ForwardIterator2 __b)
 133:/Applications/ARM/arm-none-eabi/include/c++/10.3.1/bits/stl_algobase.h **** 	{
 134:/Applications/ARM/arm-none-eabi/include/c++/10.3.1/bits/stl_algobase.h **** 	  swap(*__a, *__b);
 135:/Applications/ARM/arm-none-eabi/include/c++/10.3.1/bits/stl_algobase.h **** 	}
 136:/Applications/ARM/arm-none-eabi/include/c++/10.3.1/bits/stl_algobase.h ****     };
 137:/Applications/ARM/arm-none-eabi/include/c++/10.3.1/bits/stl_algobase.h **** #endif // C++03
 138:/Applications/ARM/arm-none-eabi/include/c++/10.3.1/bits/stl_algobase.h **** 
 139:/Applications/ARM/arm-none-eabi/include/c++/10.3.1/bits/stl_algobase.h ****   /**
 140:/Applications/ARM/arm-none-eabi/include/c++/10.3.1/bits/stl_algobase.h ****    *  @brief Swaps the contents of two iterators.
 141:/Applications/ARM/arm-none-eabi/include/c++/10.3.1/bits/stl_algobase.h ****    *  @ingroup mutating_algorithms
 142:/Applications/ARM/arm-none-eabi/include/c++/10.3.1/bits/stl_algobase.h ****    *  @param  __a  An iterator.
 143:/Applications/ARM/arm-none-eabi/include/c++/10.3.1/bits/stl_algobase.h ****    *  @param  __b  Another iterator.
 144:/Applications/ARM/arm-none-eabi/include/c++/10.3.1/bits/stl_algobase.h ****    *  @return   Nothing.
 145:/Applications/ARM/arm-none-eabi/include/c++/10.3.1/bits/stl_algobase.h ****    *
 146:/Applications/ARM/arm-none-eabi/include/c++/10.3.1/bits/stl_algobase.h ****    *  This function swaps the values pointed to by two iterators, not the
 147:/Applications/ARM/arm-none-eabi/include/c++/10.3.1/bits/stl_algobase.h ****    *  iterators themselves.
 148:/Applications/ARM/arm-none-eabi/include/c++/10.3.1/bits/stl_algobase.h ****   */
 149:/Applications/ARM/arm-none-eabi/include/c++/10.3.1/bits/stl_algobase.h ****   template<typename _ForwardIterator1, typename _ForwardIterator2>
 150:/Applications/ARM/arm-none-eabi/include/c++/10.3.1/bits/stl_algobase.h ****     _GLIBCXX20_CONSTEXPR
 151:/Applications/ARM/arm-none-eabi/include/c++/10.3.1/bits/stl_algobase.h ****     inline void
 152:/Applications/ARM/arm-none-eabi/include/c++/10.3.1/bits/stl_algobase.h ****     iter_swap(_ForwardIterator1 __a, _ForwardIterator2 __b)
 153:/Applications/ARM/arm-none-eabi/include/c++/10.3.1/bits/stl_algobase.h ****     {
 154:/Applications/ARM/arm-none-eabi/include/c++/10.3.1/bits/stl_algobase.h ****       // concept requirements
 155:/Applications/ARM/arm-none-eabi/include/c++/10.3.1/bits/stl_algobase.h ****       __glibcxx_function_requires(_Mutable_ForwardIteratorConcept<
 156:/Applications/ARM/arm-none-eabi/include/c++/10.3.1/bits/stl_algobase.h **** 				  _ForwardIterator1>)
 157:/Applications/ARM/arm-none-eabi/include/c++/10.3.1/bits/stl_algobase.h ****       __glibcxx_function_requires(_Mutable_ForwardIteratorConcept<
 158:/Applications/ARM/arm-none-eabi/include/c++/10.3.1/bits/stl_algobase.h **** 				  _ForwardIterator2>)
 159:/Applications/ARM/arm-none-eabi/include/c++/10.3.1/bits/stl_algobase.h **** 
 160:/Applications/ARM/arm-none-eabi/include/c++/10.3.1/bits/stl_algobase.h **** #if __cplusplus < 201103L
 161:/Applications/ARM/arm-none-eabi/include/c++/10.3.1/bits/stl_algobase.h ****       typedef typename iterator_traits<_ForwardIterator1>::value_type
 162:/Applications/ARM/arm-none-eabi/include/c++/10.3.1/bits/stl_algobase.h **** 	_ValueType1;
 163:/Applications/ARM/arm-none-eabi/include/c++/10.3.1/bits/stl_algobase.h ****       typedef typename iterator_traits<_ForwardIterator2>::value_type
 164:/Applications/ARM/arm-none-eabi/include/c++/10.3.1/bits/stl_algobase.h **** 	_ValueType2;
 165:/Applications/ARM/arm-none-eabi/include/c++/10.3.1/bits/stl_algobase.h **** 
 166:/Applications/ARM/arm-none-eabi/include/c++/10.3.1/bits/stl_algobase.h ****       __glibcxx_function_requires(_ConvertibleConcept<_ValueType1,
 167:/Applications/ARM/arm-none-eabi/include/c++/10.3.1/bits/stl_algobase.h **** 				  _ValueType2>)
 168:/Applications/ARM/arm-none-eabi/include/c++/10.3.1/bits/stl_algobase.h ****       __glibcxx_function_requires(_ConvertibleConcept<_ValueType2,
 169:/Applications/ARM/arm-none-eabi/include/c++/10.3.1/bits/stl_algobase.h **** 				  _ValueType1>)
 170:/Applications/ARM/arm-none-eabi/include/c++/10.3.1/bits/stl_algobase.h **** 
 171:/Applications/ARM/arm-none-eabi/include/c++/10.3.1/bits/stl_algobase.h ****       typedef typename iterator_traits<_ForwardIterator1>::reference
 172:/Applications/ARM/arm-none-eabi/include/c++/10.3.1/bits/stl_algobase.h **** 	_ReferenceType1;
 173:/Applications/ARM/arm-none-eabi/include/c++/10.3.1/bits/stl_algobase.h ****       typedef typename iterator_traits<_ForwardIterator2>::reference
 174:/Applications/ARM/arm-none-eabi/include/c++/10.3.1/bits/stl_algobase.h **** 	_ReferenceType2;
 175:/Applications/ARM/arm-none-eabi/include/c++/10.3.1/bits/stl_algobase.h ****       std::__iter_swap<__are_same<_ValueType1, _ValueType2>::__value
ARM GAS  /var/folders/z2/7_lhr9dn53s9tj4s0rwtyswm0000gn/T//ccJ9q3ms.s 			page 42


 176:/Applications/ARM/arm-none-eabi/include/c++/10.3.1/bits/stl_algobase.h **** 	&& __are_same<_ValueType1&, _ReferenceType1>::__value
 177:/Applications/ARM/arm-none-eabi/include/c++/10.3.1/bits/stl_algobase.h **** 	&& __are_same<_ValueType2&, _ReferenceType2>::__value>::
 178:/Applications/ARM/arm-none-eabi/include/c++/10.3.1/bits/stl_algobase.h **** 	iter_swap(__a, __b);
 179:/Applications/ARM/arm-none-eabi/include/c++/10.3.1/bits/stl_algobase.h **** #else
 180:/Applications/ARM/arm-none-eabi/include/c++/10.3.1/bits/stl_algobase.h ****       // _GLIBCXX_RESOLVE_LIB_DEFECTS
 181:/Applications/ARM/arm-none-eabi/include/c++/10.3.1/bits/stl_algobase.h ****       // 187. iter_swap underspecified
 182:/Applications/ARM/arm-none-eabi/include/c++/10.3.1/bits/stl_algobase.h ****       swap(*__a, *__b);
 183:/Applications/ARM/arm-none-eabi/include/c++/10.3.1/bits/stl_algobase.h **** #endif
 184:/Applications/ARM/arm-none-eabi/include/c++/10.3.1/bits/stl_algobase.h ****     }
 185:/Applications/ARM/arm-none-eabi/include/c++/10.3.1/bits/stl_algobase.h **** 
 186:/Applications/ARM/arm-none-eabi/include/c++/10.3.1/bits/stl_algobase.h ****   /**
 187:/Applications/ARM/arm-none-eabi/include/c++/10.3.1/bits/stl_algobase.h ****    *  @brief Swap the elements of two sequences.
 188:/Applications/ARM/arm-none-eabi/include/c++/10.3.1/bits/stl_algobase.h ****    *  @ingroup mutating_algorithms
 189:/Applications/ARM/arm-none-eabi/include/c++/10.3.1/bits/stl_algobase.h ****    *  @param  __first1  A forward iterator.
 190:/Applications/ARM/arm-none-eabi/include/c++/10.3.1/bits/stl_algobase.h ****    *  @param  __last1   A forward iterator.
 191:/Applications/ARM/arm-none-eabi/include/c++/10.3.1/bits/stl_algobase.h ****    *  @param  __first2  A forward iterator.
 192:/Applications/ARM/arm-none-eabi/include/c++/10.3.1/bits/stl_algobase.h ****    *  @return   An iterator equal to @p first2+(last1-first1).
 193:/Applications/ARM/arm-none-eabi/include/c++/10.3.1/bits/stl_algobase.h ****    *
 194:/Applications/ARM/arm-none-eabi/include/c++/10.3.1/bits/stl_algobase.h ****    *  Swaps each element in the range @p [first1,last1) with the
 195:/Applications/ARM/arm-none-eabi/include/c++/10.3.1/bits/stl_algobase.h ****    *  corresponding element in the range @p [first2,(last1-first1)).
 196:/Applications/ARM/arm-none-eabi/include/c++/10.3.1/bits/stl_algobase.h ****    *  The ranges must not overlap.
 197:/Applications/ARM/arm-none-eabi/include/c++/10.3.1/bits/stl_algobase.h ****   */
 198:/Applications/ARM/arm-none-eabi/include/c++/10.3.1/bits/stl_algobase.h ****   template<typename _ForwardIterator1, typename _ForwardIterator2>
 199:/Applications/ARM/arm-none-eabi/include/c++/10.3.1/bits/stl_algobase.h ****     _GLIBCXX20_CONSTEXPR
 200:/Applications/ARM/arm-none-eabi/include/c++/10.3.1/bits/stl_algobase.h ****     _ForwardIterator2
 201:/Applications/ARM/arm-none-eabi/include/c++/10.3.1/bits/stl_algobase.h ****     swap_ranges(_ForwardIterator1 __first1, _ForwardIterator1 __last1,
 202:/Applications/ARM/arm-none-eabi/include/c++/10.3.1/bits/stl_algobase.h **** 		_ForwardIterator2 __first2)
 203:/Applications/ARM/arm-none-eabi/include/c++/10.3.1/bits/stl_algobase.h ****     {
 204:/Applications/ARM/arm-none-eabi/include/c++/10.3.1/bits/stl_algobase.h ****       // concept requirements
 205:/Applications/ARM/arm-none-eabi/include/c++/10.3.1/bits/stl_algobase.h ****       __glibcxx_function_requires(_Mutable_ForwardIteratorConcept<
 206:/Applications/ARM/arm-none-eabi/include/c++/10.3.1/bits/stl_algobase.h **** 				  _ForwardIterator1>)
 207:/Applications/ARM/arm-none-eabi/include/c++/10.3.1/bits/stl_algobase.h ****       __glibcxx_function_requires(_Mutable_ForwardIteratorConcept<
 208:/Applications/ARM/arm-none-eabi/include/c++/10.3.1/bits/stl_algobase.h **** 				  _ForwardIterator2>)
 209:/Applications/ARM/arm-none-eabi/include/c++/10.3.1/bits/stl_algobase.h ****       __glibcxx_requires_valid_range(__first1, __last1);
 210:/Applications/ARM/arm-none-eabi/include/c++/10.3.1/bits/stl_algobase.h **** 
 211:/Applications/ARM/arm-none-eabi/include/c++/10.3.1/bits/stl_algobase.h ****       for (; __first1 != __last1; ++__first1, (void)++__first2)
 212:/Applications/ARM/arm-none-eabi/include/c++/10.3.1/bits/stl_algobase.h **** 	std::iter_swap(__first1, __first2);
 213:/Applications/ARM/arm-none-eabi/include/c++/10.3.1/bits/stl_algobase.h ****       return __first2;
 214:/Applications/ARM/arm-none-eabi/include/c++/10.3.1/bits/stl_algobase.h ****     }
 215:/Applications/ARM/arm-none-eabi/include/c++/10.3.1/bits/stl_algobase.h **** 
 216:/Applications/ARM/arm-none-eabi/include/c++/10.3.1/bits/stl_algobase.h ****   /**
 217:/Applications/ARM/arm-none-eabi/include/c++/10.3.1/bits/stl_algobase.h ****    *  @brief This does what you think it does.
 218:/Applications/ARM/arm-none-eabi/include/c++/10.3.1/bits/stl_algobase.h ****    *  @ingroup sorting_algorithms
 219:/Applications/ARM/arm-none-eabi/include/c++/10.3.1/bits/stl_algobase.h ****    *  @param  __a  A thing of arbitrary type.
 220:/Applications/ARM/arm-none-eabi/include/c++/10.3.1/bits/stl_algobase.h ****    *  @param  __b  Another thing of arbitrary type.
 221:/Applications/ARM/arm-none-eabi/include/c++/10.3.1/bits/stl_algobase.h ****    *  @return   The lesser of the parameters.
 222:/Applications/ARM/arm-none-eabi/include/c++/10.3.1/bits/stl_algobase.h ****    *
 223:/Applications/ARM/arm-none-eabi/include/c++/10.3.1/bits/stl_algobase.h ****    *  This is the simple classic generic implementation.  It will work on
 224:/Applications/ARM/arm-none-eabi/include/c++/10.3.1/bits/stl_algobase.h ****    *  temporary expressions, since they are only evaluated once, unlike a
 225:/Applications/ARM/arm-none-eabi/include/c++/10.3.1/bits/stl_algobase.h ****    *  preprocessor macro.
 226:/Applications/ARM/arm-none-eabi/include/c++/10.3.1/bits/stl_algobase.h ****   */
 227:/Applications/ARM/arm-none-eabi/include/c++/10.3.1/bits/stl_algobase.h ****   template<typename _Tp>
 228:/Applications/ARM/arm-none-eabi/include/c++/10.3.1/bits/stl_algobase.h ****     _GLIBCXX14_CONSTEXPR
 229:/Applications/ARM/arm-none-eabi/include/c++/10.3.1/bits/stl_algobase.h ****     inline const _Tp&
 230:/Applications/ARM/arm-none-eabi/include/c++/10.3.1/bits/stl_algobase.h ****     min(const _Tp& __a, const _Tp& __b)
 231:/Applications/ARM/arm-none-eabi/include/c++/10.3.1/bits/stl_algobase.h ****     {
 232:/Applications/ARM/arm-none-eabi/include/c++/10.3.1/bits/stl_algobase.h ****       // concept requirements
ARM GAS  /var/folders/z2/7_lhr9dn53s9tj4s0rwtyswm0000gn/T//ccJ9q3ms.s 			page 43


 233:/Applications/ARM/arm-none-eabi/include/c++/10.3.1/bits/stl_algobase.h ****       __glibcxx_function_requires(_LessThanComparableConcept<_Tp>)
 234:/Applications/ARM/arm-none-eabi/include/c++/10.3.1/bits/stl_algobase.h ****       //return __b < __a ? __b : __a;
 235:/Applications/ARM/arm-none-eabi/include/c++/10.3.1/bits/stl_algobase.h ****       if (__b < __a)
 791              		.loc 18 235 7 view .LVU223
 792 0120 B3F5007F 		cmp	r3, #512
 793              	.LBE550:
 794              	.LBE549:
  98:shaper.h      ****                 + weights[1] * c2[int_ind]
 795              		.loc 14 98 15 view .LVU224
 796 0124 A5EE870A 		vfma.f32	s0, s11, s14
 797              	.LVL40:
 798              	.LBB552:
 799              	.LBI549:
 230:/Applications/ARM/arm-none-eabi/include/c++/10.3.1/bits/stl_algobase.h ****     {
 800              		.loc 18 230 5 is_stmt 1 view .LVU225
 801              	.LBB551:
 802              		.loc 18 235 7 is_stmt 0 view .LVU226
 803 0128 31D3     		bcc	.L18
 804 012a 9FED2E7A 		vldr.32	s14, .L19+4
 805 012e B0EE471A 		vmov.f32	s2, s14
 806 0132 F0EE470A 		vmov.f32	s1, s14
 807 0136 B0EE478A 		vmov.f32	s16, s14
 808 013a F0EE478A 		vmov.f32	s17, s14
 809 013e B0EE479A 		vmov.f32	s18, s14
 810 0142 F0EE479A 		vmov.f32	s19, s14
 811 0146 B0EE47AA 		vmov.f32	s20, s14
 812 014a B0EE47BA 		vmov.f32	s22, s14
 813 014e F0EE47AA 		vmov.f32	s21, s14
 814              	.L14:
 815              	.LVL41:
 816              		.loc 18 235 7 view .LVU227
 817              	.LBE551:
 818              	.LBE552:
 109:shaper.h      ****         float b = weights[0] * c1[ind2]
 110:shaper.h      ****                 + weights[1] * c2[ind2]
 819              		.loc 14 110 30 view .LVU228
 820 0152 67EE8B7A 		vmul.f32	s15, s15, s22
 821              		.loc 14 110 17 view .LVU229
 822 0156 E1EEAA7A 		vfma.f32	s15, s3, s21
 111:shaper.h      ****                 + weights[2] * c3[ind2]
 823              		.loc 14 111 17 view .LVU230
 824 015a E2EE0A7A 		vfma.f32	s15, s4, s20
 112:shaper.h      ****                 + weights[3] * c4[ind2]
 825              		.loc 14 112 17 view .LVU231
 826 015e E2EEA97A 		vfma.f32	s15, s5, s19
 113:shaper.h      ****                 + weights[4] * c5[ind2]
 827              		.loc 14 113 17 view .LVU232
 828 0162 E3EE097A 		vfma.f32	s15, s6, s18
 114:shaper.h      ****                 + weights[5] * c6[ind2]
 829              		.loc 14 114 17 view .LVU233
 830 0166 E3EEA87A 		vfma.f32	s15, s7, s17
 115:shaper.h      ****                 + weights[6] * c7[ind2]
 831              		.loc 14 115 17 view .LVU234
 832 016a E4EE087A 		vfma.f32	s15, s8, s16
 116:shaper.h      ****                 + weights[7] * c8[ind2]
 117:shaper.h      ****                 + weights[8] * c9[ind2]
 118:shaper.h      ****                 + weights[9] * c10[ind2];
ARM GAS  /var/folders/z2/7_lhr9dn53s9tj4s0rwtyswm0000gn/T//ccJ9q3ms.s 			page 44


 119:shaper.h      ****         float r = a + frac*(a-b);
 120:shaper.h      ****         return r*m_inv_sum;  
 121:shaper.h      ****     }
 833              		.loc 14 121 5 view .LVU235
 834 016e BDEC088B 		vldm	sp!, {d8-d11}
 835              		.cfi_remember_state
 836              		.cfi_restore 86
 837              		.cfi_restore 87
 838              		.cfi_restore 84
 839              		.cfi_restore 85
 840              		.cfi_restore 82
 841              		.cfi_restore 83
 842              		.cfi_restore 80
 843              		.cfi_restore 81
 844              		.cfi_def_cfa_offset 28
 116:shaper.h      ****                 + weights[7] * c8[ind2]
 845              		.loc 14 116 17 view .LVU236
 846 0172 E4EEA07A 		vfma.f32	s15, s9, s1
 117:shaper.h      ****                 + weights[9] * c10[ind2];
 847              		.loc 14 117 17 view .LVU237
 848 0176 E5EE017A 		vfma.f32	s15, s10, s2
 109:shaper.h      ****                 + weights[1] * c2[ind2]
 849              		.loc 14 109 15 view .LVU238
 850 017a E5EE877A 		vfma.f32	s15, s11, s14
 851              	.LVL42:
 119:shaper.h      ****         return r*m_inv_sum;  
 852              		.loc 14 119 30 view .LVU239
 853 017e 70EE677A 		vsub.f32	s15, s0, s15
 854              	.LVL43:
 119:shaper.h      ****         return r*m_inv_sum;  
 855              		.loc 14 119 15 view .LVU240
 856 0182 A7EEA60A 		vfma.f32	s0, s15, s13
 857              	.LVL44:
 858              		.loc 14 121 5 view .LVU241
 859 0186 26EE000A 		vmul.f32	s0, s12, s0
 860              	.LVL45:
 861              		.loc 14 121 5 view .LVU242
 862 018a BDE8F083 		pop	{r4, r5, r6, r7, r8, r9, pc}
 863              	.LVL46:
 864              	.L18:
 865              		.cfi_restore_state
 109:shaper.h      ****                 + weights[1] * c2[ind2]
 866              		.loc 14 109 30 view .LVU243
 867 018e 09EB8309 		add	r9, r9, r3, lsl #2
 110:shaper.h      ****                 + weights[2] * c3[ind2]
 868              		.loc 14 110 30 view .LVU244
 869 0192 08EB8308 		add	r8, r8, r3, lsl #2
 111:shaper.h      ****                 + weights[3] * c4[ind2]
 870              		.loc 14 111 30 view .LVU245
 871 0196 0EEB830E 		add	lr, lr, r3, lsl #2
 109:shaper.h      ****                 + weights[1] * c2[ind2]
 872              		.loc 14 109 30 view .LVU246
 873 019a D9ED00AA 		vldr.32	s21, [r9]
 112:shaper.h      ****                 + weights[4] * c5[ind2]
 874              		.loc 14 112 30 view .LVU247
 875 019e 0CEB830C 		add	ip, ip, r3, lsl #2
 110:shaper.h      ****                 + weights[2] * c3[ind2]
ARM GAS  /var/folders/z2/7_lhr9dn53s9tj4s0rwtyswm0000gn/T//ccJ9q3ms.s 			page 45


 876              		.loc 14 110 30 view .LVU248
 877 01a2 98ED00BA 		vldr.32	s22, [r8]
 113:shaper.h      ****                 + weights[5] * c6[ind2]
 878              		.loc 14 113 30 view .LVU249
 879 01a6 07EB8307 		add	r7, r7, r3, lsl #2
 111:shaper.h      ****                 + weights[3] * c4[ind2]
 880              		.loc 14 111 30 view .LVU250
 881 01aa 9EED00AA 		vldr.32	s20, [lr]
 114:shaper.h      ****                 + weights[6] * c7[ind2]
 882              		.loc 14 114 30 view .LVU251
 883 01ae 06EB8306 		add	r6, r6, r3, lsl #2
 112:shaper.h      ****                 + weights[4] * c5[ind2]
 884              		.loc 14 112 30 view .LVU252
 885 01b2 DCED009A 		vldr.32	s19, [ip]
 115:shaper.h      ****                 + weights[7] * c8[ind2]
 886              		.loc 14 115 30 view .LVU253
 887 01b6 05EB8305 		add	r5, r5, r3, lsl #2
 113:shaper.h      ****                 + weights[5] * c6[ind2]
 888              		.loc 14 113 30 view .LVU254
 889 01ba 97ED009A 		vldr.32	s18, [r7]
 116:shaper.h      ****                 + weights[8] * c9[ind2]
 890              		.loc 14 116 30 view .LVU255
 891 01be 04EB8304 		add	r4, r4, r3, lsl #2
 114:shaper.h      ****                 + weights[6] * c7[ind2]
 892              		.loc 14 114 30 view .LVU256
 893 01c2 D6ED008A 		vldr.32	s17, [r6]
 117:shaper.h      ****                 + weights[9] * c10[ind2];
 894              		.loc 14 117 30 view .LVU257
 895 01c6 00EB8300 		add	r0, r0, r3, lsl #2
 115:shaper.h      ****                 + weights[7] * c8[ind2]
 896              		.loc 14 115 30 view .LVU258
 897 01ca 95ED008A 		vldr.32	s16, [r5]
 118:shaper.h      ****         float r = a + frac*(a-b);
 898              		.loc 14 118 30 view .LVU259
 899 01ce 02EB8303 		add	r3, r2, r3, lsl #2
 116:shaper.h      ****                 + weights[8] * c9[ind2]
 900              		.loc 14 116 30 view .LVU260
 901 01d2 D4ED000A 		vldr.32	s1, [r4]
 117:shaper.h      ****                 + weights[9] * c10[ind2];
 902              		.loc 14 117 30 view .LVU261
 903 01d6 90ED001A 		vldr.32	s2, [r0]
 118:shaper.h      ****         float r = a + frac*(a-b);
 904              		.loc 14 118 30 view .LVU262
 905 01da 93ED007A 		vldr.32	s14, [r3]
 906 01de B8E7     		b	.L14
 907              	.L20:
 908              		.align	2
 909              	.L19:
 910 01e0 00000044 		.word	1140850688
 911 01e4 00000000 		.word	0
 912 01e8 00000000 		.word	.LANCHOR12
 913 01ec 00000000 		.word	.LANCHOR13
 914 01f0 00000000 		.word	.LANCHOR14
 915 01f4 00000000 		.word	.LANCHOR15
 916 01f8 00000000 		.word	.LANCHOR16
 917 01fc 00000000 		.word	.LANCHOR17
 918 0200 00000000 		.word	.LANCHOR8
ARM GAS  /var/folders/z2/7_lhr9dn53s9tj4s0rwtyswm0000gn/T//ccJ9q3ms.s 			page 46


 919 0204 00000000 		.word	.LANCHOR9
 920 0208 00000000 		.word	.LANCHOR10
 921 020c 00000000 		.word	.LANCHOR11
 922              		.cfi_endproc
 923              	.LFE5093:
 925              		.section	.text._Z13AudioCallbackPKPKfPPfj,"ax",%progbits
 926              		.align	1
 927              		.p2align 2,,3
 928              		.global	_Z13AudioCallbackPKPKfPPfj
 929              		.syntax unified
 930              		.thumb
 931              		.thumb_func
 933              	_Z13AudioCallbackPKPKfPPfj:
 934              	.LVL47:
 935              	.LFB4781:
  36:chebyshev.cpp ****     UpdateControls();
 936              		.loc 13 36 1 is_stmt 1 view -0
 937              		.cfi_startproc
 938              		@ args = 0, pretend = 0, frame = 8
 939              		@ frame_needed = 0, uses_anonymous_args = 0
  37:chebyshev.cpp ****     for (size_t i = 0; i < size; i++)
 940              		.loc 13 37 5 view .LVU264
  36:chebyshev.cpp ****     UpdateControls();
 941              		.loc 13 36 1 is_stmt 0 view .LVU265
 942 0000 2DE9F04F 		push	{r4, r5, r6, r7, r8, r9, r10, fp, lr}
 943              		.cfi_def_cfa_offset 36
 944              		.cfi_offset 4, -36
 945              		.cfi_offset 5, -32
 946              		.cfi_offset 6, -28
 947              		.cfi_offset 7, -24
 948              		.cfi_offset 8, -20
 949              		.cfi_offset 9, -16
 950              		.cfi_offset 10, -12
 951              		.cfi_offset 11, -8
 952              		.cfi_offset 14, -4
 953 0004 1446     		mov	r4, r2
 954 0006 8A46     		mov	r10, r1
 955 0008 2DED028B 		vpush.64	{d8}
 956              		.cfi_def_cfa_offset 44
 957              		.cfi_offset 80, -44
 958              		.cfi_offset 81, -40
 959 000c 83B0     		sub	sp, sp, #12
 960              		.cfi_def_cfa_offset 56
  36:chebyshev.cpp ****     UpdateControls();
 961              		.loc 13 36 1 view .LVU266
 962 000e 0192     		str	r2, [sp, #4]
  37:chebyshev.cpp ****     for (size_t i = 0; i < size; i++)
 963              		.loc 13 37 19 view .LVU267
 964 0010 FFF7FEFF 		bl	_Z14UpdateControlsv
 965              	.LVL48:
  38:chebyshev.cpp ****     {
 966              		.loc 13 38 5 is_stmt 1 view .LVU268
 967              	.LBB553:
  38:chebyshev.cpp ****     {
 968              		.loc 13 38 26 view .LVU269
 969 0014 002C     		cmp	r4, #0
 970 0016 00F09580 		beq	.L21
ARM GAS  /var/folders/z2/7_lhr9dn53s9tj4s0rwtyswm0000gn/T//ccJ9q3ms.s 			page 47


  38:chebyshev.cpp ****     {
 971              		.loc 13 38 17 is_stmt 0 view .LVU270
 972 001a 0027     		movs	r7, #0
 973 001c 5346     		mov	r3, r10
 974 001e DFF85091 		ldr	r9, .L33+32
 975 0022 BA46     		mov	r10, r7
 976              	.LVL49:
  38:chebyshev.cpp ****     {
 977              		.loc 13 38 17 view .LVU271
 978 0024 4A4E     		ldr	r6, .L33
 979 0026 4B4C     		ldr	r4, .L33+4
 980              	.LVL50:
  38:chebyshev.cpp ****     {
 981              		.loc 13 38 17 view .LVU272
 982 0028 1F46     		mov	r7, r3
 983 002a DFF84881 		ldr	r8, .L33+36
 984 002e 4A4D     		ldr	r5, .L33+8
 985 0030 DFF844B1 		ldr	fp, .L33+40
 986              	.LVL51:
 987              	.L25:
 988              	.LBB554:
  40:chebyshev.cpp ****         out[1][i] = 0.f;
 989              		.loc 13 40 9 is_stmt 1 view .LVU273
  40:chebyshev.cpp ****         out[1][i] = 0.f;
 990              		.loc 13 40 19 is_stmt 0 view .LVU274
 991 0034 3968     		ldr	r1, [r7]
 992 0036 0020     		movs	r0, #0
 993 0038 4FEA8A03 		lsl	r3, r10, #2
 994 003c 01EB8A01 		add	r1, r1, r10, lsl #2
 995 0040 0093     		str	r3, [sp]
 996 0042 0860     		str	r0, [r1]	@ float
  41:chebyshev.cpp ****         out[2][i] = 0.f;
 997              		.loc 13 41 9 is_stmt 1 view .LVU275
  41:chebyshev.cpp ****         out[2][i] = 0.f;
 998              		.loc 13 41 19 is_stmt 0 view .LVU276
 999 0044 7968     		ldr	r1, [r7, #4]
 1000 0046 01EB8A01 		add	r1, r1, r10, lsl #2
 1001 004a 0860     		str	r0, [r1]	@ float
  42:chebyshev.cpp ****         out[3][i] = 0.f;
 1002              		.loc 13 42 9 is_stmt 1 view .LVU277
  42:chebyshev.cpp ****         out[3][i] = 0.f;
 1003              		.loc 13 42 19 is_stmt 0 view .LVU278
 1004 004c B968     		ldr	r1, [r7, #8]
 1005 004e 01EB8A01 		add	r1, r1, r10, lsl #2
 1006 0052 0860     		str	r0, [r1]	@ float
  43:chebyshev.cpp ****         float s = sine.Process();
 1007              		.loc 13 43 9 is_stmt 1 view .LVU279
  43:chebyshev.cpp ****         float s = sine.Process();
 1008              		.loc 13 43 19 is_stmt 0 view .LVU280
 1009 0054 F968     		ldr	r1, [r7, #12]
 1010 0056 01EB8A01 		add	r1, r1, r10, lsl #2
 1011 005a 0860     		str	r0, [r1]	@ float
  44:chebyshev.cpp ****         float y = shaper2.process(shaper.process(s))*0.5 + s*0.5;
 1012              		.loc 13 44 9 is_stmt 1 view .LVU281
  44:chebyshev.cpp ****         float y = shaper2.process(shaper.process(s))*0.5 + s*0.5;
 1013              		.loc 13 44 31 is_stmt 0 view .LVU282
 1014 005c 3F48     		ldr	r0, .L33+12
ARM GAS  /var/folders/z2/7_lhr9dn53s9tj4s0rwtyswm0000gn/T//ccJ9q3ms.s 			page 48


 1015 005e FFF7FEFF 		bl	_ZN7daisysp10Oscillator7ProcessEv
 1016              	.LVL52:
 1017 0062 B0EE408A 		vmov.f32	s16, s0
 1018              	.LVL53:
  45:chebyshev.cpp ****         out[0][i] = y;
 1019              		.loc 13 45 9 is_stmt 1 view .LVU283
  45:chebyshev.cpp ****         out[0][i] = y;
 1020              		.loc 13 45 34 is_stmt 0 view .LVU284
 1021 0066 3E48     		ldr	r0, .L33+16
 1022 0068 FFF7FEFF 		bl	_ZN7daisysp6ShaperILj512EE7processEf
 1023              	.LVL54:
  45:chebyshev.cpp ****         out[0][i] = y;
 1024              		.loc 13 45 34 view .LVU285
 1025 006c 3D48     		ldr	r0, .L33+20
 1026 006e FFF7FEFF 		bl	_ZN7daisysp6ShaperILj512EE7processEf
 1027              	.LVL55:
  45:chebyshev.cpp ****         out[0][i] = y;
 1028              		.loc 13 45 61 view .LVU286
 1029 0072 B6EE006B 		vmov.f64	d6, #5.0e-1
  45:chebyshev.cpp ****         out[0][i] = y;
 1030              		.loc 13 45 60 view .LVU287
 1031 0076 B7EEC87A 		vcvt.f64.f32	d7, s16
  46:chebyshev.cpp ****         out[1][i] = y; 
 1032              		.loc 13 46 17 view .LVU288
 1033 007a 3968     		ldr	r1, [r7]
  45:chebyshev.cpp ****         out[0][i] = y;
 1034              		.loc 13 45 34 view .LVU289
 1035 007c B7EEC00A 		vcvt.f64.f32	d0, s0
  46:chebyshev.cpp ****         out[1][i] = y; 
 1036              		.loc 13 46 17 view .LVU290
 1037 0080 009B     		ldr	r3, [sp]
  45:chebyshev.cpp ****         out[0][i] = y;
 1038              		.loc 13 45 61 view .LVU291
 1039 0082 27EE067B 		vmul.f64	d7, d7, d6
  46:chebyshev.cpp ****         out[1][i] = y; 
 1040              		.loc 13 46 17 view .LVU292
 1041 0086 1944     		add	r1, r1, r3
 1042 0088 1846     		mov	r0, r3
  47:chebyshev.cpp ****         out[0][i] *= z;
 1043              		.loc 13 47 17 view .LVU293
 1044 008a 7B68     		ldr	r3, [r7, #4]
 1045 008c 0344     		add	r3, r3, r0
 1046 008e 3448     		ldr	r0, .L33+16
  45:chebyshev.cpp ****         out[0][i] = y;
 1047              		.loc 13 45 58 view .LVU294
 1048 0090 A0EE067B 		vfma.f64	d7, d0, d6
  45:chebyshev.cpp ****         out[0][i] = y;
 1049              		.loc 13 45 62 view .LVU295
 1050 0094 B7EEC77B 		vcvt.f32.f64	s14, d7
 1051              	.LVL56:
  46:chebyshev.cpp ****         out[1][i] = y; 
 1052              		.loc 13 46 9 is_stmt 1 view .LVU296
  46:chebyshev.cpp ****         out[1][i] = y; 
 1053              		.loc 13 46 19 is_stmt 0 view .LVU297
 1054 0098 81ED007A 		vstr.32	s14, [r1]
  47:chebyshev.cpp ****         out[0][i] *= z;
 1055              		.loc 13 47 9 is_stmt 1 view .LVU298
ARM GAS  /var/folders/z2/7_lhr9dn53s9tj4s0rwtyswm0000gn/T//ccJ9q3ms.s 			page 49


  47:chebyshev.cpp ****         out[0][i] *= z;
 1056              		.loc 13 47 19 is_stmt 0 view .LVU299
 1057 009c 83ED007A 		vstr.32	s14, [r3]
  48:chebyshev.cpp ****         out[1][i] *= z;
 1058              		.loc 13 48 9 is_stmt 1 view .LVU300
  48:chebyshev.cpp ****         out[1][i] *= z;
 1059              		.loc 13 48 19 is_stmt 0 view .LVU301
 1060 00a0 D9ED007A 		vldr.32	s15, [r9]
 1061 00a4 27EE877A 		vmul.f32	s14, s15, s14
 1062              	.LVL57:
  48:chebyshev.cpp ****         out[1][i] *= z;
 1063              		.loc 13 48 19 view .LVU302
 1064 00a8 81ED007A 		vstr.32	s14, [r1]
 1065              	.LVL58:
  49:chebyshev.cpp ****         float * ws = shaper.getWeights();
 1066              		.loc 13 49 9 is_stmt 1 view .LVU303
  49:chebyshev.cpp ****         float * ws = shaper.getWeights();
 1067              		.loc 13 49 19 is_stmt 0 view .LVU304
 1068 00ac D3ED007A 		vldr.32	s15, [r3]
 1069 00b0 99ED007A 		vldr.32	s14, [r9]
 1070 00b4 67EE877A 		vmul.f32	s15, s15, s14
 1071 00b8 C3ED007A 		vstr.32	s15, [r3]
  50:chebyshev.cpp ****         for (uint_fast8_t i = 0; i < 10; ++i) {
 1072              		.loc 13 50 9 is_stmt 1 view .LVU305
 1073              	.LVL59:
  51:chebyshev.cpp ****              ws[i] = waver[(52*i + static_cast<int>(ph*512))%512]; 
 1074              		.loc 13 51 9 view .LVU306
 1075              	.LBB555:
  51:chebyshev.cpp ****              ws[i] = waver[(52*i + static_cast<int>(ph*512))%512]; 
 1076              		.loc 13 51 36 view .LVU307
  52:chebyshev.cpp ****         }
 1077              		.loc 13 52 55 is_stmt 0 view .LVU308
 1078 00bc 2A4B     		ldr	r3, .L33+24
 1079 00be D3ED007A 		vldr.32	s15, [r3]
  52:chebyshev.cpp ****         }
 1080              		.loc 13 52 36 view .LVU309
 1081 00c2 B0EE677A 		vmov.f32	s14, s15
 1082 00c6 BEEEEB7A 		vcvt.s32.f32	s14, s14, #9
 1083 00ca 17EE101A 		vmov	r1, s14	@ int
 1084              	.LVL60:
 1085              	.L23:
  52:chebyshev.cpp ****         }
 1086              		.loc 13 52 14 is_stmt 1 discriminator 2 view .LVU310
  52:chebyshev.cpp ****         }
 1087              		.loc 13 52 61 is_stmt 0 discriminator 2 view .LVU311
 1088 00ce C1F30803 		ubfx	r3, r1, #0, #9
  52:chebyshev.cpp ****         }
 1089              		.loc 13 52 65 discriminator 2 view .LVU312
 1090 00d2 3431     		adds	r1, r1, #52
 1091 00d4 04EB8303 		add	r3, r4, r3, lsl #2
  52:chebyshev.cpp ****         }
 1092              		.loc 13 52 20 discriminator 2 view .LVU313
 1093 00d8 1B68     		ldr	r3, [r3]	@ float
 1094 00da 40F8043B 		str	r3, [r0], #4	@ float
  51:chebyshev.cpp ****              ws[i] = waver[(52*i + static_cast<int>(ph*512))%512]; 
 1095              		.loc 13 51 9 is_stmt 1 discriminator 2 view .LVU314
  51:chebyshev.cpp ****              ws[i] = waver[(52*i + static_cast<int>(ph*512))%512]; 
ARM GAS  /var/folders/z2/7_lhr9dn53s9tj4s0rwtyswm0000gn/T//ccJ9q3ms.s 			page 50


 1096              		.loc 13 51 36 discriminator 2 view .LVU315
 1097 00de B042     		cmp	r0, r6
 1098 00e0 F5D1     		bne	.L23
 1099              	.LBE555:
 1100              	.LBB556:
  56:chebyshev.cpp ****        }
 1101              		.loc 13 56 56 is_stmt 0 view .LVU316
 1102 00e2 98ED007A 		vldr.32	s14, [r8]
 1103 00e6 1F48     		ldr	r0, .L33+20
  56:chebyshev.cpp ****        }
 1104              		.loc 13 56 36 view .LVU317
 1105 00e8 F0EE476A 		vmov.f32	s13, s14
 1106 00ec FEEEEB6A 		vcvt.s32.f32	s13, s13, #9
 1107 00f0 16EE901A 		vmov	r1, s13	@ int
 1108              	.LVL61:
 1109              	.L24:
  56:chebyshev.cpp ****        }
 1110              		.loc 13 56 14 is_stmt 1 discriminator 2 view .LVU318
  56:chebyshev.cpp ****        }
 1111              		.loc 13 56 62 is_stmt 0 discriminator 2 view .LVU319
 1112 00f4 C1F30803 		ubfx	r3, r1, #0, #9
  56:chebyshev.cpp ****        }
 1113              		.loc 13 56 66 discriminator 2 view .LVU320
 1114 00f8 3431     		adds	r1, r1, #52
 1115 00fa 04EB8303 		add	r3, r4, r3, lsl #2
  56:chebyshev.cpp ****        }
 1116              		.loc 13 56 20 discriminator 2 view .LVU321
 1117 00fe 1B68     		ldr	r3, [r3]	@ float
 1118 0100 40F8043B 		str	r3, [r0], #4	@ float
  55:chebyshev.cpp ****              ws[i] = waver[(52*i + static_cast<int>(ph2*512))%512]; 
 1119              		.loc 13 55 9 is_stmt 1 discriminator 2 view .LVU322
  55:chebyshev.cpp ****              ws[i] = waver[(52*i + static_cast<int>(ph2*512))%512]; 
 1120              		.loc 13 55 36 discriminator 2 view .LVU323
 1121 0104 8542     		cmp	r5, r0
 1122 0106 F5D1     		bne	.L24
 1123              	.LBE556:
  58:chebyshev.cpp ****         ph2 = fmod(ph2 + inc2, 1.f);
 1124              		.loc 13 58 9 discriminator 2 view .LVU324
 1125              	.LVL62:
 1126              	.LBB557:
 1127              	.LBI557:
 1128              		.file 19 "/Applications/ARM/arm-none-eabi/include/c++/10.3.1/cmath"
   1:/Applications/ARM/arm-none-eabi/include/c++/10.3.1/cmath **** // -*- C++ -*- C forwarding header.
   2:/Applications/ARM/arm-none-eabi/include/c++/10.3.1/cmath **** 
   3:/Applications/ARM/arm-none-eabi/include/c++/10.3.1/cmath **** // Copyright (C) 1997-2020 Free Software Foundation, Inc.
   4:/Applications/ARM/arm-none-eabi/include/c++/10.3.1/cmath **** //
   5:/Applications/ARM/arm-none-eabi/include/c++/10.3.1/cmath **** // This file is part of the GNU ISO C++ Library.  This library is free
   6:/Applications/ARM/arm-none-eabi/include/c++/10.3.1/cmath **** // software; you can redistribute it and/or modify it under the
   7:/Applications/ARM/arm-none-eabi/include/c++/10.3.1/cmath **** // terms of the GNU General Public License as published by the
   8:/Applications/ARM/arm-none-eabi/include/c++/10.3.1/cmath **** // Free Software Foundation; either version 3, or (at your option)
   9:/Applications/ARM/arm-none-eabi/include/c++/10.3.1/cmath **** // any later version.
  10:/Applications/ARM/arm-none-eabi/include/c++/10.3.1/cmath **** 
  11:/Applications/ARM/arm-none-eabi/include/c++/10.3.1/cmath **** // This library is distributed in the hope that it will be useful,
  12:/Applications/ARM/arm-none-eabi/include/c++/10.3.1/cmath **** // but WITHOUT ANY WARRANTY; without even the implied warranty of
  13:/Applications/ARM/arm-none-eabi/include/c++/10.3.1/cmath **** // MERCHANTABILITY or FITNESS FOR A PARTICULAR PURPOSE.  See the
  14:/Applications/ARM/arm-none-eabi/include/c++/10.3.1/cmath **** // GNU General Public License for more details.
  15:/Applications/ARM/arm-none-eabi/include/c++/10.3.1/cmath **** 
ARM GAS  /var/folders/z2/7_lhr9dn53s9tj4s0rwtyswm0000gn/T//ccJ9q3ms.s 			page 51


  16:/Applications/ARM/arm-none-eabi/include/c++/10.3.1/cmath **** // Under Section 7 of GPL version 3, you are granted additional
  17:/Applications/ARM/arm-none-eabi/include/c++/10.3.1/cmath **** // permissions described in the GCC Runtime Library Exception, version
  18:/Applications/ARM/arm-none-eabi/include/c++/10.3.1/cmath **** // 3.1, as published by the Free Software Foundation.
  19:/Applications/ARM/arm-none-eabi/include/c++/10.3.1/cmath **** 
  20:/Applications/ARM/arm-none-eabi/include/c++/10.3.1/cmath **** // You should have received a copy of the GNU General Public License and
  21:/Applications/ARM/arm-none-eabi/include/c++/10.3.1/cmath **** // a copy of the GCC Runtime Library Exception along with this program;
  22:/Applications/ARM/arm-none-eabi/include/c++/10.3.1/cmath **** // see the files COPYING3 and COPYING.RUNTIME respectively.  If not, see
  23:/Applications/ARM/arm-none-eabi/include/c++/10.3.1/cmath **** // <http://www.gnu.org/licenses/>.
  24:/Applications/ARM/arm-none-eabi/include/c++/10.3.1/cmath **** 
  25:/Applications/ARM/arm-none-eabi/include/c++/10.3.1/cmath **** /** @file include/cmath
  26:/Applications/ARM/arm-none-eabi/include/c++/10.3.1/cmath ****  *  This is a Standard C++ Library file.  You should @c \#include this file
  27:/Applications/ARM/arm-none-eabi/include/c++/10.3.1/cmath ****  *  in your programs, rather than any of the @a *.h implementation files.
  28:/Applications/ARM/arm-none-eabi/include/c++/10.3.1/cmath ****  *
  29:/Applications/ARM/arm-none-eabi/include/c++/10.3.1/cmath ****  *  This is the C++ version of the Standard C Library header @c math.h,
  30:/Applications/ARM/arm-none-eabi/include/c++/10.3.1/cmath ****  *  and its contents are (mostly) the same as that header, but are all
  31:/Applications/ARM/arm-none-eabi/include/c++/10.3.1/cmath ****  *  contained in the namespace @c std (except for names which are defined
  32:/Applications/ARM/arm-none-eabi/include/c++/10.3.1/cmath ****  *  as macros in C).
  33:/Applications/ARM/arm-none-eabi/include/c++/10.3.1/cmath ****  */
  34:/Applications/ARM/arm-none-eabi/include/c++/10.3.1/cmath **** 
  35:/Applications/ARM/arm-none-eabi/include/c++/10.3.1/cmath **** //
  36:/Applications/ARM/arm-none-eabi/include/c++/10.3.1/cmath **** // ISO C++ 14882: 26.5  C library
  37:/Applications/ARM/arm-none-eabi/include/c++/10.3.1/cmath **** //
  38:/Applications/ARM/arm-none-eabi/include/c++/10.3.1/cmath **** 
  39:/Applications/ARM/arm-none-eabi/include/c++/10.3.1/cmath **** #pragma GCC system_header
  40:/Applications/ARM/arm-none-eabi/include/c++/10.3.1/cmath **** 
  41:/Applications/ARM/arm-none-eabi/include/c++/10.3.1/cmath **** #include <bits/c++config.h>
  42:/Applications/ARM/arm-none-eabi/include/c++/10.3.1/cmath **** #include <bits/cpp_type_traits.h>
  43:/Applications/ARM/arm-none-eabi/include/c++/10.3.1/cmath **** #include <ext/type_traits.h>
  44:/Applications/ARM/arm-none-eabi/include/c++/10.3.1/cmath **** #define _GLIBCXX_INCLUDE_NEXT_C_HEADERS
  45:/Applications/ARM/arm-none-eabi/include/c++/10.3.1/cmath **** #include_next <math.h>
  46:/Applications/ARM/arm-none-eabi/include/c++/10.3.1/cmath **** #undef _GLIBCXX_INCLUDE_NEXT_C_HEADERS
  47:/Applications/ARM/arm-none-eabi/include/c++/10.3.1/cmath **** #include <bits/std_abs.h>
  48:/Applications/ARM/arm-none-eabi/include/c++/10.3.1/cmath **** 
  49:/Applications/ARM/arm-none-eabi/include/c++/10.3.1/cmath **** #ifndef _GLIBCXX_CMATH
  50:/Applications/ARM/arm-none-eabi/include/c++/10.3.1/cmath **** #define _GLIBCXX_CMATH 1
  51:/Applications/ARM/arm-none-eabi/include/c++/10.3.1/cmath **** 
  52:/Applications/ARM/arm-none-eabi/include/c++/10.3.1/cmath **** // Get rid of those macros defined in <math.h> in lieu of real functions.
  53:/Applications/ARM/arm-none-eabi/include/c++/10.3.1/cmath **** #undef div
  54:/Applications/ARM/arm-none-eabi/include/c++/10.3.1/cmath **** #undef acos
  55:/Applications/ARM/arm-none-eabi/include/c++/10.3.1/cmath **** #undef asin
  56:/Applications/ARM/arm-none-eabi/include/c++/10.3.1/cmath **** #undef atan
  57:/Applications/ARM/arm-none-eabi/include/c++/10.3.1/cmath **** #undef atan2
  58:/Applications/ARM/arm-none-eabi/include/c++/10.3.1/cmath **** #undef ceil
  59:/Applications/ARM/arm-none-eabi/include/c++/10.3.1/cmath **** #undef cos
  60:/Applications/ARM/arm-none-eabi/include/c++/10.3.1/cmath **** #undef cosh
  61:/Applications/ARM/arm-none-eabi/include/c++/10.3.1/cmath **** #undef exp
  62:/Applications/ARM/arm-none-eabi/include/c++/10.3.1/cmath **** #undef fabs
  63:/Applications/ARM/arm-none-eabi/include/c++/10.3.1/cmath **** #undef floor
  64:/Applications/ARM/arm-none-eabi/include/c++/10.3.1/cmath **** #undef fmod
  65:/Applications/ARM/arm-none-eabi/include/c++/10.3.1/cmath **** #undef frexp
  66:/Applications/ARM/arm-none-eabi/include/c++/10.3.1/cmath **** #undef ldexp
  67:/Applications/ARM/arm-none-eabi/include/c++/10.3.1/cmath **** #undef log
  68:/Applications/ARM/arm-none-eabi/include/c++/10.3.1/cmath **** #undef log10
  69:/Applications/ARM/arm-none-eabi/include/c++/10.3.1/cmath **** #undef modf
  70:/Applications/ARM/arm-none-eabi/include/c++/10.3.1/cmath **** #undef pow
  71:/Applications/ARM/arm-none-eabi/include/c++/10.3.1/cmath **** #undef sin
  72:/Applications/ARM/arm-none-eabi/include/c++/10.3.1/cmath **** #undef sinh
ARM GAS  /var/folders/z2/7_lhr9dn53s9tj4s0rwtyswm0000gn/T//ccJ9q3ms.s 			page 52


  73:/Applications/ARM/arm-none-eabi/include/c++/10.3.1/cmath **** #undef sqrt
  74:/Applications/ARM/arm-none-eabi/include/c++/10.3.1/cmath **** #undef tan
  75:/Applications/ARM/arm-none-eabi/include/c++/10.3.1/cmath **** #undef tanh
  76:/Applications/ARM/arm-none-eabi/include/c++/10.3.1/cmath **** 
  77:/Applications/ARM/arm-none-eabi/include/c++/10.3.1/cmath **** extern "C++"
  78:/Applications/ARM/arm-none-eabi/include/c++/10.3.1/cmath **** {
  79:/Applications/ARM/arm-none-eabi/include/c++/10.3.1/cmath **** namespace std _GLIBCXX_VISIBILITY(default)
  80:/Applications/ARM/arm-none-eabi/include/c++/10.3.1/cmath **** {
  81:/Applications/ARM/arm-none-eabi/include/c++/10.3.1/cmath **** _GLIBCXX_BEGIN_NAMESPACE_VERSION
  82:/Applications/ARM/arm-none-eabi/include/c++/10.3.1/cmath **** 
  83:/Applications/ARM/arm-none-eabi/include/c++/10.3.1/cmath ****   using ::acos;
  84:/Applications/ARM/arm-none-eabi/include/c++/10.3.1/cmath **** 
  85:/Applications/ARM/arm-none-eabi/include/c++/10.3.1/cmath **** #ifndef __CORRECT_ISO_CPP_MATH_H_PROTO
  86:/Applications/ARM/arm-none-eabi/include/c++/10.3.1/cmath ****   inline _GLIBCXX_CONSTEXPR float
  87:/Applications/ARM/arm-none-eabi/include/c++/10.3.1/cmath ****   acos(float __x)
  88:/Applications/ARM/arm-none-eabi/include/c++/10.3.1/cmath ****   { return __builtin_acosf(__x); }
  89:/Applications/ARM/arm-none-eabi/include/c++/10.3.1/cmath **** 
  90:/Applications/ARM/arm-none-eabi/include/c++/10.3.1/cmath ****   inline _GLIBCXX_CONSTEXPR long double
  91:/Applications/ARM/arm-none-eabi/include/c++/10.3.1/cmath ****   acos(long double __x)
  92:/Applications/ARM/arm-none-eabi/include/c++/10.3.1/cmath ****   { return __builtin_acosl(__x); }
  93:/Applications/ARM/arm-none-eabi/include/c++/10.3.1/cmath **** #endif
  94:/Applications/ARM/arm-none-eabi/include/c++/10.3.1/cmath **** 
  95:/Applications/ARM/arm-none-eabi/include/c++/10.3.1/cmath ****   template<typename _Tp>
  96:/Applications/ARM/arm-none-eabi/include/c++/10.3.1/cmath ****     inline _GLIBCXX_CONSTEXPR
  97:/Applications/ARM/arm-none-eabi/include/c++/10.3.1/cmath ****     typename __gnu_cxx::__enable_if<__is_integer<_Tp>::__value, 
  98:/Applications/ARM/arm-none-eabi/include/c++/10.3.1/cmath ****                                     double>::__type
  99:/Applications/ARM/arm-none-eabi/include/c++/10.3.1/cmath ****     acos(_Tp __x)
 100:/Applications/ARM/arm-none-eabi/include/c++/10.3.1/cmath ****     { return __builtin_acos(__x); }
 101:/Applications/ARM/arm-none-eabi/include/c++/10.3.1/cmath **** 
 102:/Applications/ARM/arm-none-eabi/include/c++/10.3.1/cmath ****   using ::asin;
 103:/Applications/ARM/arm-none-eabi/include/c++/10.3.1/cmath **** 
 104:/Applications/ARM/arm-none-eabi/include/c++/10.3.1/cmath **** #ifndef __CORRECT_ISO_CPP_MATH_H_PROTO
 105:/Applications/ARM/arm-none-eabi/include/c++/10.3.1/cmath ****   inline _GLIBCXX_CONSTEXPR float
 106:/Applications/ARM/arm-none-eabi/include/c++/10.3.1/cmath ****   asin(float __x)
 107:/Applications/ARM/arm-none-eabi/include/c++/10.3.1/cmath ****   { return __builtin_asinf(__x); }
 108:/Applications/ARM/arm-none-eabi/include/c++/10.3.1/cmath **** 
 109:/Applications/ARM/arm-none-eabi/include/c++/10.3.1/cmath ****   inline _GLIBCXX_CONSTEXPR long double
 110:/Applications/ARM/arm-none-eabi/include/c++/10.3.1/cmath ****   asin(long double __x)
 111:/Applications/ARM/arm-none-eabi/include/c++/10.3.1/cmath ****   { return __builtin_asinl(__x); }
 112:/Applications/ARM/arm-none-eabi/include/c++/10.3.1/cmath **** #endif
 113:/Applications/ARM/arm-none-eabi/include/c++/10.3.1/cmath **** 
 114:/Applications/ARM/arm-none-eabi/include/c++/10.3.1/cmath ****   template<typename _Tp>
 115:/Applications/ARM/arm-none-eabi/include/c++/10.3.1/cmath ****     inline _GLIBCXX_CONSTEXPR
 116:/Applications/ARM/arm-none-eabi/include/c++/10.3.1/cmath ****     typename __gnu_cxx::__enable_if<__is_integer<_Tp>::__value,
 117:/Applications/ARM/arm-none-eabi/include/c++/10.3.1/cmath ****                                     double>::__type
 118:/Applications/ARM/arm-none-eabi/include/c++/10.3.1/cmath ****     asin(_Tp __x)
 119:/Applications/ARM/arm-none-eabi/include/c++/10.3.1/cmath ****     { return __builtin_asin(__x); }
 120:/Applications/ARM/arm-none-eabi/include/c++/10.3.1/cmath **** 
 121:/Applications/ARM/arm-none-eabi/include/c++/10.3.1/cmath ****   using ::atan;
 122:/Applications/ARM/arm-none-eabi/include/c++/10.3.1/cmath **** 
 123:/Applications/ARM/arm-none-eabi/include/c++/10.3.1/cmath **** #ifndef __CORRECT_ISO_CPP_MATH_H_PROTO
 124:/Applications/ARM/arm-none-eabi/include/c++/10.3.1/cmath ****   inline _GLIBCXX_CONSTEXPR float
 125:/Applications/ARM/arm-none-eabi/include/c++/10.3.1/cmath ****   atan(float __x)
 126:/Applications/ARM/arm-none-eabi/include/c++/10.3.1/cmath ****   { return __builtin_atanf(__x); }
 127:/Applications/ARM/arm-none-eabi/include/c++/10.3.1/cmath **** 
 128:/Applications/ARM/arm-none-eabi/include/c++/10.3.1/cmath ****   inline _GLIBCXX_CONSTEXPR long double
 129:/Applications/ARM/arm-none-eabi/include/c++/10.3.1/cmath ****   atan(long double __x)
ARM GAS  /var/folders/z2/7_lhr9dn53s9tj4s0rwtyswm0000gn/T//ccJ9q3ms.s 			page 53


 130:/Applications/ARM/arm-none-eabi/include/c++/10.3.1/cmath ****   { return __builtin_atanl(__x); }
 131:/Applications/ARM/arm-none-eabi/include/c++/10.3.1/cmath **** #endif
 132:/Applications/ARM/arm-none-eabi/include/c++/10.3.1/cmath **** 
 133:/Applications/ARM/arm-none-eabi/include/c++/10.3.1/cmath ****   template<typename _Tp>
 134:/Applications/ARM/arm-none-eabi/include/c++/10.3.1/cmath ****     inline _GLIBCXX_CONSTEXPR
 135:/Applications/ARM/arm-none-eabi/include/c++/10.3.1/cmath ****     typename __gnu_cxx::__enable_if<__is_integer<_Tp>::__value,
 136:/Applications/ARM/arm-none-eabi/include/c++/10.3.1/cmath ****                                     double>::__type
 137:/Applications/ARM/arm-none-eabi/include/c++/10.3.1/cmath ****     atan(_Tp __x)
 138:/Applications/ARM/arm-none-eabi/include/c++/10.3.1/cmath ****     { return __builtin_atan(__x); }
 139:/Applications/ARM/arm-none-eabi/include/c++/10.3.1/cmath **** 
 140:/Applications/ARM/arm-none-eabi/include/c++/10.3.1/cmath ****   using ::atan2;
 141:/Applications/ARM/arm-none-eabi/include/c++/10.3.1/cmath **** 
 142:/Applications/ARM/arm-none-eabi/include/c++/10.3.1/cmath **** #ifndef __CORRECT_ISO_CPP_MATH_H_PROTO
 143:/Applications/ARM/arm-none-eabi/include/c++/10.3.1/cmath ****   inline _GLIBCXX_CONSTEXPR float
 144:/Applications/ARM/arm-none-eabi/include/c++/10.3.1/cmath ****   atan2(float __y, float __x)
 145:/Applications/ARM/arm-none-eabi/include/c++/10.3.1/cmath ****   { return __builtin_atan2f(__y, __x); }
 146:/Applications/ARM/arm-none-eabi/include/c++/10.3.1/cmath **** 
 147:/Applications/ARM/arm-none-eabi/include/c++/10.3.1/cmath ****   inline _GLIBCXX_CONSTEXPR long double
 148:/Applications/ARM/arm-none-eabi/include/c++/10.3.1/cmath ****   atan2(long double __y, long double __x)
 149:/Applications/ARM/arm-none-eabi/include/c++/10.3.1/cmath ****   { return __builtin_atan2l(__y, __x); }
 150:/Applications/ARM/arm-none-eabi/include/c++/10.3.1/cmath **** #endif
 151:/Applications/ARM/arm-none-eabi/include/c++/10.3.1/cmath **** 
 152:/Applications/ARM/arm-none-eabi/include/c++/10.3.1/cmath ****   template<typename _Tp, typename _Up>
 153:/Applications/ARM/arm-none-eabi/include/c++/10.3.1/cmath ****     inline _GLIBCXX_CONSTEXPR
 154:/Applications/ARM/arm-none-eabi/include/c++/10.3.1/cmath ****     typename __gnu_cxx::__promote_2<_Tp, _Up>::__type
 155:/Applications/ARM/arm-none-eabi/include/c++/10.3.1/cmath ****     atan2(_Tp __y, _Up __x)
 156:/Applications/ARM/arm-none-eabi/include/c++/10.3.1/cmath ****     {
 157:/Applications/ARM/arm-none-eabi/include/c++/10.3.1/cmath ****       typedef typename __gnu_cxx::__promote_2<_Tp, _Up>::__type __type;
 158:/Applications/ARM/arm-none-eabi/include/c++/10.3.1/cmath ****       return atan2(__type(__y), __type(__x));
 159:/Applications/ARM/arm-none-eabi/include/c++/10.3.1/cmath ****     }
 160:/Applications/ARM/arm-none-eabi/include/c++/10.3.1/cmath **** 
 161:/Applications/ARM/arm-none-eabi/include/c++/10.3.1/cmath ****   using ::ceil;
 162:/Applications/ARM/arm-none-eabi/include/c++/10.3.1/cmath **** 
 163:/Applications/ARM/arm-none-eabi/include/c++/10.3.1/cmath **** #ifndef __CORRECT_ISO_CPP_MATH_H_PROTO
 164:/Applications/ARM/arm-none-eabi/include/c++/10.3.1/cmath ****   inline _GLIBCXX_CONSTEXPR float
 165:/Applications/ARM/arm-none-eabi/include/c++/10.3.1/cmath ****   ceil(float __x)
 166:/Applications/ARM/arm-none-eabi/include/c++/10.3.1/cmath ****   { return __builtin_ceilf(__x); }
 167:/Applications/ARM/arm-none-eabi/include/c++/10.3.1/cmath **** 
 168:/Applications/ARM/arm-none-eabi/include/c++/10.3.1/cmath ****   inline _GLIBCXX_CONSTEXPR long double
 169:/Applications/ARM/arm-none-eabi/include/c++/10.3.1/cmath ****   ceil(long double __x)
 170:/Applications/ARM/arm-none-eabi/include/c++/10.3.1/cmath ****   { return __builtin_ceill(__x); }
 171:/Applications/ARM/arm-none-eabi/include/c++/10.3.1/cmath **** #endif
 172:/Applications/ARM/arm-none-eabi/include/c++/10.3.1/cmath **** 
 173:/Applications/ARM/arm-none-eabi/include/c++/10.3.1/cmath ****   template<typename _Tp>
 174:/Applications/ARM/arm-none-eabi/include/c++/10.3.1/cmath ****     inline _GLIBCXX_CONSTEXPR
 175:/Applications/ARM/arm-none-eabi/include/c++/10.3.1/cmath ****     typename __gnu_cxx::__enable_if<__is_integer<_Tp>::__value, 
 176:/Applications/ARM/arm-none-eabi/include/c++/10.3.1/cmath ****                                     double>::__type
 177:/Applications/ARM/arm-none-eabi/include/c++/10.3.1/cmath ****     ceil(_Tp __x)
 178:/Applications/ARM/arm-none-eabi/include/c++/10.3.1/cmath ****     { return __builtin_ceil(__x); }
 179:/Applications/ARM/arm-none-eabi/include/c++/10.3.1/cmath **** 
 180:/Applications/ARM/arm-none-eabi/include/c++/10.3.1/cmath ****   using ::cos;
 181:/Applications/ARM/arm-none-eabi/include/c++/10.3.1/cmath **** 
 182:/Applications/ARM/arm-none-eabi/include/c++/10.3.1/cmath **** #ifndef __CORRECT_ISO_CPP_MATH_H_PROTO
 183:/Applications/ARM/arm-none-eabi/include/c++/10.3.1/cmath ****   inline _GLIBCXX_CONSTEXPR float
 184:/Applications/ARM/arm-none-eabi/include/c++/10.3.1/cmath ****   cos(float __x)
 185:/Applications/ARM/arm-none-eabi/include/c++/10.3.1/cmath ****   { return __builtin_cosf(__x); }
 186:/Applications/ARM/arm-none-eabi/include/c++/10.3.1/cmath **** 
ARM GAS  /var/folders/z2/7_lhr9dn53s9tj4s0rwtyswm0000gn/T//ccJ9q3ms.s 			page 54


 187:/Applications/ARM/arm-none-eabi/include/c++/10.3.1/cmath ****   inline _GLIBCXX_CONSTEXPR long double
 188:/Applications/ARM/arm-none-eabi/include/c++/10.3.1/cmath ****   cos(long double __x)
 189:/Applications/ARM/arm-none-eabi/include/c++/10.3.1/cmath ****   { return __builtin_cosl(__x); }
 190:/Applications/ARM/arm-none-eabi/include/c++/10.3.1/cmath **** #endif
 191:/Applications/ARM/arm-none-eabi/include/c++/10.3.1/cmath **** 
 192:/Applications/ARM/arm-none-eabi/include/c++/10.3.1/cmath ****   template<typename _Tp>
 193:/Applications/ARM/arm-none-eabi/include/c++/10.3.1/cmath ****     inline _GLIBCXX_CONSTEXPR
 194:/Applications/ARM/arm-none-eabi/include/c++/10.3.1/cmath ****     typename __gnu_cxx::__enable_if<__is_integer<_Tp>::__value,
 195:/Applications/ARM/arm-none-eabi/include/c++/10.3.1/cmath ****                                     double>::__type
 196:/Applications/ARM/arm-none-eabi/include/c++/10.3.1/cmath ****     cos(_Tp __x)
 197:/Applications/ARM/arm-none-eabi/include/c++/10.3.1/cmath ****     { return __builtin_cos(__x); }
 198:/Applications/ARM/arm-none-eabi/include/c++/10.3.1/cmath **** 
 199:/Applications/ARM/arm-none-eabi/include/c++/10.3.1/cmath ****   using ::cosh;
 200:/Applications/ARM/arm-none-eabi/include/c++/10.3.1/cmath **** 
 201:/Applications/ARM/arm-none-eabi/include/c++/10.3.1/cmath **** #ifndef __CORRECT_ISO_CPP_MATH_H_PROTO
 202:/Applications/ARM/arm-none-eabi/include/c++/10.3.1/cmath ****   inline _GLIBCXX_CONSTEXPR float
 203:/Applications/ARM/arm-none-eabi/include/c++/10.3.1/cmath ****   cosh(float __x)
 204:/Applications/ARM/arm-none-eabi/include/c++/10.3.1/cmath ****   { return __builtin_coshf(__x); }
 205:/Applications/ARM/arm-none-eabi/include/c++/10.3.1/cmath **** 
 206:/Applications/ARM/arm-none-eabi/include/c++/10.3.1/cmath ****   inline _GLIBCXX_CONSTEXPR long double
 207:/Applications/ARM/arm-none-eabi/include/c++/10.3.1/cmath ****   cosh(long double __x)
 208:/Applications/ARM/arm-none-eabi/include/c++/10.3.1/cmath ****   { return __builtin_coshl(__x); }
 209:/Applications/ARM/arm-none-eabi/include/c++/10.3.1/cmath **** #endif
 210:/Applications/ARM/arm-none-eabi/include/c++/10.3.1/cmath **** 
 211:/Applications/ARM/arm-none-eabi/include/c++/10.3.1/cmath ****   template<typename _Tp>
 212:/Applications/ARM/arm-none-eabi/include/c++/10.3.1/cmath ****     inline _GLIBCXX_CONSTEXPR
 213:/Applications/ARM/arm-none-eabi/include/c++/10.3.1/cmath ****     typename __gnu_cxx::__enable_if<__is_integer<_Tp>::__value,
 214:/Applications/ARM/arm-none-eabi/include/c++/10.3.1/cmath ****                                     double>::__type
 215:/Applications/ARM/arm-none-eabi/include/c++/10.3.1/cmath ****     cosh(_Tp __x)
 216:/Applications/ARM/arm-none-eabi/include/c++/10.3.1/cmath ****     { return __builtin_cosh(__x); }
 217:/Applications/ARM/arm-none-eabi/include/c++/10.3.1/cmath **** 
 218:/Applications/ARM/arm-none-eabi/include/c++/10.3.1/cmath ****   using ::exp;
 219:/Applications/ARM/arm-none-eabi/include/c++/10.3.1/cmath **** 
 220:/Applications/ARM/arm-none-eabi/include/c++/10.3.1/cmath **** #ifndef __CORRECT_ISO_CPP_MATH_H_PROTO
 221:/Applications/ARM/arm-none-eabi/include/c++/10.3.1/cmath ****   inline _GLIBCXX_CONSTEXPR float
 222:/Applications/ARM/arm-none-eabi/include/c++/10.3.1/cmath ****   exp(float __x)
 223:/Applications/ARM/arm-none-eabi/include/c++/10.3.1/cmath ****   { return __builtin_expf(__x); }
 224:/Applications/ARM/arm-none-eabi/include/c++/10.3.1/cmath **** 
 225:/Applications/ARM/arm-none-eabi/include/c++/10.3.1/cmath ****   inline _GLIBCXX_CONSTEXPR long double
 226:/Applications/ARM/arm-none-eabi/include/c++/10.3.1/cmath ****   exp(long double __x)
 227:/Applications/ARM/arm-none-eabi/include/c++/10.3.1/cmath ****   { return __builtin_expl(__x); }
 228:/Applications/ARM/arm-none-eabi/include/c++/10.3.1/cmath **** #endif
 229:/Applications/ARM/arm-none-eabi/include/c++/10.3.1/cmath **** 
 230:/Applications/ARM/arm-none-eabi/include/c++/10.3.1/cmath ****   template<typename _Tp>
 231:/Applications/ARM/arm-none-eabi/include/c++/10.3.1/cmath ****     inline _GLIBCXX_CONSTEXPR
 232:/Applications/ARM/arm-none-eabi/include/c++/10.3.1/cmath ****     typename __gnu_cxx::__enable_if<__is_integer<_Tp>::__value,
 233:/Applications/ARM/arm-none-eabi/include/c++/10.3.1/cmath ****                                     double>::__type
 234:/Applications/ARM/arm-none-eabi/include/c++/10.3.1/cmath ****     exp(_Tp __x)
 235:/Applications/ARM/arm-none-eabi/include/c++/10.3.1/cmath ****     { return __builtin_exp(__x); }
 236:/Applications/ARM/arm-none-eabi/include/c++/10.3.1/cmath **** 
 237:/Applications/ARM/arm-none-eabi/include/c++/10.3.1/cmath ****   using ::fabs;
 238:/Applications/ARM/arm-none-eabi/include/c++/10.3.1/cmath **** 
 239:/Applications/ARM/arm-none-eabi/include/c++/10.3.1/cmath **** #ifndef __CORRECT_ISO_CPP_MATH_H_PROTO
 240:/Applications/ARM/arm-none-eabi/include/c++/10.3.1/cmath ****   inline _GLIBCXX_CONSTEXPR float
 241:/Applications/ARM/arm-none-eabi/include/c++/10.3.1/cmath ****   fabs(float __x)
 242:/Applications/ARM/arm-none-eabi/include/c++/10.3.1/cmath ****   { return __builtin_fabsf(__x); }
 243:/Applications/ARM/arm-none-eabi/include/c++/10.3.1/cmath **** 
ARM GAS  /var/folders/z2/7_lhr9dn53s9tj4s0rwtyswm0000gn/T//ccJ9q3ms.s 			page 55


 244:/Applications/ARM/arm-none-eabi/include/c++/10.3.1/cmath ****   inline _GLIBCXX_CONSTEXPR long double
 245:/Applications/ARM/arm-none-eabi/include/c++/10.3.1/cmath ****   fabs(long double __x)
 246:/Applications/ARM/arm-none-eabi/include/c++/10.3.1/cmath ****   { return __builtin_fabsl(__x); }
 247:/Applications/ARM/arm-none-eabi/include/c++/10.3.1/cmath **** #endif
 248:/Applications/ARM/arm-none-eabi/include/c++/10.3.1/cmath **** 
 249:/Applications/ARM/arm-none-eabi/include/c++/10.3.1/cmath ****   template<typename _Tp>
 250:/Applications/ARM/arm-none-eabi/include/c++/10.3.1/cmath ****     inline _GLIBCXX_CONSTEXPR
 251:/Applications/ARM/arm-none-eabi/include/c++/10.3.1/cmath ****     typename __gnu_cxx::__enable_if<__is_integer<_Tp>::__value,
 252:/Applications/ARM/arm-none-eabi/include/c++/10.3.1/cmath ****                                     double>::__type
 253:/Applications/ARM/arm-none-eabi/include/c++/10.3.1/cmath ****     fabs(_Tp __x)
 254:/Applications/ARM/arm-none-eabi/include/c++/10.3.1/cmath ****     { return __builtin_fabs(__x); }
 255:/Applications/ARM/arm-none-eabi/include/c++/10.3.1/cmath **** 
 256:/Applications/ARM/arm-none-eabi/include/c++/10.3.1/cmath ****   using ::floor;
 257:/Applications/ARM/arm-none-eabi/include/c++/10.3.1/cmath **** 
 258:/Applications/ARM/arm-none-eabi/include/c++/10.3.1/cmath **** #ifndef __CORRECT_ISO_CPP_MATH_H_PROTO
 259:/Applications/ARM/arm-none-eabi/include/c++/10.3.1/cmath ****   inline _GLIBCXX_CONSTEXPR float
 260:/Applications/ARM/arm-none-eabi/include/c++/10.3.1/cmath ****   floor(float __x)
 261:/Applications/ARM/arm-none-eabi/include/c++/10.3.1/cmath ****   { return __builtin_floorf(__x); }
 262:/Applications/ARM/arm-none-eabi/include/c++/10.3.1/cmath **** 
 263:/Applications/ARM/arm-none-eabi/include/c++/10.3.1/cmath ****   inline _GLIBCXX_CONSTEXPR long double
 264:/Applications/ARM/arm-none-eabi/include/c++/10.3.1/cmath ****   floor(long double __x)
 265:/Applications/ARM/arm-none-eabi/include/c++/10.3.1/cmath ****   { return __builtin_floorl(__x); }
 266:/Applications/ARM/arm-none-eabi/include/c++/10.3.1/cmath **** #endif
 267:/Applications/ARM/arm-none-eabi/include/c++/10.3.1/cmath **** 
 268:/Applications/ARM/arm-none-eabi/include/c++/10.3.1/cmath ****   template<typename _Tp>
 269:/Applications/ARM/arm-none-eabi/include/c++/10.3.1/cmath ****     inline _GLIBCXX_CONSTEXPR
 270:/Applications/ARM/arm-none-eabi/include/c++/10.3.1/cmath ****     typename __gnu_cxx::__enable_if<__is_integer<_Tp>::__value,
 271:/Applications/ARM/arm-none-eabi/include/c++/10.3.1/cmath ****                                     double>::__type
 272:/Applications/ARM/arm-none-eabi/include/c++/10.3.1/cmath ****     floor(_Tp __x)
 273:/Applications/ARM/arm-none-eabi/include/c++/10.3.1/cmath ****     { return __builtin_floor(__x); }
 274:/Applications/ARM/arm-none-eabi/include/c++/10.3.1/cmath **** 
 275:/Applications/ARM/arm-none-eabi/include/c++/10.3.1/cmath ****   using ::fmod;
 276:/Applications/ARM/arm-none-eabi/include/c++/10.3.1/cmath **** 
 277:/Applications/ARM/arm-none-eabi/include/c++/10.3.1/cmath **** #ifndef __CORRECT_ISO_CPP_MATH_H_PROTO
 278:/Applications/ARM/arm-none-eabi/include/c++/10.3.1/cmath ****   inline _GLIBCXX_CONSTEXPR float
 279:/Applications/ARM/arm-none-eabi/include/c++/10.3.1/cmath ****   fmod(float __x, float __y)
 1129              		.loc 19 279 3 discriminator 2 view .LVU325
 1130              	.LBB558:
 280:/Applications/ARM/arm-none-eabi/include/c++/10.3.1/cmath ****   { return __builtin_fmodf(__x, __y); }
 1131              		.loc 19 280 5 discriminator 2 view .LVU326
 1132              	.LBE558:
 1133              	.LBE557:
  58:chebyshev.cpp ****         ph2 = fmod(ph2 + inc2, 1.f);
 1134              		.loc 13 58 18 is_stmt 0 discriminator 2 view .LVU327
 1135 0108 9BED000A 		vldr.32	s0, [fp]
 1136              	.LVL63:
 1137              	.LBB561:
 1138              	.LBB559:
 1139              		.loc 19 280 27 discriminator 2 view .LVU328
 1140 010c F7EE000A 		vmov.f32	s1, #1.0e+0
 1141              	.LBE559:
 1142              	.LBE561:
 1143              	.LBE554:
  38:chebyshev.cpp ****     {
 1144              		.loc 13 38 5 discriminator 2 view .LVU329
 1145 0110 0AF1010A 		add	r10, r10, #1
 1146              	.LVL64:
ARM GAS  /var/folders/z2/7_lhr9dn53s9tj4s0rwtyswm0000gn/T//ccJ9q3ms.s 			page 56


 1147              	.LBB567:
 1148              	.LBB562:
 1149              	.LBB560:
 1150              		.loc 19 280 27 discriminator 2 view .LVU330
 1151 0114 37EE800A 		vadd.f32	s0, s15, s0
 1152              	.LVL65:
 1153              		.loc 19 280 27 discriminator 2 view .LVU331
 1154 0118 FFF7FEFF 		bl	fmodf
 1155              	.LVL66:
 1156              		.loc 19 280 27 discriminator 2 view .LVU332
 1157              	.LBE560:
 1158              	.LBE562:
  59:chebyshev.cpp ****     }
 1159              		.loc 13 59 19 discriminator 2 view .LVU333
 1160 011c 134B     		ldr	r3, .L33+28
 1161 011e 98ED007A 		vldr.32	s14, [r8]
 1162              	.LBB563:
 1163              	.LBB564:
 1164              		.loc 19 280 27 discriminator 2 view .LVU334
 1165 0122 F7EE000A 		vmov.f32	s1, #1.0e+0
 1166              	.LBE564:
 1167              	.LBE563:
  59:chebyshev.cpp ****     }
 1168              		.loc 13 59 19 discriminator 2 view .LVU335
 1169 0126 D3ED007A 		vldr.32	s15, [r3]
  58:chebyshev.cpp ****         ph2 = fmod(ph2 + inc2, 1.f);
 1170              		.loc 13 58 12 discriminator 2 view .LVU336
 1171 012a 0F4B     		ldr	r3, .L33+24
 1172 012c 83ED000A 		vstr.32	s0, [r3]
  59:chebyshev.cpp ****     }
 1173              		.loc 13 59 9 is_stmt 1 discriminator 2 view .LVU337
 1174              	.LVL67:
 1175              	.LBB566:
 1176              	.LBI563:
 279:/Applications/ARM/arm-none-eabi/include/c++/10.3.1/cmath ****   { return __builtin_fmodf(__x, __y); }
 1177              		.loc 19 279 3 discriminator 2 view .LVU338
 1178              	.LBB565:
 1179              		.loc 19 280 5 discriminator 2 view .LVU339
 1180              		.loc 19 280 27 is_stmt 0 discriminator 2 view .LVU340
 1181 0130 37EE270A 		vadd.f32	s0, s14, s15
 1182              	.LVL68:
 1183              		.loc 19 280 27 discriminator 2 view .LVU341
 1184 0134 FFF7FEFF 		bl	fmodf
 1185              	.LVL69:
 1186              		.loc 19 280 27 discriminator 2 view .LVU342
 1187              	.LBE565:
 1188              	.LBE566:
 1189              	.LBE567:
  38:chebyshev.cpp ****     {
 1190              		.loc 13 38 26 discriminator 2 view .LVU343
 1191 0138 019B     		ldr	r3, [sp, #4]
 1192              	.LBB568:
  59:chebyshev.cpp ****     }
 1193              		.loc 13 59 13 discriminator 2 view .LVU344
 1194 013a 88ED000A 		vstr.32	s0, [r8]
 1195              	.LBE568:
  38:chebyshev.cpp ****     {
ARM GAS  /var/folders/z2/7_lhr9dn53s9tj4s0rwtyswm0000gn/T//ccJ9q3ms.s 			page 57


 1196              		.loc 13 38 5 is_stmt 1 discriminator 2 view .LVU345
 1197              	.LVL70:
  38:chebyshev.cpp ****     {
 1198              		.loc 13 38 26 discriminator 2 view .LVU346
 1199 013e 5345     		cmp	r3, r10
 1200 0140 7FF478AF 		bne	.L25
 1201              	.LVL71:
 1202              	.L21:
  38:chebyshev.cpp ****     {
 1203              		.loc 13 38 26 is_stmt 0 discriminator 2 view .LVU347
 1204              	.LBE553:
  61:chebyshev.cpp **** 
 1205              		.loc 13 61 1 view .LVU348
 1206 0144 03B0     		add	sp, sp, #12
 1207              		.cfi_def_cfa_offset 44
 1208              		@ sp needed
 1209 0146 BDEC028B 		vldm	sp!, {d8}
 1210              		.cfi_restore 80
 1211              		.cfi_restore 81
 1212              		.cfi_def_cfa_offset 36
 1213 014a BDE8F08F 		pop	{r4, r5, r6, r7, r8, r9, r10, fp, pc}
 1214              	.LVL72:
 1215              	.L34:
  61:chebyshev.cpp **** 
 1216              		.loc 13 61 1 view .LVU349
 1217 014e 00BF     		.align	2
 1218              	.L33:
 1219 0150 28000000 		.word	.LANCHOR18+40
 1220 0154 00000000 		.word	.LANCHOR20
 1221 0158 28000000 		.word	.LANCHOR19+40
 1222 015c 00000000 		.word	.LANCHOR2
 1223 0160 00000000 		.word	.LANCHOR18
 1224 0164 00000000 		.word	.LANCHOR19
 1225 0168 00000000 		.word	.LANCHOR6
 1226 016c 00000000 		.word	.LANCHOR4
 1227 0170 00000000 		.word	.LANCHOR5
 1228 0174 00000000 		.word	.LANCHOR7
 1229 0178 00000000 		.word	.LANCHOR3
 1230              		.cfi_endproc
 1231              	.LFE4781:
 1233              		.section	.text._ZN7daisysp6ShaperILj512EE4initEv,"axG",%progbits,_ZN7daisysp6ShaperILj512EE4initEv
 1234              		.align	1
 1235              		.p2align 2,,3
 1236              		.weak	_ZN7daisysp6ShaperILj512EE4initEv
 1237              		.syntax unified
 1238              		.thumb
 1239              		.thumb_func
 1241              	_ZN7daisysp6ShaperILj512EE4initEv:
 1242              	.LVL73:
 1243              	.LFB5097:
  75:shaper.h      ****         std::fill(weights.begin(), weights.end(), 1.f); 
 1244              		.loc 14 75 10 is_stmt 1 view -0
 1245              		.cfi_startproc
 1246              		@ args = 0, pretend = 0, frame = 0
 1247              		@ frame_needed = 0, uses_anonymous_args = 0
 1248              		@ link register save eliminated.
 1249              	.LBB569:
ARM GAS  /var/folders/z2/7_lhr9dn53s9tj4s0rwtyswm0000gn/T//ccJ9q3ms.s 			page 58


 1250              	.LBI569:
 126:/Applications/ARM/arm-none-eabi/include/c++/10.3.1/array ****       { return iterator(data()); }
 1251              		.loc 16 126 7 view .LVU351
 1252              	.LBB570:
 1253              	.LBI570:
 234:/Applications/ARM/arm-none-eabi/include/c++/10.3.1/array ****       { return _AT_Type::_S_ptr(_M_elems); }
 1254              		.loc 16 234 7 view .LVU352
 1255              	.LBB571:
 1256              		.loc 16 235 33 is_stmt 0 view .LVU353
 1257 0000 0346     		mov	r3, r0
 1258              	.LVL74:
 1259              		.loc 16 235 33 view .LVU354
 1260              	.LBE571:
 1261              	.LBE570:
 1262              	.LBE569:
 1263              	.LBB574:
 1264              	.LBI574:
 236:/Applications/ARM/arm-none-eabi/include/c++/10.3.1/bits/stl_algobase.h **** 	return __b;
 237:/Applications/ARM/arm-none-eabi/include/c++/10.3.1/bits/stl_algobase.h ****       return __a;
 238:/Applications/ARM/arm-none-eabi/include/c++/10.3.1/bits/stl_algobase.h ****     }
 239:/Applications/ARM/arm-none-eabi/include/c++/10.3.1/bits/stl_algobase.h **** 
 240:/Applications/ARM/arm-none-eabi/include/c++/10.3.1/bits/stl_algobase.h ****   /**
 241:/Applications/ARM/arm-none-eabi/include/c++/10.3.1/bits/stl_algobase.h ****    *  @brief This does what you think it does.
 242:/Applications/ARM/arm-none-eabi/include/c++/10.3.1/bits/stl_algobase.h ****    *  @ingroup sorting_algorithms
 243:/Applications/ARM/arm-none-eabi/include/c++/10.3.1/bits/stl_algobase.h ****    *  @param  __a  A thing of arbitrary type.
 244:/Applications/ARM/arm-none-eabi/include/c++/10.3.1/bits/stl_algobase.h ****    *  @param  __b  Another thing of arbitrary type.
 245:/Applications/ARM/arm-none-eabi/include/c++/10.3.1/bits/stl_algobase.h ****    *  @return   The greater of the parameters.
 246:/Applications/ARM/arm-none-eabi/include/c++/10.3.1/bits/stl_algobase.h ****    *
 247:/Applications/ARM/arm-none-eabi/include/c++/10.3.1/bits/stl_algobase.h ****    *  This is the simple classic generic implementation.  It will work on
 248:/Applications/ARM/arm-none-eabi/include/c++/10.3.1/bits/stl_algobase.h ****    *  temporary expressions, since they are only evaluated once, unlike a
 249:/Applications/ARM/arm-none-eabi/include/c++/10.3.1/bits/stl_algobase.h ****    *  preprocessor macro.
 250:/Applications/ARM/arm-none-eabi/include/c++/10.3.1/bits/stl_algobase.h ****   */
 251:/Applications/ARM/arm-none-eabi/include/c++/10.3.1/bits/stl_algobase.h ****   template<typename _Tp>
 252:/Applications/ARM/arm-none-eabi/include/c++/10.3.1/bits/stl_algobase.h ****     _GLIBCXX14_CONSTEXPR
 253:/Applications/ARM/arm-none-eabi/include/c++/10.3.1/bits/stl_algobase.h ****     inline const _Tp&
 254:/Applications/ARM/arm-none-eabi/include/c++/10.3.1/bits/stl_algobase.h ****     max(const _Tp& __a, const _Tp& __b)
 255:/Applications/ARM/arm-none-eabi/include/c++/10.3.1/bits/stl_algobase.h ****     {
 256:/Applications/ARM/arm-none-eabi/include/c++/10.3.1/bits/stl_algobase.h ****       // concept requirements
 257:/Applications/ARM/arm-none-eabi/include/c++/10.3.1/bits/stl_algobase.h ****       __glibcxx_function_requires(_LessThanComparableConcept<_Tp>)
 258:/Applications/ARM/arm-none-eabi/include/c++/10.3.1/bits/stl_algobase.h ****       //return  __a < __b ? __b : __a;
 259:/Applications/ARM/arm-none-eabi/include/c++/10.3.1/bits/stl_algobase.h ****       if (__a < __b)
 260:/Applications/ARM/arm-none-eabi/include/c++/10.3.1/bits/stl_algobase.h **** 	return __b;
 261:/Applications/ARM/arm-none-eabi/include/c++/10.3.1/bits/stl_algobase.h ****       return __a;
 262:/Applications/ARM/arm-none-eabi/include/c++/10.3.1/bits/stl_algobase.h ****     }
 263:/Applications/ARM/arm-none-eabi/include/c++/10.3.1/bits/stl_algobase.h **** 
 264:/Applications/ARM/arm-none-eabi/include/c++/10.3.1/bits/stl_algobase.h ****   /**
 265:/Applications/ARM/arm-none-eabi/include/c++/10.3.1/bits/stl_algobase.h ****    *  @brief This does what you think it does.
 266:/Applications/ARM/arm-none-eabi/include/c++/10.3.1/bits/stl_algobase.h ****    *  @ingroup sorting_algorithms
 267:/Applications/ARM/arm-none-eabi/include/c++/10.3.1/bits/stl_algobase.h ****    *  @param  __a  A thing of arbitrary type.
 268:/Applications/ARM/arm-none-eabi/include/c++/10.3.1/bits/stl_algobase.h ****    *  @param  __b  Another thing of arbitrary type.
 269:/Applications/ARM/arm-none-eabi/include/c++/10.3.1/bits/stl_algobase.h ****    *  @param  __comp  A @link comparison_functors comparison functor@endlink.
 270:/Applications/ARM/arm-none-eabi/include/c++/10.3.1/bits/stl_algobase.h ****    *  @return   The lesser of the parameters.
 271:/Applications/ARM/arm-none-eabi/include/c++/10.3.1/bits/stl_algobase.h ****    *
 272:/Applications/ARM/arm-none-eabi/include/c++/10.3.1/bits/stl_algobase.h ****    *  This will work on temporary expressions, since they are only evaluated
 273:/Applications/ARM/arm-none-eabi/include/c++/10.3.1/bits/stl_algobase.h ****    *  once, unlike a preprocessor macro.
 274:/Applications/ARM/arm-none-eabi/include/c++/10.3.1/bits/stl_algobase.h ****   */
 275:/Applications/ARM/arm-none-eabi/include/c++/10.3.1/bits/stl_algobase.h ****   template<typename _Tp, typename _Compare>
ARM GAS  /var/folders/z2/7_lhr9dn53s9tj4s0rwtyswm0000gn/T//ccJ9q3ms.s 			page 59


 276:/Applications/ARM/arm-none-eabi/include/c++/10.3.1/bits/stl_algobase.h ****     _GLIBCXX14_CONSTEXPR
 277:/Applications/ARM/arm-none-eabi/include/c++/10.3.1/bits/stl_algobase.h ****     inline const _Tp&
 278:/Applications/ARM/arm-none-eabi/include/c++/10.3.1/bits/stl_algobase.h ****     min(const _Tp& __a, const _Tp& __b, _Compare __comp)
 279:/Applications/ARM/arm-none-eabi/include/c++/10.3.1/bits/stl_algobase.h ****     {
 280:/Applications/ARM/arm-none-eabi/include/c++/10.3.1/bits/stl_algobase.h ****       //return __comp(__b, __a) ? __b : __a;
 281:/Applications/ARM/arm-none-eabi/include/c++/10.3.1/bits/stl_algobase.h ****       if (__comp(__b, __a))
 282:/Applications/ARM/arm-none-eabi/include/c++/10.3.1/bits/stl_algobase.h **** 	return __b;
 283:/Applications/ARM/arm-none-eabi/include/c++/10.3.1/bits/stl_algobase.h ****       return __a;
 284:/Applications/ARM/arm-none-eabi/include/c++/10.3.1/bits/stl_algobase.h ****     }
 285:/Applications/ARM/arm-none-eabi/include/c++/10.3.1/bits/stl_algobase.h **** 
 286:/Applications/ARM/arm-none-eabi/include/c++/10.3.1/bits/stl_algobase.h ****   /**
 287:/Applications/ARM/arm-none-eabi/include/c++/10.3.1/bits/stl_algobase.h ****    *  @brief This does what you think it does.
 288:/Applications/ARM/arm-none-eabi/include/c++/10.3.1/bits/stl_algobase.h ****    *  @ingroup sorting_algorithms
 289:/Applications/ARM/arm-none-eabi/include/c++/10.3.1/bits/stl_algobase.h ****    *  @param  __a  A thing of arbitrary type.
 290:/Applications/ARM/arm-none-eabi/include/c++/10.3.1/bits/stl_algobase.h ****    *  @param  __b  Another thing of arbitrary type.
 291:/Applications/ARM/arm-none-eabi/include/c++/10.3.1/bits/stl_algobase.h ****    *  @param  __comp  A @link comparison_functors comparison functor@endlink.
 292:/Applications/ARM/arm-none-eabi/include/c++/10.3.1/bits/stl_algobase.h ****    *  @return   The greater of the parameters.
 293:/Applications/ARM/arm-none-eabi/include/c++/10.3.1/bits/stl_algobase.h ****    *
 294:/Applications/ARM/arm-none-eabi/include/c++/10.3.1/bits/stl_algobase.h ****    *  This will work on temporary expressions, since they are only evaluated
 295:/Applications/ARM/arm-none-eabi/include/c++/10.3.1/bits/stl_algobase.h ****    *  once, unlike a preprocessor macro.
 296:/Applications/ARM/arm-none-eabi/include/c++/10.3.1/bits/stl_algobase.h ****   */
 297:/Applications/ARM/arm-none-eabi/include/c++/10.3.1/bits/stl_algobase.h ****   template<typename _Tp, typename _Compare>
 298:/Applications/ARM/arm-none-eabi/include/c++/10.3.1/bits/stl_algobase.h ****     _GLIBCXX14_CONSTEXPR
 299:/Applications/ARM/arm-none-eabi/include/c++/10.3.1/bits/stl_algobase.h ****     inline const _Tp&
 300:/Applications/ARM/arm-none-eabi/include/c++/10.3.1/bits/stl_algobase.h ****     max(const _Tp& __a, const _Tp& __b, _Compare __comp)
 301:/Applications/ARM/arm-none-eabi/include/c++/10.3.1/bits/stl_algobase.h ****     {
 302:/Applications/ARM/arm-none-eabi/include/c++/10.3.1/bits/stl_algobase.h ****       //return __comp(__a, __b) ? __b : __a;
 303:/Applications/ARM/arm-none-eabi/include/c++/10.3.1/bits/stl_algobase.h ****       if (__comp(__a, __b))
 304:/Applications/ARM/arm-none-eabi/include/c++/10.3.1/bits/stl_algobase.h **** 	return __b;
 305:/Applications/ARM/arm-none-eabi/include/c++/10.3.1/bits/stl_algobase.h ****       return __a;
 306:/Applications/ARM/arm-none-eabi/include/c++/10.3.1/bits/stl_algobase.h ****     }
 307:/Applications/ARM/arm-none-eabi/include/c++/10.3.1/bits/stl_algobase.h **** 
 308:/Applications/ARM/arm-none-eabi/include/c++/10.3.1/bits/stl_algobase.h ****   // Fallback implementation of the function in bits/stl_iterator.h used to
 309:/Applications/ARM/arm-none-eabi/include/c++/10.3.1/bits/stl_algobase.h ****   // remove the __normal_iterator wrapper. See copy, fill, ...
 310:/Applications/ARM/arm-none-eabi/include/c++/10.3.1/bits/stl_algobase.h ****   template<typename _Iterator>
 311:/Applications/ARM/arm-none-eabi/include/c++/10.3.1/bits/stl_algobase.h ****     _GLIBCXX20_CONSTEXPR
 312:/Applications/ARM/arm-none-eabi/include/c++/10.3.1/bits/stl_algobase.h ****     inline _Iterator
 313:/Applications/ARM/arm-none-eabi/include/c++/10.3.1/bits/stl_algobase.h ****     __niter_base(_Iterator __it)
 314:/Applications/ARM/arm-none-eabi/include/c++/10.3.1/bits/stl_algobase.h ****     _GLIBCXX_NOEXCEPT_IF(std::is_nothrow_copy_constructible<_Iterator>::value)
 315:/Applications/ARM/arm-none-eabi/include/c++/10.3.1/bits/stl_algobase.h ****     { return __it; }
 316:/Applications/ARM/arm-none-eabi/include/c++/10.3.1/bits/stl_algobase.h **** 
 317:/Applications/ARM/arm-none-eabi/include/c++/10.3.1/bits/stl_algobase.h ****   // Reverse the __niter_base transformation to get a
 318:/Applications/ARM/arm-none-eabi/include/c++/10.3.1/bits/stl_algobase.h ****   // __normal_iterator back again (this assumes that __normal_iterator
 319:/Applications/ARM/arm-none-eabi/include/c++/10.3.1/bits/stl_algobase.h ****   // is only used to wrap random access iterators, like pointers).
 320:/Applications/ARM/arm-none-eabi/include/c++/10.3.1/bits/stl_algobase.h ****   template<typename _From, typename _To>
 321:/Applications/ARM/arm-none-eabi/include/c++/10.3.1/bits/stl_algobase.h ****     _GLIBCXX20_CONSTEXPR
 322:/Applications/ARM/arm-none-eabi/include/c++/10.3.1/bits/stl_algobase.h ****     inline _From
 323:/Applications/ARM/arm-none-eabi/include/c++/10.3.1/bits/stl_algobase.h ****     __niter_wrap(_From __from, _To __res)
 324:/Applications/ARM/arm-none-eabi/include/c++/10.3.1/bits/stl_algobase.h ****     { return __from + (__res - std::__niter_base(__from)); }
 325:/Applications/ARM/arm-none-eabi/include/c++/10.3.1/bits/stl_algobase.h **** 
 326:/Applications/ARM/arm-none-eabi/include/c++/10.3.1/bits/stl_algobase.h ****   // No need to wrap, iterator already has the right type.
 327:/Applications/ARM/arm-none-eabi/include/c++/10.3.1/bits/stl_algobase.h ****   template<typename _Iterator>
 328:/Applications/ARM/arm-none-eabi/include/c++/10.3.1/bits/stl_algobase.h ****     _GLIBCXX20_CONSTEXPR
 329:/Applications/ARM/arm-none-eabi/include/c++/10.3.1/bits/stl_algobase.h ****     inline _Iterator
 330:/Applications/ARM/arm-none-eabi/include/c++/10.3.1/bits/stl_algobase.h ****     __niter_wrap(const _Iterator&, _Iterator __res)
 331:/Applications/ARM/arm-none-eabi/include/c++/10.3.1/bits/stl_algobase.h ****     { return __res; }
 332:/Applications/ARM/arm-none-eabi/include/c++/10.3.1/bits/stl_algobase.h **** 
ARM GAS  /var/folders/z2/7_lhr9dn53s9tj4s0rwtyswm0000gn/T//ccJ9q3ms.s 			page 60


 333:/Applications/ARM/arm-none-eabi/include/c++/10.3.1/bits/stl_algobase.h ****   // All of these auxiliary structs serve two purposes.  (1) Replace
 334:/Applications/ARM/arm-none-eabi/include/c++/10.3.1/bits/stl_algobase.h ****   // calls to copy with memmove whenever possible.  (Memmove, not memcpy,
 335:/Applications/ARM/arm-none-eabi/include/c++/10.3.1/bits/stl_algobase.h ****   // because the input and output ranges are permitted to overlap.)
 336:/Applications/ARM/arm-none-eabi/include/c++/10.3.1/bits/stl_algobase.h ****   // (2) If we're using random access iterators, then write the loop as
 337:/Applications/ARM/arm-none-eabi/include/c++/10.3.1/bits/stl_algobase.h ****   // a for loop with an explicit count.
 338:/Applications/ARM/arm-none-eabi/include/c++/10.3.1/bits/stl_algobase.h **** 
 339:/Applications/ARM/arm-none-eabi/include/c++/10.3.1/bits/stl_algobase.h ****   template<bool _IsMove, bool _IsSimple, typename _Category>
 340:/Applications/ARM/arm-none-eabi/include/c++/10.3.1/bits/stl_algobase.h ****     struct __copy_move
 341:/Applications/ARM/arm-none-eabi/include/c++/10.3.1/bits/stl_algobase.h ****     {
 342:/Applications/ARM/arm-none-eabi/include/c++/10.3.1/bits/stl_algobase.h ****       template<typename _II, typename _OI>
 343:/Applications/ARM/arm-none-eabi/include/c++/10.3.1/bits/stl_algobase.h **** 	_GLIBCXX20_CONSTEXPR
 344:/Applications/ARM/arm-none-eabi/include/c++/10.3.1/bits/stl_algobase.h **** 	static _OI
 345:/Applications/ARM/arm-none-eabi/include/c++/10.3.1/bits/stl_algobase.h **** 	__copy_m(_II __first, _II __last, _OI __result)
 346:/Applications/ARM/arm-none-eabi/include/c++/10.3.1/bits/stl_algobase.h **** 	{
 347:/Applications/ARM/arm-none-eabi/include/c++/10.3.1/bits/stl_algobase.h **** 	  for (; __first != __last; ++__result, (void)++__first)
 348:/Applications/ARM/arm-none-eabi/include/c++/10.3.1/bits/stl_algobase.h **** 	    *__result = *__first;
 349:/Applications/ARM/arm-none-eabi/include/c++/10.3.1/bits/stl_algobase.h **** 	  return __result;
 350:/Applications/ARM/arm-none-eabi/include/c++/10.3.1/bits/stl_algobase.h **** 	}
 351:/Applications/ARM/arm-none-eabi/include/c++/10.3.1/bits/stl_algobase.h ****     };
 352:/Applications/ARM/arm-none-eabi/include/c++/10.3.1/bits/stl_algobase.h **** 
 353:/Applications/ARM/arm-none-eabi/include/c++/10.3.1/bits/stl_algobase.h **** #if __cplusplus >= 201103L
 354:/Applications/ARM/arm-none-eabi/include/c++/10.3.1/bits/stl_algobase.h ****   template<typename _Category>
 355:/Applications/ARM/arm-none-eabi/include/c++/10.3.1/bits/stl_algobase.h ****     struct __copy_move<true, false, _Category>
 356:/Applications/ARM/arm-none-eabi/include/c++/10.3.1/bits/stl_algobase.h ****     {
 357:/Applications/ARM/arm-none-eabi/include/c++/10.3.1/bits/stl_algobase.h ****       template<typename _II, typename _OI>
 358:/Applications/ARM/arm-none-eabi/include/c++/10.3.1/bits/stl_algobase.h **** 	_GLIBCXX20_CONSTEXPR
 359:/Applications/ARM/arm-none-eabi/include/c++/10.3.1/bits/stl_algobase.h **** 	static _OI
 360:/Applications/ARM/arm-none-eabi/include/c++/10.3.1/bits/stl_algobase.h **** 	__copy_m(_II __first, _II __last, _OI __result)
 361:/Applications/ARM/arm-none-eabi/include/c++/10.3.1/bits/stl_algobase.h **** 	{
 362:/Applications/ARM/arm-none-eabi/include/c++/10.3.1/bits/stl_algobase.h **** 	  for (; __first != __last; ++__result, (void)++__first)
 363:/Applications/ARM/arm-none-eabi/include/c++/10.3.1/bits/stl_algobase.h **** 	    *__result = std::move(*__first);
 364:/Applications/ARM/arm-none-eabi/include/c++/10.3.1/bits/stl_algobase.h **** 	  return __result;
 365:/Applications/ARM/arm-none-eabi/include/c++/10.3.1/bits/stl_algobase.h **** 	}
 366:/Applications/ARM/arm-none-eabi/include/c++/10.3.1/bits/stl_algobase.h ****     };
 367:/Applications/ARM/arm-none-eabi/include/c++/10.3.1/bits/stl_algobase.h **** #endif
 368:/Applications/ARM/arm-none-eabi/include/c++/10.3.1/bits/stl_algobase.h **** 
 369:/Applications/ARM/arm-none-eabi/include/c++/10.3.1/bits/stl_algobase.h ****   template<>
 370:/Applications/ARM/arm-none-eabi/include/c++/10.3.1/bits/stl_algobase.h ****     struct __copy_move<false, false, random_access_iterator_tag>
 371:/Applications/ARM/arm-none-eabi/include/c++/10.3.1/bits/stl_algobase.h ****     {
 372:/Applications/ARM/arm-none-eabi/include/c++/10.3.1/bits/stl_algobase.h ****       template<typename _II, typename _OI>
 373:/Applications/ARM/arm-none-eabi/include/c++/10.3.1/bits/stl_algobase.h **** 	_GLIBCXX20_CONSTEXPR
 374:/Applications/ARM/arm-none-eabi/include/c++/10.3.1/bits/stl_algobase.h **** 	static _OI
 375:/Applications/ARM/arm-none-eabi/include/c++/10.3.1/bits/stl_algobase.h **** 	__copy_m(_II __first, _II __last, _OI __result)
 376:/Applications/ARM/arm-none-eabi/include/c++/10.3.1/bits/stl_algobase.h **** 	{
 377:/Applications/ARM/arm-none-eabi/include/c++/10.3.1/bits/stl_algobase.h **** 	  typedef typename iterator_traits<_II>::difference_type _Distance;
 378:/Applications/ARM/arm-none-eabi/include/c++/10.3.1/bits/stl_algobase.h **** 	  for(_Distance __n = __last - __first; __n > 0; --__n)
 379:/Applications/ARM/arm-none-eabi/include/c++/10.3.1/bits/stl_algobase.h **** 	    {
 380:/Applications/ARM/arm-none-eabi/include/c++/10.3.1/bits/stl_algobase.h **** 	      *__result = *__first;
 381:/Applications/ARM/arm-none-eabi/include/c++/10.3.1/bits/stl_algobase.h **** 	      ++__first;
 382:/Applications/ARM/arm-none-eabi/include/c++/10.3.1/bits/stl_algobase.h **** 	      ++__result;
 383:/Applications/ARM/arm-none-eabi/include/c++/10.3.1/bits/stl_algobase.h **** 	    }
 384:/Applications/ARM/arm-none-eabi/include/c++/10.3.1/bits/stl_algobase.h **** 	  return __result;
 385:/Applications/ARM/arm-none-eabi/include/c++/10.3.1/bits/stl_algobase.h **** 	}
 386:/Applications/ARM/arm-none-eabi/include/c++/10.3.1/bits/stl_algobase.h ****     };
 387:/Applications/ARM/arm-none-eabi/include/c++/10.3.1/bits/stl_algobase.h **** 
 388:/Applications/ARM/arm-none-eabi/include/c++/10.3.1/bits/stl_algobase.h **** #if __cplusplus >= 201103L
 389:/Applications/ARM/arm-none-eabi/include/c++/10.3.1/bits/stl_algobase.h ****   template<>
ARM GAS  /var/folders/z2/7_lhr9dn53s9tj4s0rwtyswm0000gn/T//ccJ9q3ms.s 			page 61


 390:/Applications/ARM/arm-none-eabi/include/c++/10.3.1/bits/stl_algobase.h ****     struct __copy_move<true, false, random_access_iterator_tag>
 391:/Applications/ARM/arm-none-eabi/include/c++/10.3.1/bits/stl_algobase.h ****     {
 392:/Applications/ARM/arm-none-eabi/include/c++/10.3.1/bits/stl_algobase.h ****       template<typename _II, typename _OI>
 393:/Applications/ARM/arm-none-eabi/include/c++/10.3.1/bits/stl_algobase.h **** 	_GLIBCXX20_CONSTEXPR
 394:/Applications/ARM/arm-none-eabi/include/c++/10.3.1/bits/stl_algobase.h **** 	static _OI
 395:/Applications/ARM/arm-none-eabi/include/c++/10.3.1/bits/stl_algobase.h **** 	__copy_m(_II __first, _II __last, _OI __result)
 396:/Applications/ARM/arm-none-eabi/include/c++/10.3.1/bits/stl_algobase.h **** 	{
 397:/Applications/ARM/arm-none-eabi/include/c++/10.3.1/bits/stl_algobase.h **** 	  typedef typename iterator_traits<_II>::difference_type _Distance;
 398:/Applications/ARM/arm-none-eabi/include/c++/10.3.1/bits/stl_algobase.h **** 	  for(_Distance __n = __last - __first; __n > 0; --__n)
 399:/Applications/ARM/arm-none-eabi/include/c++/10.3.1/bits/stl_algobase.h **** 	    {
 400:/Applications/ARM/arm-none-eabi/include/c++/10.3.1/bits/stl_algobase.h **** 	      *__result = std::move(*__first);
 401:/Applications/ARM/arm-none-eabi/include/c++/10.3.1/bits/stl_algobase.h **** 	      ++__first;
 402:/Applications/ARM/arm-none-eabi/include/c++/10.3.1/bits/stl_algobase.h **** 	      ++__result;
 403:/Applications/ARM/arm-none-eabi/include/c++/10.3.1/bits/stl_algobase.h **** 	    }
 404:/Applications/ARM/arm-none-eabi/include/c++/10.3.1/bits/stl_algobase.h **** 	  return __result;
 405:/Applications/ARM/arm-none-eabi/include/c++/10.3.1/bits/stl_algobase.h **** 	}
 406:/Applications/ARM/arm-none-eabi/include/c++/10.3.1/bits/stl_algobase.h ****     };
 407:/Applications/ARM/arm-none-eabi/include/c++/10.3.1/bits/stl_algobase.h **** #endif
 408:/Applications/ARM/arm-none-eabi/include/c++/10.3.1/bits/stl_algobase.h **** 
 409:/Applications/ARM/arm-none-eabi/include/c++/10.3.1/bits/stl_algobase.h ****   template<bool _IsMove>
 410:/Applications/ARM/arm-none-eabi/include/c++/10.3.1/bits/stl_algobase.h ****     struct __copy_move<_IsMove, true, random_access_iterator_tag>
 411:/Applications/ARM/arm-none-eabi/include/c++/10.3.1/bits/stl_algobase.h ****     {
 412:/Applications/ARM/arm-none-eabi/include/c++/10.3.1/bits/stl_algobase.h ****       template<typename _Tp>
 413:/Applications/ARM/arm-none-eabi/include/c++/10.3.1/bits/stl_algobase.h **** 	_GLIBCXX20_CONSTEXPR
 414:/Applications/ARM/arm-none-eabi/include/c++/10.3.1/bits/stl_algobase.h **** 	static _Tp*
 415:/Applications/ARM/arm-none-eabi/include/c++/10.3.1/bits/stl_algobase.h **** 	__copy_m(const _Tp* __first, const _Tp* __last, _Tp* __result)
 416:/Applications/ARM/arm-none-eabi/include/c++/10.3.1/bits/stl_algobase.h **** 	{
 417:/Applications/ARM/arm-none-eabi/include/c++/10.3.1/bits/stl_algobase.h **** #if __cplusplus >= 201103L
 418:/Applications/ARM/arm-none-eabi/include/c++/10.3.1/bits/stl_algobase.h **** 	  using __assignable = conditional<_IsMove,
 419:/Applications/ARM/arm-none-eabi/include/c++/10.3.1/bits/stl_algobase.h **** 					   is_move_assignable<_Tp>,
 420:/Applications/ARM/arm-none-eabi/include/c++/10.3.1/bits/stl_algobase.h **** 					   is_copy_assignable<_Tp>>;
 421:/Applications/ARM/arm-none-eabi/include/c++/10.3.1/bits/stl_algobase.h **** 	  // trivial types can have deleted assignment
 422:/Applications/ARM/arm-none-eabi/include/c++/10.3.1/bits/stl_algobase.h **** 	  static_assert( __assignable::type::value, "type is not assignable" );
 423:/Applications/ARM/arm-none-eabi/include/c++/10.3.1/bits/stl_algobase.h **** #endif
 424:/Applications/ARM/arm-none-eabi/include/c++/10.3.1/bits/stl_algobase.h **** 	  const ptrdiff_t _Num = __last - __first;
 425:/Applications/ARM/arm-none-eabi/include/c++/10.3.1/bits/stl_algobase.h **** 	  if (_Num)
 426:/Applications/ARM/arm-none-eabi/include/c++/10.3.1/bits/stl_algobase.h **** 	    __builtin_memmove(__result, __first, sizeof(_Tp) * _Num);
 427:/Applications/ARM/arm-none-eabi/include/c++/10.3.1/bits/stl_algobase.h **** 	  return __result + _Num;
 428:/Applications/ARM/arm-none-eabi/include/c++/10.3.1/bits/stl_algobase.h **** 	}
 429:/Applications/ARM/arm-none-eabi/include/c++/10.3.1/bits/stl_algobase.h ****     };
 430:/Applications/ARM/arm-none-eabi/include/c++/10.3.1/bits/stl_algobase.h **** 
 431:/Applications/ARM/arm-none-eabi/include/c++/10.3.1/bits/stl_algobase.h ****   // Helpers for streambuf iterators (either istream or ostream).
 432:/Applications/ARM/arm-none-eabi/include/c++/10.3.1/bits/stl_algobase.h ****   // NB: avoid including <iosfwd>, relatively large.
 433:/Applications/ARM/arm-none-eabi/include/c++/10.3.1/bits/stl_algobase.h ****   template<typename _CharT>
 434:/Applications/ARM/arm-none-eabi/include/c++/10.3.1/bits/stl_algobase.h ****     struct char_traits;
 435:/Applications/ARM/arm-none-eabi/include/c++/10.3.1/bits/stl_algobase.h **** 
 436:/Applications/ARM/arm-none-eabi/include/c++/10.3.1/bits/stl_algobase.h ****   template<typename _CharT, typename _Traits>
 437:/Applications/ARM/arm-none-eabi/include/c++/10.3.1/bits/stl_algobase.h ****     class istreambuf_iterator;
 438:/Applications/ARM/arm-none-eabi/include/c++/10.3.1/bits/stl_algobase.h **** 
 439:/Applications/ARM/arm-none-eabi/include/c++/10.3.1/bits/stl_algobase.h ****   template<typename _CharT, typename _Traits>
 440:/Applications/ARM/arm-none-eabi/include/c++/10.3.1/bits/stl_algobase.h ****     class ostreambuf_iterator;
 441:/Applications/ARM/arm-none-eabi/include/c++/10.3.1/bits/stl_algobase.h **** 
 442:/Applications/ARM/arm-none-eabi/include/c++/10.3.1/bits/stl_algobase.h ****   template<bool _IsMove, typename _CharT>
 443:/Applications/ARM/arm-none-eabi/include/c++/10.3.1/bits/stl_algobase.h ****     typename __gnu_cxx::__enable_if<__is_char<_CharT>::__value,
 444:/Applications/ARM/arm-none-eabi/include/c++/10.3.1/bits/stl_algobase.h **** 	     ostreambuf_iterator<_CharT, char_traits<_CharT> > >::__type
 445:/Applications/ARM/arm-none-eabi/include/c++/10.3.1/bits/stl_algobase.h ****     __copy_move_a2(_CharT*, _CharT*,
 446:/Applications/ARM/arm-none-eabi/include/c++/10.3.1/bits/stl_algobase.h **** 		   ostreambuf_iterator<_CharT, char_traits<_CharT> >);
ARM GAS  /var/folders/z2/7_lhr9dn53s9tj4s0rwtyswm0000gn/T//ccJ9q3ms.s 			page 62


 447:/Applications/ARM/arm-none-eabi/include/c++/10.3.1/bits/stl_algobase.h **** 
 448:/Applications/ARM/arm-none-eabi/include/c++/10.3.1/bits/stl_algobase.h ****   template<bool _IsMove, typename _CharT>
 449:/Applications/ARM/arm-none-eabi/include/c++/10.3.1/bits/stl_algobase.h ****     typename __gnu_cxx::__enable_if<__is_char<_CharT>::__value,
 450:/Applications/ARM/arm-none-eabi/include/c++/10.3.1/bits/stl_algobase.h **** 	     ostreambuf_iterator<_CharT, char_traits<_CharT> > >::__type
 451:/Applications/ARM/arm-none-eabi/include/c++/10.3.1/bits/stl_algobase.h ****     __copy_move_a2(const _CharT*, const _CharT*,
 452:/Applications/ARM/arm-none-eabi/include/c++/10.3.1/bits/stl_algobase.h **** 		   ostreambuf_iterator<_CharT, char_traits<_CharT> >);
 453:/Applications/ARM/arm-none-eabi/include/c++/10.3.1/bits/stl_algobase.h **** 
 454:/Applications/ARM/arm-none-eabi/include/c++/10.3.1/bits/stl_algobase.h ****   template<bool _IsMove, typename _CharT>
 455:/Applications/ARM/arm-none-eabi/include/c++/10.3.1/bits/stl_algobase.h ****     typename __gnu_cxx::__enable_if<__is_char<_CharT>::__value,
 456:/Applications/ARM/arm-none-eabi/include/c++/10.3.1/bits/stl_algobase.h **** 				    _CharT*>::__type
 457:/Applications/ARM/arm-none-eabi/include/c++/10.3.1/bits/stl_algobase.h ****     __copy_move_a2(istreambuf_iterator<_CharT, char_traits<_CharT> >,
 458:/Applications/ARM/arm-none-eabi/include/c++/10.3.1/bits/stl_algobase.h **** 		   istreambuf_iterator<_CharT, char_traits<_CharT> >, _CharT*);
 459:/Applications/ARM/arm-none-eabi/include/c++/10.3.1/bits/stl_algobase.h **** 
 460:/Applications/ARM/arm-none-eabi/include/c++/10.3.1/bits/stl_algobase.h ****   template<bool _IsMove, typename _II, typename _OI>
 461:/Applications/ARM/arm-none-eabi/include/c++/10.3.1/bits/stl_algobase.h ****     _GLIBCXX20_CONSTEXPR
 462:/Applications/ARM/arm-none-eabi/include/c++/10.3.1/bits/stl_algobase.h ****     inline _OI
 463:/Applications/ARM/arm-none-eabi/include/c++/10.3.1/bits/stl_algobase.h ****     __copy_move_a2(_II __first, _II __last, _OI __result)
 464:/Applications/ARM/arm-none-eabi/include/c++/10.3.1/bits/stl_algobase.h ****     {
 465:/Applications/ARM/arm-none-eabi/include/c++/10.3.1/bits/stl_algobase.h ****       typedef typename iterator_traits<_II>::iterator_category _Category;
 466:/Applications/ARM/arm-none-eabi/include/c++/10.3.1/bits/stl_algobase.h **** #ifdef __cpp_lib_is_constant_evaluated
 467:/Applications/ARM/arm-none-eabi/include/c++/10.3.1/bits/stl_algobase.h ****       if (std::is_constant_evaluated())
 468:/Applications/ARM/arm-none-eabi/include/c++/10.3.1/bits/stl_algobase.h **** 	return std::__copy_move<_IsMove, false, _Category>::
 469:/Applications/ARM/arm-none-eabi/include/c++/10.3.1/bits/stl_algobase.h **** 	  __copy_m(__first, __last, __result);
 470:/Applications/ARM/arm-none-eabi/include/c++/10.3.1/bits/stl_algobase.h **** #endif
 471:/Applications/ARM/arm-none-eabi/include/c++/10.3.1/bits/stl_algobase.h ****       return std::__copy_move<_IsMove, __memcpyable<_OI, _II>::__value,
 472:/Applications/ARM/arm-none-eabi/include/c++/10.3.1/bits/stl_algobase.h **** 			      _Category>::__copy_m(__first, __last, __result);
 473:/Applications/ARM/arm-none-eabi/include/c++/10.3.1/bits/stl_algobase.h ****     }
 474:/Applications/ARM/arm-none-eabi/include/c++/10.3.1/bits/stl_algobase.h **** 
 475:/Applications/ARM/arm-none-eabi/include/c++/10.3.1/bits/stl_algobase.h **** _GLIBCXX_BEGIN_NAMESPACE_CONTAINER
 476:/Applications/ARM/arm-none-eabi/include/c++/10.3.1/bits/stl_algobase.h **** 
 477:/Applications/ARM/arm-none-eabi/include/c++/10.3.1/bits/stl_algobase.h ****   template<typename _Tp, typename _Ref, typename _Ptr>
